

Microchip MPLAB XC8 Assembler V2.20 build 20200408173844 
                                                                                               Mon Oct 12 16:17:46 2020

Microchip MPLAB XC8 C Compiler v2.20 (Free license) build 20200408173844 Og1 
     1                           	processor	18F4550
     2                           	fnconf	rparam,??,?,0
     3                           	pagewidth 120
     4                           	opt	flic
     5                           	psect	idataBANK1,global,class=CODE,delta=1,noexec
     6                           	psect	smallconst,global,reloc=2,class=SMALLCONST,delta=1,noexec
     7                           	psect	cinit,global,reloc=2,class=CODE,delta=1
     8                           	psect	bssBANK0,global,class=BANK0,space=1,delta=1,lowdata,noexec
     9                           	psect	bssBANK1,global,class=BANK1,space=1,delta=1,lowdata,noexec
    10                           	psect	dataBANK1,global,class=BANK1,space=1,delta=1,lowdata,noexec
    11                           	psect	cstackBANK0,global,class=BANK0,space=1,delta=1,lowdata,noexec
    12                           	psect	cstackCOMRAM,global,class=COMRAM,space=1,delta=1,lowdata,noexec
    13                           	psect	text0,global,reloc=2,class=CODE,delta=1
    14                           	psect	text1,global,reloc=2,class=CODE,delta=1,group=3
    15                           	psect	text2,global,reloc=2,class=CODE,delta=1,group=1
    16                           	psect	text3,global,reloc=2,class=CODE,delta=1,group=1
    17                           	psect	text4,global,reloc=2,class=CODE,delta=1,group=3
    18                           	psect	text5,global,reloc=2,class=CODE,delta=1,group=1
    19                           	psect	text6,global,reloc=2,class=CODE,delta=1,group=3
    20                           	psect	text7,global,reloc=2,class=CODE,delta=1,group=3
    21                           	psect	text8,global,reloc=2,class=CODE,delta=1,group=3
    22                           	psect	text9,global,reloc=2,class=CODE,delta=1,group=3
    23                           	psect	text10,global,reloc=2,class=CODE,delta=1,group=3
    24                           	psect	text11,global,reloc=2,class=CODE,delta=1,group=2
    25                           	psect	text12,global,reloc=2,class=CODE,delta=1,group=2
    26                           	psect	text13,global,reloc=2,class=CODE,delta=1,group=2
    27                           	psect	text14,global,reloc=2,class=CODE,delta=1,group=2
    28                           	psect	text15,global,reloc=2,class=CODE,delta=1,group=2
    29                           	psect	text16,global,reloc=2,class=CODE,delta=1,group=2
    30                           	psect	text17,global,reloc=2,class=CODE,delta=1,group=2
    31                           	psect	text18,global,reloc=2,class=CODE,delta=1,group=2
    32                           	psect	text19,global,reloc=2,class=CODE,delta=1,group=2
    33                           	psect	text20,global,reloc=2,class=CODE,delta=1,group=2
    34                           	psect	text21,global,reloc=2,class=CODE,delta=1,group=1
    35                           	psect	text22,global,reloc=2,class=CODE,delta=1,group=1
    36                           	psect	text23,global,reloc=2,class=CODE,delta=1,group=3
    37                           	psect	text24,global,reloc=2,class=CODE,delta=1,group=3
    38                           	psect	text25,global,reloc=2,class=CODE,delta=1,group=3
    39                           	psect	text26,global,reloc=2,class=CODE,delta=1,group=3
    40                           	psect	text27,global,reloc=2,class=CODE,delta=1,group=3
    41                           	psect	text28,global,reloc=2,class=CODE,delta=1,group=2
    42                           	psect	text29,global,reloc=2,class=CODE,delta=1,group=2
    43                           	psect	text30,global,reloc=2,class=CODE,delta=1,group=3
    44                           	psect	text31,global,reloc=2,class=CODE,delta=1,group=3
    45                           	psect	text32,global,reloc=2,class=CODE,delta=1,group=3
    46                           	psect	text33,global,reloc=2,class=CODE,delta=1,group=2
    47                           	psect	text34,global,reloc=2,class=CODE,delta=1
    48                           	psect	text35,global,reloc=2,class=CODE,delta=1
    49                           	psect	text36,global,reloc=2,class=CODE,delta=1
    50                           	psect	text37,global,reloc=2,class=CODE,delta=1
    51                           	psect	text38,global,reloc=2,class=CODE,delta=1
    52                           	psect	text39,global,reloc=2,class=CODE,delta=1
    53                           	psect	text40,global,reloc=2,class=CODE,delta=1
    54                           	psect	text41,global,reloc=2,class=CODE,delta=1
    55                           	psect	text42,global,reloc=2,class=CODE,delta=1
    56                           	psect	text43,global,reloc=2,class=CODE,delta=1,group=2
    57                           	psect	text44,global,reloc=2,class=CODE,delta=1
    58                           	psect	text45,global,reloc=2,class=CODE,delta=1
    59                           	psect	text46,global,reloc=2,class=CODE,delta=1
    60                           	psect	intcode,global,reloc=2,class=CODE,delta=1
    61                           	psect	intcode_body,global,reloc=2,class=CODE,delta=1
    62                           	psect	intsave_regs,global,class=BIGRAM,space=1,delta=1,noexec
    63                           	psect	rparam,global,class=COMRAM,space=1,delta=1,noexec
    64                           	psect	temp,global,ovrld,common,class=COMRAM,space=1,delta=1
    65                           	psect	idloc,global,abs,ovrld,class=IDLOC,space=5,delta=1,noexec
    66                           	psect	config,global,abs,ovrld,class=CONFIG,space=4,delta=1,noexec
    67  0000                     
    68                           ; Version 2.20
    69                           ; Generated 12/02/2020 GMT
    70                           ; 
    71                           ; Copyright © 2020, Microchip Technology Inc. and its subsidiaries ("Microchip")
    72                           ; All rights reserved.
    73                           ; 
    74                           ; This software is developed by Microchip Technology Inc. and its subsidiaries ("Microch
      +                          ip").
    75                           ; 
    76                           ; Redistribution and use in source and binary forms, with or without modification, are
    77                           ; permitted provided that the following conditions are met:
    78                           ; 
    79                           ;     1. Redistributions of source code must retain the above copyright notice, this lis
      +                          t of
    80                           ;        conditions and the following disclaimer.
    81                           ; 
    82                           ;     2. Redistributions in binary form must reproduce the above copyright notice, this 
      +                          list
    83                           ;        of conditions and the following disclaimer in the documentation and/or other
    84                           ;        materials provided with the distribution.
    85                           ; 
    86                           ;     3. Microchip's name may not be used to endorse or promote products derived from th
      +                          is
    87                           ;        software without specific prior written permission.
    88                           ; 
    89                           ; THIS SOFTWARE IS PROVIDED BY MICROCHIP "AS IS" AND ANY EXPRESS OR IMPLIED WARRANTIES,
    90                           ; INCLUDING, BUT NOT LIMITED TO, THE IMPLIED WARRANTIES OF MERCHANTABILITY AND FITNESS F
      +                          OR
    91                           ; PURPOSE ARE DISCLAIMED.  IN NO EVENT SHALL MICROCHIP BE LIABLE FOR ANY DIRECT, INDIREC
      +                          T,
    92                           ; INCIDENTAL, SPECIAL, EXEMPLARY, OR CONSEQUENTIAL DAMAGES (INCLUDING BUT NOT LIMITED TO
    93                           ; PROCUREMENT OF SUBSTITUTE GOODS OR SERVICES; LOSS OF USE, DATA OR PROFITS; OR BUSINESS
    94                           ; INTERRUPTION) HOWSOEVER CAUSED AND ON ANY THEORY OF LIABILITY, WHETHER IN CONTRACT, ST
      +                          RICT
    95                           ; LIABILITY, OR TORT (INCLUDING NEGLIGENCE OR OTHERWISE) ARISING IN ANY WAY OUT OF THE U
      +                          SE OF
    96                           ; THIS SOFTWARE, EVEN IF ADVISED OF THE POSSIBILITY OF SUCH DAMAGE.
    97                           ; 
    98                           ; 
    99                           ; Code-generator required, PIC18F4550 Definitions
   100                           ; 
   101                           ; SFR Addresses
   102  0000                     
   103                           	psect	idataBANK1
   104  0042F4                     __pidataBANK1:
   105                           	callstack 0
   106                           
   107                           ;initializer for main@F3536
   108  0042F4  06                 	db	6
   109  0042F5  09                 	db	9
   110  0042F6  09                 	db	9
   111  0042F7  06                 	db	6
   112  0042F8  00                 	db	0
   113  0042F9  00                 	db	0
   114  0042FA  00                 	db	0
   115  0042FB  00                 	db	0
   116  0000                     _ADRESL	set	4035
   117  0000                     _ADRESH	set	4036
   118  0000                     _PORTB	set	3969
   119  0000                     _PORTA	set	3968
   120  0000                     _TRISB	set	3987
   121  0000                     _TRISA	set	3986
   122  0000                     _OSCCONbits	set	4051
   123  0000                     _ADCON2bits	set	4032
   124  0000                     _ADCON0bits	set	4034
   125  0000                     _ADCON1	set	4033
   126  0000                     _INTCON2bits	set	4081
   127  0000                     _INTCONbits	set	4082
   128  0000                     _LATC	set	3979
   129  0000                     _LATEbits	set	3981
   130  0000                     _TRISC	set	3988
   131  0000                     _TRISEbits	set	3990
   132                           
   133                           	psect	smallconst
   134  000800                     __psmallconst:
   135                           	callstack 0
   136  000800  00                 	db	0
   137  000801                     STR_1:
   138  000801  4C                 	db	76	;'L'
   139  000802  61                 	db	97	;'a'
   140  000803  20                 	db	32
   141  000804  54                 	db	84	;'T'
   142  000805  65                 	db	101	;'e'
   143  000806  6D                 	db	109	;'m'
   144  000807  70                 	db	112	;'p'
   145  000808  65                 	db	101	;'e'
   146  000809  72                 	db	114	;'r'
   147  00080A  61                 	db	97	;'a'
   148  00080B  74                 	db	116	;'t'
   149  00080C  75                 	db	117	;'u'
   150  00080D  72                 	db	114	;'r'
   151  00080E  61                 	db	97	;'a'
   152  00080F  00                 	db	0
   153  000810                     STR_3:
   154  000810  25                 	db	37
   155  000811  36                 	db	54	;'6'
   156  000812  2E                 	db	46
   157  000813  32                 	db	50	;'2'
   158  000814  66                 	db	102	;'f'
   159  000815  00                 	db	0
   160  000816                     STR_7:
   161  000816  25                 	db	37
   162  000817  36                 	db	54	;'6'
   163  000818  2E                 	db	46
   164  000819  31                 	db	49	;'1'
   165  00081A  69                 	db	105	;'i'
   166  00081B  00                 	db	0
   167  00081C                     STR_2:
   168  00081C  65                 	db	101	;'e'
   169  00081D  73                 	db	115	;'s'
   170  00081E  3A                 	db	58	;':'
   171  00081F  20                 	db	32
   172  000820  00                 	db	0
   173  000821                     STR_9:
   174  000821  49                 	db	73	;'I'
   175  000822  4E                 	db	78	;'N'
   176  000823  46                 	db	70	;'F'
   177  000824  00                 	db	0
   178  000825                     STR_13:
   179  000825  4E                 	db	78	;'N'
   180  000826  41                 	db	65	;'A'
   181  000827  4E                 	db	78	;'N'
   182  000828  00                 	db	0
   183  000829                     STR_10:
   184  000829  69                 	db	105	;'i'
   185  00082A  6E                 	db	110	;'n'
   186  00082B  66                 	db	102	;'f'
   187  00082C  00                 	db	0
   188  00082D                     STR_14:
   189  00082D  6E                 	db	110	;'n'
   190  00082E  61                 	db	97	;'a'
   191  00082F  6E                 	db	110	;'n'
   192  000830  00                 	db	0
   193  000831                     STR_17:
   194  000831  6C                 	db	108	;'l'
   195  000832  66                 	db	102	;'f'
   196  000833  00                 	db	0
   197  000834                     STR_8:
   198  000834  43                 	db	67	;'C'
   199  000835  00                 	db	0
   200  000836                     STR_4:
   201  000836  4B                 	db	75	;'K'
   202  000837  00                 	db	0
   203  000838  00                 	db	0	; dummy byte at the end
   204  0000                     
   205                           ; #config settings
   206                           
   207                           	psect	cinit
   208  003FB4                     __pcinit:
   209                           	callstack 0
   210  003FB4                     start_initialization:
   211                           	callstack 0
   212  003FB4                     __initialization:
   213                           	callstack 0
   214                           
   215                           ; Initialize objects allocated to BANK1 (8 bytes)
   216                           ; load TBLPTR registers with __pidataBANK1
   217  003FB4  0EF4               	movlw	low __pidataBANK1
   218  003FB6  6EF6               	movwf	tblptrl,c
   219  003FB8  0E42               	movlw	high __pidataBANK1
   220  003FBA  6EF7               	movwf	tblptrh,c
   221  003FBC  0E00               	movlw	low (__pidataBANK1 shr (0+16))
   222  003FBE  6EF8               	movwf	tblptru,c
   223  003FC0  EE01  F05A         	lfsr	0,__pdataBANK1
   224  003FC4  EE10 F008          	lfsr	1,8
   225  003FC8                     copy_data0:
   226  003FC8  0009               	tblrd		*+
   227  003FCA  CFF5 FFEE          	movff	tablat,postinc0
   228  003FCE  50E5               	movf	postdec1,w,c
   229  003FD0  50E1               	movf	fsr1l,w,c
   230  003FD2  E1FA               	bnz	copy_data0
   231                           
   232                           ; Clear objects allocated to BANK1 (90 bytes)
   233  003FD4  EE01  F000         	lfsr	0,__pbssBANK1
   234  003FD8  0E5A               	movlw	90
   235  003FDA                     clear_0:
   236  003FDA  6AEE               	clrf	postinc0,c
   237  003FDC  06E8               	decf	wreg,f,c
   238  003FDE  E1FD               	bnz	clear_0
   239                           
   240                           ; Clear objects allocated to BANK0 (8 bytes)
   241  003FE0  EE00  F0F7         	lfsr	0,__pbssBANK0
   242  003FE4  0E08               	movlw	8
   243  003FE6                     clear_1:
   244  003FE6  6AEE               	clrf	postinc0,c
   245  003FE8  06E8               	decf	wreg,f,c
   246  003FEA  E1FD               	bnz	clear_1
   247  003FEC                     end_of_initialization:
   248                           	callstack 0
   249  003FEC                     __end_of__initialization:
   250                           	callstack 0
   251  003FEC  905F               	bcf	int$flags,0,c	;clear compiler interrupt flag (level 1)
   252  003FEE  925F               	bcf	int$flags,1,c	;clear compiler interrupt flag (level 2)
   253  003FF0  0E00               	movlw	low (__Lmediumconst shr (0+16))
   254  003FF2  6EF8               	movwf	tblptru,c
   255  003FF4  0100               	movlb	0
   256  003FF6  EF51  F013         	goto	_main	;jump to C main() function
   257                           
   258                           	psect	bssBANK0
   259  0000F7                     __pbssBANK0:
   260                           	callstack 0
   261  0000F7                     _width:
   262                           	callstack 0
   263  0000F7                     	ds	2
   264  0000F9                     _prec:
   265                           	callstack 0
   266  0000F9                     	ds	2
   267  0000FB                     _flags:
   268                           	callstack 0
   269  0000FB                     	ds	2
   270  0000FD                     _flag:
   271                           	callstack 0
   272  0000FD                     	ds	2
   273                           
   274                           	psect	bssBANK1
   275  000100                     __pbssBANK1:
   276                           	callstack 0
   277  000100                     floorf@F524:
   278                           	callstack 0
   279  000100                     	ds	4
   280  000104                     ___fpclassifyf@F463:
   281                           	callstack 0
   282  000104                     	ds	4
   283  000108                     _nout:
   284                           	callstack 0
   285  000108                     	ds	2
   286  00010A                     _dbuf:
   287                           	callstack 0
   288  00010A                     	ds	80
   289                           
   290                           	psect	dataBANK1
   291  00015A                     __pdataBANK1:
   292                           	callstack 0
   293  00015A                     main@F3536:
   294                           	callstack 0
   295  00015A                     	ds	8
   296                           
   297                           	psect	cstackBANK0
   298  000060                     __pcstackBANK0:
   299                           	callstack 0
   300  000060                     ?_efgtoa:
   301                           	callstack 0
   302  000060                     efgtoa@fp:
   303                           	callstack 0
   304                           
   305                           ; 2 bytes @ 0x0
   306  000060                     	ds	2
   307  000062                     efgtoa@f:
   308                           	callstack 0
   309                           
   310                           ; 4 bytes @ 0x2
   311  000062                     	ds	4
   312  000066                     efgtoa@c:
   313                           	callstack 0
   314                           
   315                           ; 1 bytes @ 0x6
   316  000066                     	ds	1
   317  000067                     ??_efgtoa:
   318                           
   319                           ; 1 bytes @ 0x7
   320  000067                     	ds	5
   321  00006C                     efgtoa@ou:
   322                           	callstack 0
   323                           
   324                           ; 4 bytes @ 0xC
   325  00006C                     	ds	4
   326  000070                     _efgtoa$1001:
   327                           	callstack 0
   328                           
   329                           ; 2 bytes @ 0x10
   330  000070                     	ds	2
   331  000072                     _efgtoa$1002:
   332                           	callstack 0
   333                           
   334                           ; 2 bytes @ 0x12
   335  000072                     	ds	2
   336  000074                     _efgtoa$1006:
   337                           	callstack 0
   338                           
   339                           ; 2 bytes @ 0x14
   340  000074                     	ds	2
   341  000076                     _efgtoa$1010:
   342                           	callstack 0
   343                           
   344                           ; 2 bytes @ 0x16
   345  000076                     	ds	2
   346  000078                     _efgtoa$1011:
   347                           	callstack 0
   348                           
   349                           ; 2 bytes @ 0x18
   350  000078                     	ds	2
   351  00007A                     _efgtoa$1012:
   352                           	callstack 0
   353                           
   354                           ; 2 bytes @ 0x1A
   355  00007A                     	ds	2
   356  00007C                     efgtoa@t:
   357                           	callstack 0
   358                           
   359                           ; 2 bytes @ 0x1C
   360  00007C                     	ds	2
   361  00007E                     efgtoa@pp:
   362                           	callstack 0
   363                           
   364                           ; 2 bytes @ 0x1E
   365  00007E                     	ds	2
   366  000080                     efgtoa@m:
   367                           	callstack 0
   368                           
   369                           ; 2 bytes @ 0x20
   370  000080                     	ds	2
   371  000082                     efgtoa@ne:
   372                           	callstack 0
   373                           
   374                           ; 2 bytes @ 0x22
   375  000082                     	ds	2
   376  000084                     efgtoa@d:
   377                           	callstack 0
   378                           
   379                           ; 2 bytes @ 0x24
   380  000084                     	ds	2
   381  000086                     efgtoa@sign:
   382                           	callstack 0
   383                           
   384                           ; 2 bytes @ 0x26
   385  000086                     	ds	2
   386  000088                     efgtoa@p:
   387                           	callstack 0
   388                           
   389                           ; 2 bytes @ 0x28
   390  000088                     	ds	2
   391  00008A                     efgtoa@nmode:
   392                           	callstack 0
   393                           
   394                           ; 1 bytes @ 0x2A
   395  00008A                     	ds	1
   396  00008B                     efgtoa@w:
   397                           	callstack 0
   398                           
   399                           ; 2 bytes @ 0x2B
   400  00008B                     	ds	2
   401  00008D                     efgtoa@mode:
   402                           	callstack 0
   403                           
   404                           ; 1 bytes @ 0x2D
   405  00008D                     	ds	1
   406  00008E                     efgtoa@h:
   407                           	callstack 0
   408                           
   409                           ; 4 bytes @ 0x2E
   410  00008E                     	ds	4
   411  000092                     efgtoa@l:
   412                           	callstack 0
   413                           
   414                           ; 4 bytes @ 0x32
   415  000092                     	ds	4
   416  000096                     efgtoa@i:
   417                           	callstack 0
   418                           
   419                           ; 2 bytes @ 0x36
   420  000096                     	ds	2
   421  000098                     efgtoa@g:
   422                           	callstack 0
   423                           
   424                           ; 4 bytes @ 0x38
   425  000098                     	ds	4
   426  00009C                     efgtoa@e:
   427                           	callstack 0
   428                           
   429                           ; 2 bytes @ 0x3C
   430  00009C                     	ds	2
   431  00009E                     efgtoa@n:
   432                           	callstack 0
   433                           
   434                           ; 2 bytes @ 0x3E
   435  00009E                     	ds	2
   436  0000A0                     efgtoa@u:
   437                           	callstack 0
   438                           
   439                           ; 4 bytes @ 0x40
   440  0000A0                     	ds	4
   441  0000A4                     ?_vfpfcnvrt:
   442                           	callstack 0
   443  0000A4                     vfpfcnvrt@fp:
   444                           	callstack 0
   445                           
   446                           ; 2 bytes @ 0x44
   447  0000A4                     	ds	2
   448  0000A6                     vfpfcnvrt@fmt:
   449                           	callstack 0
   450                           
   451                           ; 2 bytes @ 0x46
   452  0000A6                     	ds	2
   453  0000A8                     vfpfcnvrt@ap:
   454                           	callstack 0
   455                           
   456                           ; 2 bytes @ 0x48
   457  0000A8                     	ds	2
   458  0000AA                     ??_vfpfcnvrt:
   459                           
   460                           ; 1 bytes @ 0x4A
   461  0000AA                     	ds	4
   462  0000AE                     vfpfcnvrt@ll:
   463                           	callstack 0
   464                           
   465                           ; 8 bytes @ 0x4E
   466  0000AE                     	ds	8
   467  0000B6                     _vfpfcnvrt$1026:
   468                           	callstack 0
   469                           
   470                           ; 2 bytes @ 0x56
   471  0000B6                     	ds	2
   472  0000B8                     _vfpfcnvrt$1027:
   473                           	callstack 0
   474                           
   475                           ; 2 bytes @ 0x58
   476  0000B8                     	ds	2
   477  0000BA                     _vfpfcnvrt$1032:
   478                           	callstack 0
   479                           
   480                           ; 2 bytes @ 0x5A
   481  0000BA                     	ds	2
   482  0000BC                     vfpfcnvrt@f:
   483                           	callstack 0
   484                           
   485                           ; 4 bytes @ 0x5C
   486  0000BC                     	ds	4
   487  0000C0                     vfpfcnvrt@ct:
   488                           	callstack 0
   489                           
   490                           ; 3 bytes @ 0x60
   491  0000C0                     	ds	3
   492  0000C3                     vfpfcnvrt@c:
   493                           	callstack 0
   494                           
   495                           ; 1 bytes @ 0x63
   496  0000C3                     	ds	1
   497  0000C4                     ?_vfprintf:
   498                           	callstack 0
   499  0000C4                     vfprintf@fp:
   500                           	callstack 0
   501                           
   502                           ; 2 bytes @ 0x64
   503  0000C4                     	ds	2
   504  0000C6                     vfprintf@fmt:
   505                           	callstack 0
   506                           
   507                           ; 2 bytes @ 0x66
   508  0000C6                     	ds	2
   509  0000C8                     vfprintf@ap:
   510                           	callstack 0
   511                           
   512                           ; 2 bytes @ 0x68
   513  0000C8                     	ds	2
   514  0000CA                     vfprintf@cfmt:
   515                           	callstack 0
   516                           
   517                           ; 2 bytes @ 0x6A
   518  0000CA                     	ds	2
   519  0000CC                     ?_sprintf:
   520                           	callstack 0
   521  0000CC                     sprintf@s:
   522                           	callstack 0
   523                           
   524                           ; 2 bytes @ 0x6C
   525  0000CC                     	ds	2
   526  0000CE                     sprintf@fmt:
   527                           	callstack 0
   528                           
   529                           ; 2 bytes @ 0x6E
   530  0000CE                     	ds	8
   531  0000D6                     sprintf@ap:
   532                           	callstack 0
   533                           
   534                           ; 2 bytes @ 0x76
   535  0000D6                     	ds	2
   536  0000D8                     sprintf@f:
   537                           	callstack 0
   538                           
   539                           ; 6 bytes @ 0x78
   540  0000D8                     	ds	6
   541  0000DE                     ??_main:
   542                           
   543                           ; 1 bytes @ 0x7E
   544  0000DE                     	ds	2
   545  0000E0                     main@degree:
   546                           	callstack 0
   547                           
   548                           ; 8 bytes @ 0x80
   549  0000E0                     	ds	8
   550  0000E8                     main@f:
   551                           	callstack 0
   552                           
   553                           ; 4 bytes @ 0x88
   554  0000E8                     	ds	4
   555  0000EC                     main@k:
   556                           	callstack 0
   557                           
   558                           ; 4 bytes @ 0x8C
   559  0000EC                     	ds	4
   560  0000F0                     main@conv:
   561                           	callstack 0
   562                           
   563                           ; 2 bytes @ 0x90
   564  0000F0                     	ds	2
   565  0000F2                     main@str:
   566                           	callstack 0
   567                           
   568                           ; 3 bytes @ 0x92
   569  0000F2                     	ds	3
   570  0000F5                     main@c:
   571                           	callstack 0
   572                           
   573                           ; 2 bytes @ 0x95
   574  0000F5                     	ds	2
   575                           
   576                           	psect	cstackCOMRAM
   577  000001                     __pcstackCOMRAM:
   578                           	callstack 0
   579  000001                     ??_lcd_control:
   580  000001                     ??_lcd_dato:
   581  000001                     ?_strlen:
   582                           	callstack 0
   583  000001                     ?___fpclassifyf:
   584                           	callstack 0
   585  000001                     ?_isupper:
   586                           	callstack 0
   587  000001                     ?_isdigit:
   588                           	callstack 0
   589  000001                     ?_strncmp:
   590                           	callstack 0
   591  000001                     ?_isspace:
   592                           	callstack 0
   593  000001                     ?___wmul:
   594                           	callstack 0
   595  000001                     ?___awdiv:
   596                           	callstack 0
   597  000001                     ?___awmod:
   598                           	callstack 0
   599  000001                     ?___flneg:
   600                           	callstack 0
   601  000001                     ?___aodiv:
   602                           	callstack 0
   603  000001                     ?___aomod:
   604                           	callstack 0
   605  000001                     ___wmul@multiplier:
   606                           	callstack 0
   607  000001                     ___awdiv@dividend:
   608                           	callstack 0
   609  000001                     ___awmod@dividend:
   610                           	callstack 0
   611  000001                     isdigit@c:
   612                           	callstack 0
   613  000001                     isspace@c:
   614                           	callstack 0
   615  000001                     isupper@c:
   616                           	callstack 0
   617  000001                     fputc@c:
   618                           	callstack 0
   619  000001                     strcpy@dest:
   620                           	callstack 0
   621  000001                     strlen@s:
   622                           	callstack 0
   623  000001                     strncmp@_l:
   624                           	callstack 0
   625  000001                     ___fleq@ff1:
   626                           	callstack 0
   627  000001                     ___flneg@f1:
   628                           	callstack 0
   629  000001                     ___fpclassifyf@x:
   630                           	callstack 0
   631  000001                     ___aodiv@dividend:
   632                           	callstack 0
   633  000001                     ___aomod@dividend:
   634                           	callstack 0
   635                           
   636                           ; 8 bytes @ 0x0
   637  000001                     	ds	1
   638  000002                     lcd_control@dato:
   639                           	callstack 0
   640  000002                     lcd_dato@dato:
   641                           	callstack 0
   642                           
   643                           ; 1 bytes @ 0x1
   644  000002                     	ds	1
   645  000003                     ??_isupper:
   646  000003                     ??_isdigit:
   647  000003                     ??_isspace:
   648  000003                     ??_lcd_init:
   649  000003                     lcd_print@dato:
   650                           	callstack 0
   651  000003                     lcd_goto@x:
   652                           	callstack 0
   653  000003                     lcd_put_caracter@caracter:
   654                           	callstack 0
   655  000003                     ___wmul@multiplicand:
   656                           	callstack 0
   657  000003                     ___awdiv@divisor:
   658                           	callstack 0
   659  000003                     ___awmod@divisor:
   660                           	callstack 0
   661  000003                     fputc@fp:
   662                           	callstack 0
   663  000003                     strcpy@src:
   664                           	callstack 0
   665  000003                     strlen@a:
   666                           	callstack 0
   667  000003                     strncmp@_r:
   668                           	callstack 0
   669                           
   670                           ; 2 bytes @ 0x2
   671  000003                     	ds	2
   672  000005                     ??_fputc:
   673  000005                     ??___fpclassifyf:
   674  000005                     ??_strcpy:
   675  000005                     lcd_put_caracter@adress:
   676                           	callstack 0
   677  000005                     ___awdiv@counter:
   678                           	callstack 0
   679  000005                     ___awmod@counter:
   680                           	callstack 0
   681  000005                     lcd_print_with_position@x:
   682                           	callstack 0
   683  000005                     lcd_goto@y:
   684                           	callstack 0
   685  000005                     ___wmul@product:
   686                           	callstack 0
   687  000005                     strncmp@n:
   688                           	callstack 0
   689  000005                     ___fleq@ff2:
   690                           	callstack 0
   691                           
   692                           ; 4 bytes @ 0x4
   693  000005                     	ds	1
   694  000006                     ___awdiv@sign:
   695                           	callstack 0
   696  000006                     ___awmod@sign:
   697                           	callstack 0
   698  000006                     lcd_put_caracter@i:
   699                           	callstack 0
   700                           
   701                           ; 2 bytes @ 0x5
   702  000006                     	ds	1
   703  000007                     ??_strncmp:
   704  000007                     ??_lcd_goto:
   705  000007                     ?_tolower:
   706                           	callstack 0
   707  000007                     ?___xxtofl:
   708                           	callstack 0
   709  000007                     _isspace$1099:
   710                           	callstack 0
   711  000007                     lcd_print_with_position@y:
   712                           	callstack 0
   713  000007                     ___awdiv@quotient:
   714                           	callstack 0
   715  000007                     strcpy@s:
   716                           	callstack 0
   717  000007                     tolower@c:
   718                           	callstack 0
   719  000007                     ___xxtofl@val:
   720                           	callstack 0
   721                           
   722                           ; 4 bytes @ 0x6
   723  000007                     	ds	1
   724  000008                     ?_atoi:
   725                           	callstack 0
   726  000008                     atoi@s:
   727                           	callstack 0
   728  000008                     strncmp@l:
   729                           	callstack 0
   730                           
   731                           ; 2 bytes @ 0x7
   732  000008                     	ds	1
   733  000009                     ??_tolower:
   734  000009                     ??___fleq:
   735  000009                     lcd_goto@posicion:
   736                           	callstack 0
   737  000009                     lcd_print_with_position@dato:
   738                           	callstack 0
   739  000009                     ___fpclassifyf@e:
   740                           	callstack 0
   741  000009                     strcpy@d:
   742                           	callstack 0
   743  000009                     ___aodiv@divisor:
   744                           	callstack 0
   745  000009                     ___aomod@divisor:
   746                           	callstack 0
   747                           
   748                           ; 8 bytes @ 0x8
   749  000009                     	ds	1
   750  00000A                     ??_atoi:
   751  00000A                     fputs@s:
   752                           	callstack 0
   753  00000A                     strncmp@r:
   754                           	callstack 0
   755                           
   756                           ; 2 bytes @ 0x9
   757  00000A                     	ds	1
   758  00000B                     ??_lcd_print_with_position:
   759  00000B                     ??___xxtofl:
   760  00000B                     ___fpclassifyf@u:
   761                           	callstack 0
   762                           
   763                           ; 4 bytes @ 0xA
   764  00000B                     	ds	1
   765  00000C                     fputs@fp:
   766                           	callstack 0
   767                           
   768                           ; 2 bytes @ 0xB
   769  00000C                     	ds	1
   770  00000D                     lcd_print_with_position@posicion:
   771                           	callstack 0
   772  00000D                     _tolower$1163:
   773                           	callstack 0
   774                           
   775                           ; 2 bytes @ 0xC
   776  00000D                     	ds	1
   777  00000E                     fputs@c:
   778                           	callstack 0
   779  00000E                     atoi@neg:
   780                           	callstack 0
   781                           
   782                           ; 2 bytes @ 0xD
   783  00000E                     	ds	1
   784  00000F                     ___xxtofl@sign:
   785                           	callstack 0
   786  00000F                     fputs@i:
   787                           	callstack 0
   788                           
   789                           ; 2 bytes @ 0xE
   790  00000F                     	ds	1
   791  000010                     ___xxtofl@exp:
   792                           	callstack 0
   793  000010                     _atoi$1068:
   794                           	callstack 0
   795                           
   796                           ; 2 bytes @ 0xF
   797  000010                     	ds	1
   798  000011                     ?_pad:
   799                           	callstack 0
   800  000011                     ___aodiv@counter:
   801                           	callstack 0
   802  000011                     ___aomod@counter:
   803                           	callstack 0
   804  000011                     pad@fp:
   805                           	callstack 0
   806  000011                     ___xxtofl@arg:
   807                           	callstack 0
   808                           
   809                           ; 4 bytes @ 0x10
   810  000011                     	ds	1
   811  000012                     ___aodiv@sign:
   812                           	callstack 0
   813  000012                     ___aomod@sign:
   814                           	callstack 0
   815  000012                     _atoi$1070:
   816                           	callstack 0
   817                           
   818                           ; 2 bytes @ 0x11
   819  000012                     	ds	1
   820  000013                     ?_abs:
   821                           	callstack 0
   822  000013                     pad@buf:
   823                           	callstack 0
   824  000013                     abs@a:
   825                           	callstack 0
   826  000013                     ___aodiv@quotient:
   827                           	callstack 0
   828                           
   829                           ; 8 bytes @ 0x12
   830  000013                     	ds	1
   831  000014                     _atoi$1069:
   832                           	callstack 0
   833                           
   834                           ; 1 bytes @ 0x13
   835  000014                     	ds	1
   836  000015                     ??_abs:
   837  000015                     ?___fldiv:
   838                           	callstack 0
   839  000015                     pad@p:
   840                           	callstack 0
   841  000015                     atoi@n:
   842                           	callstack 0
   843  000015                     ___fldiv@b:
   844                           	callstack 0
   845                           
   846                           ; 4 bytes @ 0x14
   847  000015                     	ds	2
   848  000017                     ??_pad:
   849                           
   850                           ; 1 bytes @ 0x16
   851  000017                     	ds	1
   852  000018                     pad@i:
   853                           	callstack 0
   854                           
   855                           ; 2 bytes @ 0x17
   856  000018                     	ds	1
   857  000019                     ___fldiv@a:
   858                           	callstack 0
   859                           
   860                           ; 4 bytes @ 0x18
   861  000019                     	ds	1
   862  00001A                     pad@w:
   863                           	callstack 0
   864                           
   865                           ; 2 bytes @ 0x19
   866  00001A                     	ds	2
   867  00001C                     ?_dtoa:
   868                           	callstack 0
   869  00001C                     dtoa@fp:
   870                           	callstack 0
   871                           
   872                           ; 2 bytes @ 0x1B
   873  00001C                     	ds	1
   874  00001D                     ??___fldiv:
   875                           
   876                           ; 1 bytes @ 0x1C
   877  00001D                     	ds	1
   878  00001E                     dtoa@d:
   879                           	callstack 0
   880                           
   881                           ; 8 bytes @ 0x1D
   882  00001E                     	ds	3
   883  000021                     ___fldiv@rem:
   884                           	callstack 0
   885                           
   886                           ; 4 bytes @ 0x20
   887  000021                     	ds	4
   888  000025                     ___fldiv@sign:
   889                           	callstack 0
   890                           
   891                           ; 1 bytes @ 0x24
   892  000025                     	ds	1
   893  000026                     ??_dtoa:
   894  000026                     ___fldiv@new_exp:
   895                           	callstack 0
   896                           
   897                           ; 2 bytes @ 0x25
   898  000026                     	ds	2
   899  000028                     ___fldiv@grs:
   900                           	callstack 0
   901                           
   902                           ; 4 bytes @ 0x27
   903  000028                     	ds	4
   904  00002C                     ___fldiv@bexp:
   905                           	callstack 0
   906                           
   907                           ; 1 bytes @ 0x2B
   908  00002C                     	ds	1
   909  00002D                     ___fldiv@aexp:
   910                           	callstack 0
   911                           
   912                           ; 1 bytes @ 0x2C
   913  00002D                     	ds	1
   914  00002E                     ?___flmul:
   915                           	callstack 0
   916  00002E                     ?_floorf:
   917                           	callstack 0
   918  00002E                     _dtoa$977:
   919                           	callstack 0
   920  00002E                     ___flmul@b:
   921                           	callstack 0
   922  00002E                     floorf@x:
   923                           	callstack 0
   924                           
   925                           ; 4 bytes @ 0x2D
   926  00002E                     	ds	2
   927  000030                     dtoa@p:
   928                           	callstack 0
   929                           
   930                           ; 2 bytes @ 0x2F
   931  000030                     	ds	2
   932  000032                     ??_floorf:
   933  000032                     dtoa@w:
   934                           	callstack 0
   935  000032                     ___flmul@a:
   936                           	callstack 0
   937                           
   938                           ; 4 bytes @ 0x31
   939  000032                     	ds	2
   940  000034                     dtoa@s:
   941                           	callstack 0
   942                           
   943                           ; 2 bytes @ 0x33
   944  000034                     	ds	2
   945  000036                     ??___flmul:
   946  000036                     dtoa@n:
   947                           	callstack 0
   948                           
   949                           ; 8 bytes @ 0x35
   950  000036                     	ds	2
   951  000038                     floorf@m:
   952                           	callstack 0
   953                           
   954                           ; 4 bytes @ 0x37
   955  000038                     	ds	2
   956  00003A                     ___flmul@sign:
   957                           	callstack 0
   958                           
   959                           ; 1 bytes @ 0x39
   960  00003A                     	ds	1
   961  00003B                     ___flmul@grs:
   962                           	callstack 0
   963                           
   964                           ; 4 bytes @ 0x3A
   965  00003B                     	ds	1
   966  00003C                     floorf@e:
   967                           	callstack 0
   968                           
   969                           ; 2 bytes @ 0x3B
   970  00003C                     	ds	2
   971  00003E                     dtoa@i:
   972                           	callstack 0
   973  00003E                     floorf@u:
   974                           	callstack 0
   975                           
   976                           ; 4 bytes @ 0x3D
   977  00003E                     	ds	1
   978  00003F                     ___flmul@aexp:
   979                           	callstack 0
   980                           
   981                           ; 1 bytes @ 0x3E
   982  00003F                     	ds	1
   983  000040                     ___flmul@bexp:
   984                           	callstack 0
   985                           
   986                           ; 1 bytes @ 0x3F
   987  000040                     	ds	1
   988  000041                     ___flmul@prod:
   989                           	callstack 0
   990                           
   991                           ; 4 bytes @ 0x40
   992  000041                     	ds	4
   993  000045                     ___flmul@temp:
   994                           	callstack 0
   995                           
   996                           ; 2 bytes @ 0x44
   997  000045                     	ds	2
   998  000047                     ?___fladd:
   999                           	callstack 0
  1000  000047                     ?___fltol:
  1001                           	callstack 0
  1002  000047                     ___flge@ff1:
  1003                           	callstack 0
  1004  000047                     ___fltol@f1:
  1005                           	callstack 0
  1006  000047                     ___fladd@b:
  1007                           	callstack 0
  1008                           
  1009                           ; 4 bytes @ 0x46
  1010  000047                     	ds	4
  1011  00004B                     ??___fltol:
  1012  00004B                     ___flge@ff2:
  1013                           	callstack 0
  1014  00004B                     ___fladd@a:
  1015                           	callstack 0
  1016                           
  1017                           ; 4 bytes @ 0x4A
  1018  00004B                     	ds	4
  1019  00004F                     ??___fladd:
  1020  00004F                     ??___flge:
  1021  00004F                     ___fltol@sign1:
  1022                           	callstack 0
  1023                           
  1024                           ; 1 bytes @ 0x4E
  1025  00004F                     	ds	1
  1026  000050                     ___fltol@exp1:
  1027                           	callstack 0
  1028                           
  1029                           ; 1 bytes @ 0x4F
  1030  000050                     	ds	3
  1031  000053                     ___fladd@signs:
  1032                           	callstack 0
  1033                           
  1034                           ; 1 bytes @ 0x52
  1035  000053                     	ds	1
  1036  000054                     ___fladd@aexp:
  1037                           	callstack 0
  1038                           
  1039                           ; 1 bytes @ 0x53
  1040  000054                     	ds	1
  1041  000055                     ___fladd@bexp:
  1042                           	callstack 0
  1043                           
  1044                           ; 1 bytes @ 0x54
  1045  000055                     	ds	1
  1046  000056                     ___fladd@grs:
  1047                           	callstack 0
  1048                           
  1049                           ; 1 bytes @ 0x55
  1050  000056                     	ds	1
  1051  000057                     ?___flsub:
  1052                           	callstack 0
  1053  000057                     ___flsub@b:
  1054                           	callstack 0
  1055                           
  1056                           ; 4 bytes @ 0x56
  1057  000057                     	ds	4
  1058  00005B                     ___flsub@a:
  1059                           	callstack 0
  1060                           
  1061                           ; 4 bytes @ 0x5A
  1062  00005B                     	ds	4
  1063  00005F                     
  1064                           ; 1 bytes @ 0x5E
  1065 ;;
  1066 ;;Main: autosize = 0, tempsize = 2, incstack = 0, save=0
  1067 ;;
  1068 ;; *************** function _main *****************
  1069 ;; Defined at:
  1070 ;;		line 40 in file "newmain.c"
  1071 ;; Parameters:    Size  Location     Type
  1072 ;;		None
  1073 ;; Auto vars:     Size  Location     Type
  1074 ;;  degree          8  128[BANK0 ] unsigned char [8]
  1075 ;;  k               4  140[BANK0 ] float 
  1076 ;;  f               4  136[BANK0 ] float 
  1077 ;;  str             3  146[BANK0 ] unsigned char [3]
  1078 ;;  c               2  149[BANK0 ] int 
  1079 ;;  conv            2  144[BANK0 ] int 
  1080 ;; Return value:  Size  Location     Type
  1081 ;;                  1    wreg      void 
  1082 ;; Registers used:
  1083 ;;		wreg, fsr1l, fsr1h, fsr2l, fsr2h, status,2, status,0, tblptrl, tblptrh, tblptru, prodl, prodh, cstack
  1084 ;; Tracked objects:
  1085 ;;		On entry : 0/0
  1086 ;;		On exit  : 0/0
  1087 ;;		Unchanged: 0/0
  1088 ;; Data sizes:     COMRAM   BANK0   BANK1   BANK2   BANK3   BANK4   BANK5   BANK6   BANK7
  1089 ;;      Params:         0       0       0       0       0       0       0       0       0
  1090 ;;      Locals:         0      23       0       0       0       0       0       0       0
  1091 ;;      Temps:          0       2       0       0       0       0       0       0       0
  1092 ;;      Totals:         0      25       0       0       0       0       0       0       0
  1093 ;;Total ram usage:       25 bytes
  1094 ;; Hardware stack levels required when called:    9
  1095 ;; This function calls:
  1096 ;;		_ADCon_Init
  1097 ;;		_ExtInt_Init
  1098 ;;		_Port_Init
  1099 ;;		___fladd
  1100 ;;		___fldiv
  1101 ;;		___flmul
  1102 ;;		___fltol
  1103 ;;		___wmul
  1104 ;;		___xxtofl
  1105 ;;		_lcd_clear_display
  1106 ;;		_lcd_dato
  1107 ;;		_lcd_goto
  1108 ;;		_lcd_init
  1109 ;;		_lcd_print
  1110 ;;		_lcd_print_with_position
  1111 ;;		_lcd_put_caracter
  1112 ;;		_sprintf
  1113 ;; This function is called by:
  1114 ;;		Startup code after reset
  1115 ;; This function uses a non-reentrant model
  1116 ;;
  1117                           
  1118                           	psect	text0
  1119  0026A2                     __ptext0:
  1120                           	callstack 0
  1121  0026A2                     _main:
  1122                           	callstack 22
  1123  0026A2                     
  1124                           ;newmain.c: 41:     int conv;;newmain.c: 42:     int c;;newmain.c: 43:     float f;;newm
      +                          ain.c: 44:     float k;;newmain.c: 45:     char str[3];;newmain.c: 46:     ExtInt_Init()
      +                          ;
  1125  0026A2  EC75  F021         	call	_ExtInt_Init	;wreg free
  1126  0026A6                     
  1127                           ;newmain.c: 47:     ADCon_Init();
  1128  0026A6  EC50  F021         	call	_ADCon_Init	;wreg free
  1129  0026AA                     
  1130                           ;newmain.c: 48:     Port_Init();
  1131  0026AA  EC6A  F021         	call	_Port_Init	;wreg free
  1132  0026AE                     
  1133                           ;newmain.c: 49:     lcd_init();
  1134  0026AE  ECD8  F020         	call	_lcd_init	;wreg free
  1135  0026B2                     
  1136                           ;newmain.c: 50:     lcd_clear_display();
  1137  0026B2  EC7E  F021         	call	_lcd_clear_display	;wreg free
  1138  0026B6                     
  1139                           ;newmain.c: 51:     lcd_print("La Temperatura");
  1140  0026B6  0E01               	movlw	low STR_1
  1141  0026B8  6E03               	movwf	lcd_print@dato^0,c
  1142  0026BA  0E08               	movlw	high STR_1
  1143  0026BC  6E04               	movwf	(lcd_print@dato+1)^0,c
  1144  0026BE  ECB4  F01E         	call	_lcd_print	;wreg free
  1145  0026C2                     
  1146                           ;newmain.c: 52:     lcd_print_with_position(0,2,"es: ");
  1147  0026C2  0E00               	movlw	0
  1148  0026C4  6E06               	movwf	(lcd_print_with_position@x+1)^0,c
  1149  0026C6  0E00               	movlw	0
  1150  0026C8  6E05               	movwf	lcd_print_with_position@x^0,c
  1151  0026CA  0E00               	movlw	0
  1152  0026CC  6E08               	movwf	(lcd_print_with_position@y+1)^0,c
  1153  0026CE  0E02               	movlw	2
  1154  0026D0  6E07               	movwf	lcd_print_with_position@y^0,c
  1155  0026D2  0E1C               	movlw	low STR_2
  1156  0026D4  6E09               	movwf	lcd_print_with_position@dato^0,c
  1157  0026D6  0E08               	movlw	high STR_2
  1158  0026D8  6E0A               	movwf	(lcd_print_with_position@dato+1)^0,c
  1159  0026DA  EC11  F01F         	call	_lcd_print_with_position	;wreg free
  1160  0026DE                     
  1161                           ;newmain.c: 53:     char degree[8]={
  1162  0026DE  EE21  F05A         	lfsr	2,main@F3536
  1163  0026E2  EE10  F0E0         	lfsr	1,main@degree
  1164  0026E6  0E07               	movlw	7
  1165  0026E8                     u5581:
  1166  0026E8  CFDB FFE3          	movff	plusw2,plusw1
  1167  0026EC  06E8               	decf	wreg,f,c
  1168  0026EE  E2FC               	bc	u5581
  1169  0026F0                     
  1170                           ;newmain.c: 59:     lcd_put_caracter(0x00,degree);
  1171  0026F0  0EE0               	movlw	low main@degree
  1172  0026F2  6E03               	movwf	lcd_put_caracter@caracter^0,c
  1173  0026F4  0E00               	movlw	high main@degree
  1174  0026F6  6E04               	movwf	(lcd_put_caracter@caracter+1)^0,c
  1175  0026F8  0E00               	movlw	0
  1176  0026FA  ECB5  F01F         	call	_lcd_put_caracter
  1177  0026FE                     
  1178                           ;newmain.c: 60:     lcd_goto(10,2);
  1179  0026FE  0E00               	movlw	0
  1180  002700  6E04               	movwf	(lcd_goto@x+1)^0,c
  1181  002702  0E0A               	movlw	10
  1182  002704  6E03               	movwf	lcd_goto@x^0,c
  1183  002706  0E00               	movlw	0
  1184  002708  6E06               	movwf	(lcd_goto@y+1)^0,c
  1185  00270A  0E02               	movlw	2
  1186  00270C  6E05               	movwf	lcd_goto@y^0,c
  1187  00270E  EC8F  F01F         	call	_lcd_goto	;wreg free
  1188  002712                     
  1189                           ;newmain.c: 61:     lcd_dato(0x00);
  1190  002712  0E00               	movlw	0
  1191  002714  EC28  F021         	call	_lcd_dato
  1192  002718                     l4545:
  1193                           
  1194                           ;newmain.c: 63:         ADCON0bits.GO_DONE=1;
  1195  002718  82C2               	bsf	194,1,c	;volatile
  1196  00271A                     
  1197                           ;newmain.c: 64:         conv = (ADRESH*256)+ADRESL;
  1198  00271A  50C4               	movf	196,w,c	;volatile
  1199  00271C  0100               	movlb	0	; () banked
  1200  00271E  6FDF               	movwf	(??_main+1)& (0+255),b
  1201  002720  6BDE               	clrf	??_main& (0+255),b
  1202  002722  50C3               	movf	195,w,c	;volatile
  1203  002724  25DE               	addwf	??_main& (0+255),w,b
  1204  002726  6FF0               	movwf	main@conv& (0+255),b
  1205  002728  0E00               	movlw	0
  1206  00272A  21DF               	addwfc	(??_main+1)& (0+255),w,b
  1207  00272C  6FF1               	movwf	(main@conv+1)& (0+255),b
  1208  00272E                     
  1209                           ; BSR set to: 0
  1210                           ;newmain.c: 65:         c = (((conv*100)+0.0)/1023)*5;
  1211  00272E  0E00               	movlw	0
  1212  002730  6E32               	movwf	___flmul@a^0,c
  1213  002732  0E00               	movlw	0
  1214  002734  6E33               	movwf	(___flmul@a+1)^0,c
  1215  002736  0EA0               	movlw	160
  1216  002738  6E34               	movwf	(___flmul@a+2)^0,c
  1217  00273A  0E40               	movlw	64
  1218  00273C  6E35               	movwf	(___flmul@a+3)^0,c
  1219  00273E  0E00               	movlw	0
  1220  002740  6E19               	movwf	___fldiv@a^0,c
  1221  002742  0EC0               	movlw	192
  1222  002744  6E1A               	movwf	(___fldiv@a+1)^0,c
  1223  002746  0E7F               	movlw	127
  1224  002748  6E1B               	movwf	(___fldiv@a+2)^0,c
  1225  00274A  0E44               	movlw	68
  1226  00274C  6E1C               	movwf	(___fldiv@a+3)^0,c
  1227  00274E  C0F0  F001         	movff	main@conv,___wmul@multiplier
  1228  002752  C0F1  F002         	movff	main@conv+1,___wmul@multiplier+1
  1229  002756  0E00               	movlw	0
  1230  002758  6E04               	movwf	(___wmul@multiplicand+1)^0,c
  1231  00275A  0E64               	movlw	100
  1232  00275C  6E03               	movwf	___wmul@multiplicand^0,c
  1233  00275E  EC3D  F021         	call	___wmul	;wreg free
  1234  002762  C001  F007         	movff	?___wmul,___xxtofl@val
  1235  002766  C002  F008         	movff	?___wmul+1,___xxtofl@val+1
  1236  00276A  0E00               	movlw	0
  1237  00276C  BE08               	btfsc	(___xxtofl@val+1)^0,7,c
  1238  00276E  0EFF               	movlw	-1
  1239  002770  6E09               	movwf	(___xxtofl@val+2)^0,c
  1240  002772  6E0A               	movwf	(___xxtofl@val+3)^0,c
  1241  002774  0E01               	movlw	1
  1242  002776  EC71  F017         	call	___xxtofl
  1243  00277A  C007  F015         	movff	?___xxtofl,___fldiv@b
  1244  00277E  C008  F016         	movff	?___xxtofl+1,___fldiv@b+1
  1245  002782  C009  F017         	movff	?___xxtofl+2,___fldiv@b+2
  1246  002786  C00A  F018         	movff	?___xxtofl+3,___fldiv@b+3
  1247  00278A  EC84  F011         	call	___fldiv	;wreg free
  1248  00278E  C015  F02E         	movff	?___fldiv,___flmul@b
  1249  002792  C016  F02F         	movff	?___fldiv+1,___flmul@b+1
  1250  002796  C017  F030         	movff	?___fldiv+2,___flmul@b+2
  1251  00279A  C018  F031         	movff	?___fldiv+3,___flmul@b+3
  1252  00279E  EC6F  F00F         	call	___flmul	;wreg free
  1253  0027A2  C02E  F047         	movff	?___flmul,___fltol@f1
  1254  0027A6  C02F  F048         	movff	?___flmul+1,___fltol@f1+1
  1255  0027AA  C030  F049         	movff	?___flmul+2,___fltol@f1+2
  1256  0027AE  C031  F04A         	movff	?___flmul+3,___fltol@f1+3
  1257  0027B2  EC89  F01A         	call	___fltol	;wreg free
  1258  0027B6  C047  F0F5         	movff	?___fltol,main@c
  1259  0027BA  C048  F0F6         	movff	?___fltol+1,main@c+1
  1260  0027BE                     
  1261                           ;newmain.c: 66:         f = (((c+0.0)*9)/5)+32;
  1262  0027BE  0E00               	movlw	0
  1263  0027C0  6E19               	movwf	___fldiv@a^0,c
  1264  0027C2  0E00               	movlw	0
  1265  0027C4  6E1A               	movwf	(___fldiv@a+1)^0,c
  1266  0027C6  0EA0               	movlw	160
  1267  0027C8  6E1B               	movwf	(___fldiv@a+2)^0,c
  1268  0027CA  0E40               	movlw	64
  1269  0027CC  6E1C               	movwf	(___fldiv@a+3)^0,c
  1270  0027CE  0E00               	movlw	0
  1271  0027D0  6E32               	movwf	___flmul@a^0,c
  1272  0027D2  0E00               	movlw	0
  1273  0027D4  6E33               	movwf	(___flmul@a+1)^0,c
  1274  0027D6  0E10               	movlw	16
  1275  0027D8  6E34               	movwf	(___flmul@a+2)^0,c
  1276  0027DA  0E41               	movlw	65
  1277  0027DC  6E35               	movwf	(___flmul@a+3)^0,c
  1278  0027DE  C0F5  F007         	movff	main@c,___xxtofl@val
  1279  0027E2  C0F6  F008         	movff	main@c+1,___xxtofl@val+1
  1280  0027E6  0E00               	movlw	0
  1281  0027E8  BE08               	btfsc	(___xxtofl@val+1)^0,7,c
  1282  0027EA  0EFF               	movlw	-1
  1283  0027EC  6E09               	movwf	(___xxtofl@val+2)^0,c
  1284  0027EE  6E0A               	movwf	(___xxtofl@val+3)^0,c
  1285  0027F0  0E01               	movlw	1
  1286  0027F2  EC71  F017         	call	___xxtofl
  1287  0027F6  C007  F02E         	movff	?___xxtofl,___flmul@b
  1288  0027FA  C008  F02F         	movff	?___xxtofl+1,___flmul@b+1
  1289  0027FE  C009  F030         	movff	?___xxtofl+2,___flmul@b+2
  1290  002802  C00A  F031         	movff	?___xxtofl+3,___flmul@b+3
  1291  002806  EC6F  F00F         	call	___flmul	;wreg free
  1292  00280A  C02E  F015         	movff	?___flmul,___fldiv@b
  1293  00280E  C02F  F016         	movff	?___flmul+1,___fldiv@b+1
  1294  002812  C030  F017         	movff	?___flmul+2,___fldiv@b+2
  1295  002816  C031  F018         	movff	?___flmul+3,___fldiv@b+3
  1296  00281A  EC84  F011         	call	___fldiv	;wreg free
  1297  00281E  C015  F047         	movff	?___fldiv,___fladd@b
  1298  002822  C016  F048         	movff	?___fldiv+1,___fladd@b+1
  1299  002826  C017  F049         	movff	?___fldiv+2,___fladd@b+2
  1300  00282A  C018  F04A         	movff	?___fldiv+3,___fladd@b+3
  1301  00282E  0E00               	movlw	0
  1302  002830  6E4B               	movwf	___fladd@a^0,c
  1303  002832  0E00               	movlw	0
  1304  002834  6E4C               	movwf	(___fladd@a+1)^0,c
  1305  002836  0E00               	movlw	0
  1306  002838  6E4D               	movwf	(___fladd@a+2)^0,c
  1307  00283A  0E42               	movlw	66
  1308  00283C  6E4E               	movwf	(___fladd@a+3)^0,c
  1309  00283E  EC0F  F00D         	call	___fladd	;wreg free
  1310  002842  C047  F0E8         	movff	?___fladd,main@f
  1311  002846  C048  F0E9         	movff	?___fladd+1,main@f+1
  1312  00284A  C049  F0EA         	movff	?___fladd+2,main@f+2
  1313  00284E  C04A  F0EB         	movff	?___fladd+3,main@f+3
  1314  002852                     
  1315                           ;newmain.c: 67:         k = (c+0.0)+(273.15);
  1316  002852  C0F5  F007         	movff	main@c,___xxtofl@val
  1317  002856  C0F6  F008         	movff	main@c+1,___xxtofl@val+1
  1318  00285A  0E00               	movlw	0
  1319  00285C  BE08               	btfsc	(___xxtofl@val+1)^0,7,c
  1320  00285E  0EFF               	movlw	-1
  1321  002860  6E09               	movwf	(___xxtofl@val+2)^0,c
  1322  002862  6E0A               	movwf	(___xxtofl@val+3)^0,c
  1323  002864  0E01               	movlw	1
  1324  002866  EC71  F017         	call	___xxtofl
  1325  00286A  C007  F047         	movff	?___xxtofl,___fladd@b
  1326  00286E  C008  F048         	movff	?___xxtofl+1,___fladd@b+1
  1327  002872  C009  F049         	movff	?___xxtofl+2,___fladd@b+2
  1328  002876  C00A  F04A         	movff	?___xxtofl+3,___fladd@b+3
  1329  00287A  0E33               	movlw	51
  1330  00287C  6E4B               	movwf	___fladd@a^0,c
  1331  00287E  0E93               	movlw	147
  1332  002880  6E4C               	movwf	(___fladd@a+1)^0,c
  1333  002882  0E88               	movlw	136
  1334  002884  6E4D               	movwf	(___fladd@a+2)^0,c
  1335  002886  0E43               	movlw	67
  1336  002888  6E4E               	movwf	(___fladd@a+3)^0,c
  1337  00288A  EC0F  F00D         	call	___fladd	;wreg free
  1338  00288E  C047  F0EC         	movff	?___fladd,main@k
  1339  002892  C048  F0ED         	movff	?___fladd+1,main@k+1
  1340  002896  C049  F0EE         	movff	?___fladd+2,main@k+2
  1341  00289A  C04A  F0EF         	movff	?___fladd+3,main@k+3
  1342                           
  1343                           ;newmain.c: 68:         switch(flag){
  1344  00289E  EFDD  F014         	goto	l4575
  1345  0028A2                     l4555:
  1346                           
  1347                           ; BSR set to: 0
  1348                           ;newmain.c: 70:                sprintf(str,"%6.2f",k);
  1349  0028A2  0EF2               	movlw	low main@str
  1350  0028A4  6FCC               	movwf	sprintf@s& (0+255),b
  1351  0028A6  0E00               	movlw	high main@str
  1352  0028A8  6FCD               	movwf	(sprintf@s+1)& (0+255),b
  1353  0028AA  0E10               	movlw	low STR_3
  1354  0028AC  6FCE               	movwf	sprintf@fmt& (0+255),b
  1355  0028AE  0E08               	movlw	high STR_3
  1356  0028B0  6FCF               	movwf	(sprintf@fmt+1)& (0+255),b
  1357  0028B2  C0EC  F0D0         	movff	main@k,?_sprintf+4
  1358  0028B6  C0ED  F0D1         	movff	main@k+1,?_sprintf+5
  1359  0028BA  C0EE  F0D2         	movff	main@k+2,?_sprintf+6
  1360  0028BE  C0EF  F0D3         	movff	main@k+3,?_sprintf+7
  1361  0028C2  EC3D  F01F         	call	_sprintf	;wreg free
  1362  0028C6                     
  1363                           ;newmain.c: 71:                lcd_print_with_position(4,2,str);
  1364  0028C6  0E00               	movlw	0
  1365  0028C8  6E06               	movwf	(lcd_print_with_position@x+1)^0,c
  1366  0028CA  0E04               	movlw	4
  1367  0028CC  6E05               	movwf	lcd_print_with_position@x^0,c
  1368  0028CE  0E00               	movlw	0
  1369  0028D0  6E08               	movwf	(lcd_print_with_position@y+1)^0,c
  1370  0028D2  0E02               	movlw	2
  1371  0028D4  6E07               	movwf	lcd_print_with_position@y^0,c
  1372  0028D6  0EF2               	movlw	low main@str
  1373  0028D8  6E09               	movwf	lcd_print_with_position@dato^0,c
  1374  0028DA  0E00               	movlw	high main@str
  1375  0028DC  6E0A               	movwf	(lcd_print_with_position@dato+1)^0,c
  1376  0028DE  EC11  F01F         	call	_lcd_print_with_position	;wreg free
  1377  0028E2                     
  1378                           ;newmain.c: 72:                lcd_print_with_position(11,2,"K");
  1379  0028E2  0E00               	movlw	0
  1380  0028E4  6E06               	movwf	(lcd_print_with_position@x+1)^0,c
  1381  0028E6  0E0B               	movlw	11
  1382  0028E8  6E05               	movwf	lcd_print_with_position@x^0,c
  1383  0028EA  0E00               	movlw	0
  1384  0028EC  6E08               	movwf	(lcd_print_with_position@y+1)^0,c
  1385  0028EE  0E02               	movlw	2
  1386  0028F0  6E07               	movwf	lcd_print_with_position@y^0,c
  1387  0028F2  0E36               	movlw	low STR_4
  1388  0028F4  6E09               	movwf	lcd_print_with_position@dato^0,c
  1389  0028F6  0E08               	movlw	high STR_4
  1390  0028F8  6E0A               	movwf	(lcd_print_with_position@dato+1)^0,c
  1391  0028FA  EC11  F01F         	call	_lcd_print_with_position	;wreg free
  1392                           
  1393                           ;newmain.c: 73:                break;
  1394  0028FE  EF8C  F013         	goto	l4545
  1395  002902                     l4561:
  1396                           
  1397                           ; BSR set to: 0
  1398                           ;newmain.c: 75:                sprintf(str,"%6.2f",f);
  1399  002902  0EF2               	movlw	low main@str
  1400  002904  6FCC               	movwf	sprintf@s& (0+255),b
  1401  002906  0E00               	movlw	high main@str
  1402  002908  6FCD               	movwf	(sprintf@s+1)& (0+255),b
  1403  00290A  0E10               	movlw	low STR_3
  1404  00290C  6FCE               	movwf	sprintf@fmt& (0+255),b
  1405  00290E  0E08               	movlw	high STR_3
  1406  002910  6FCF               	movwf	(sprintf@fmt+1)& (0+255),b
  1407  002912  C0E8  F0D0         	movff	main@f,?_sprintf+4
  1408  002916  C0E9  F0D1         	movff	main@f+1,?_sprintf+5
  1409  00291A  C0EA  F0D2         	movff	main@f+2,?_sprintf+6
  1410  00291E  C0EB  F0D3         	movff	main@f+3,?_sprintf+7
  1411  002922  EC3D  F01F         	call	_sprintf	;wreg free
  1412  002926                     
  1413                           ;newmain.c: 76:                lcd_print_with_position(4,2,str);
  1414  002926  0E00               	movlw	0
  1415  002928  6E06               	movwf	(lcd_print_with_position@x+1)^0,c
  1416  00292A  0E04               	movlw	4
  1417  00292C  6E05               	movwf	lcd_print_with_position@x^0,c
  1418  00292E  0E00               	movlw	0
  1419  002930  6E08               	movwf	(lcd_print_with_position@y+1)^0,c
  1420  002932  0E02               	movlw	2
  1421  002934  6E07               	movwf	lcd_print_with_position@y^0,c
  1422  002936  0EF2               	movlw	low main@str
  1423  002938  6E09               	movwf	lcd_print_with_position@dato^0,c
  1424  00293A  0E00               	movlw	high main@str
  1425  00293C  6E0A               	movwf	(lcd_print_with_position@dato+1)^0,c
  1426  00293E  EC11  F01F         	call	_lcd_print_with_position	;wreg free
  1427  002942                     
  1428                           ;newmain.c: 77:                lcd_print_with_position(11,2,"F");
  1429  002942  0E00               	movlw	0
  1430  002944  6E06               	movwf	(lcd_print_with_position@x+1)^0,c
  1431  002946  0E0B               	movlw	11
  1432  002948  6E05               	movwf	lcd_print_with_position@x^0,c
  1433  00294A  0E00               	movlw	0
  1434  00294C  6E08               	movwf	(lcd_print_with_position@y+1)^0,c
  1435  00294E  0E02               	movlw	2
  1436  002950  6E07               	movwf	lcd_print_with_position@y^0,c
  1437  002952  0E23               	movlw	low (STR_9+2)
  1438  002954  6E09               	movwf	lcd_print_with_position@dato^0,c
  1439  002956  0E08               	movlw	high (STR_9+2)
  1440  002958  6E0A               	movwf	(lcd_print_with_position@dato+1)^0,c
  1441  00295A  EC11  F01F         	call	_lcd_print_with_position	;wreg free
  1442                           
  1443                           ;newmain.c: 78:                break;
  1444  00295E  EF8C  F013         	goto	l4545
  1445  002962                     l4567:
  1446                           
  1447                           ; BSR set to: 0
  1448                           ;newmain.c: 80:                sprintf(str,"%6.1i",c);
  1449  002962  0EF2               	movlw	low main@str
  1450  002964  6FCC               	movwf	sprintf@s& (0+255),b
  1451  002966  0E00               	movlw	high main@str
  1452  002968  6FCD               	movwf	(sprintf@s+1)& (0+255),b
  1453  00296A  0E16               	movlw	low STR_7
  1454  00296C  6FCE               	movwf	sprintf@fmt& (0+255),b
  1455  00296E  0E08               	movlw	high STR_7
  1456  002970  6FCF               	movwf	(sprintf@fmt+1)& (0+255),b
  1457  002972  C0F5  F0D0         	movff	main@c,?_sprintf+4
  1458  002976  C0F6  F0D1         	movff	main@c+1,?_sprintf+5
  1459  00297A  EC3D  F01F         	call	_sprintf	;wreg free
  1460  00297E                     
  1461                           ;newmain.c: 81:                lcd_print_with_position(4,2,str);
  1462  00297E  0E00               	movlw	0
  1463  002980  6E06               	movwf	(lcd_print_with_position@x+1)^0,c
  1464  002982  0E04               	movlw	4
  1465  002984  6E05               	movwf	lcd_print_with_position@x^0,c
  1466  002986  0E00               	movlw	0
  1467  002988  6E08               	movwf	(lcd_print_with_position@y+1)^0,c
  1468  00298A  0E02               	movlw	2
  1469  00298C  6E07               	movwf	lcd_print_with_position@y^0,c
  1470  00298E  0EF2               	movlw	low main@str
  1471  002990  6E09               	movwf	lcd_print_with_position@dato^0,c
  1472  002992  0E00               	movlw	high main@str
  1473  002994  6E0A               	movwf	(lcd_print_with_position@dato+1)^0,c
  1474  002996  EC11  F01F         	call	_lcd_print_with_position	;wreg free
  1475  00299A                     
  1476                           ;newmain.c: 82:                lcd_print_with_position(11,2,"C");
  1477  00299A  0E00               	movlw	0
  1478  00299C  6E06               	movwf	(lcd_print_with_position@x+1)^0,c
  1479  00299E  0E0B               	movlw	11
  1480  0029A0  6E05               	movwf	lcd_print_with_position@x^0,c
  1481  0029A2  0E00               	movlw	0
  1482  0029A4  6E08               	movwf	(lcd_print_with_position@y+1)^0,c
  1483  0029A6  0E02               	movlw	2
  1484  0029A8  6E07               	movwf	lcd_print_with_position@y^0,c
  1485  0029AA  0E34               	movlw	low STR_8
  1486  0029AC  6E09               	movwf	lcd_print_with_position@dato^0,c
  1487  0029AE  0E08               	movlw	high STR_8
  1488  0029B0  6E0A               	movwf	(lcd_print_with_position@dato+1)^0,c
  1489  0029B2  EC11  F01F         	call	_lcd_print_with_position	;wreg free
  1490                           
  1491                           ;newmain.c: 83:                break;
  1492  0029B6  EF8C  F013         	goto	l4545
  1493  0029BA                     l4575:
  1494  0029BA  C0FD  F0DE         	movff	_flag,??_main
  1495  0029BE  C0FE  F0DF         	movff	_flag+1,??_main+1
  1496                           
  1497                           ; Switch on 2 bytes has been partitioned into a top level switch of size 1, and 1 sub-sw
      +                          itches
  1498                           ; Switch size 1, requested type "simple"
  1499                           ; Number of cases is 1, Range of values is 0 to 0
  1500                           ; switch strategies available:
  1501                           ; Name         Instructions Cycles
  1502                           ; simple_byte            4     3 (average)
  1503                           ;	Chosen strategy is simple_byte
  1504  0029C2  0100               	movlb	0	; () banked
  1505  0029C4  51DF               	movf	(??_main+1)& (0+255),w,b
  1506  0029C6  0A00               	xorlw	0	; case 0
  1507  0029C8  B4D8               	btfsc	status,2,c
  1508  0029CA  EFE9  F014         	goto	l4671
  1509  0029CE  EFB1  F014         	goto	l4567
  1510  0029D2                     l4671:
  1511                           
  1512                           ; BSR set to: 0
  1513                           ; Switch size 1, requested type "simple"
  1514                           ; Number of cases is 2, Range of values is 1 to 2
  1515                           ; switch strategies available:
  1516                           ; Name         Instructions Cycles
  1517                           ; simple_byte            7     4 (average)
  1518                           ;	Chosen strategy is simple_byte
  1519  0029D2  51DE               	movf	??_main& (0+255),w,b
  1520  0029D4  0A01               	xorlw	1	; case 1
  1521  0029D6  B4D8               	btfsc	status,2,c
  1522  0029D8  EF51  F014         	goto	l4555
  1523  0029DC  0A03               	xorlw	3	; case 2
  1524  0029DE  B4D8               	btfsc	status,2,c
  1525  0029E0  EF81  F014         	goto	l4561
  1526  0029E4  EFB1  F014         	goto	l4567
  1527  0029E8  EF07  F000         	goto	start
  1528  0029EC                     __end_of_main:
  1529                           	callstack 0
  1530                           
  1531 ;; *************** function _sprintf *****************
  1532 ;; Defined at:
  1533 ;;		line 9 in file "C:\Program Files\Microchip\xc8\v2.20\pic\sources\c99\common\nf_sprintf.c"
  1534 ;; Parameters:    Size  Location     Type
  1535 ;;  s               2  108[BANK0 ] PTR unsigned char 
  1536 ;;		 -> main@str(3), 
  1537 ;;  fmt             2  110[BANK0 ] PTR const unsigned char 
  1538 ;;		 -> STR_7(6), STR_5(6), STR_3(6), 
  1539 ;; Auto vars:     Size  Location     Type
  1540 ;;  f               6  120[BANK0 ] struct _IO_FILE
  1541 ;;  ap              2  118[BANK0 ] PTR void [1]
  1542 ;;		 -> ?_sprintf(2), 
  1543 ;;  ret             2    0        int 
  1544 ;; Return value:  Size  Location     Type
  1545 ;;                  2  108[BANK0 ] int 
  1546 ;; Registers used:
  1547 ;;		wreg, fsr1l, fsr1h, fsr2l, fsr2h, status,2, status,0, tblptrl, tblptrh, tblptru, prodl, prodh, cstack
  1548 ;; Tracked objects:
  1549 ;;		On entry : 0/0
  1550 ;;		On exit  : 0/0
  1551 ;;		Unchanged: 0/0
  1552 ;; Data sizes:     COMRAM   BANK0   BANK1   BANK2   BANK3   BANK4   BANK5   BANK6   BANK7
  1553 ;;      Params:         0       8       0       0       0       0       0       0       0
  1554 ;;      Locals:         0      10       0       0       0       0       0       0       0
  1555 ;;      Temps:          0       0       0       0       0       0       0       0       0
  1556 ;;      Totals:         0      18       0       0       0       0       0       0       0
  1557 ;;Total ram usage:       18 bytes
  1558 ;; Hardware stack levels used:    1
  1559 ;; Hardware stack levels required when called:    8
  1560 ;; This function calls:
  1561 ;;		_vfprintf
  1562 ;; This function is called by:
  1563 ;;		_main
  1564 ;; This function uses a non-reentrant model
  1565 ;;
  1566                           
  1567                           	psect	text1
  1568  003E7A                     __ptext1:
  1569                           	callstack 0
  1570  003E7A                     _sprintf:
  1571                           	callstack 22
  1572  003E7A  0ED0               	movlw	low (?_sprintf+4)
  1573  003E7C  0100               	movlb	0	; () banked
  1574  003E7E  6FD6               	movwf	sprintf@ap& (0+255),b
  1575  003E80  0E00               	movlw	high (?_sprintf+4)
  1576  003E82  6FD7               	movwf	(sprintf@ap+1)& (0+255),b
  1577  003E84  C0CC  F0D8         	movff	sprintf@s,sprintf@f
  1578  003E88  C0CD  F0D9         	movff	sprintf@s+1,sprintf@f+1
  1579  003E8C                     
  1580                           ; BSR set to: 0
  1581  003E8C  0E00               	movlw	0
  1582  003E8E  6FDB               	movwf	(sprintf@f+3)& (0+255),b
  1583  003E90  0E00               	movlw	0
  1584  003E92  6FDA               	movwf	(sprintf@f+2)& (0+255),b
  1585  003E94                     
  1586                           ; BSR set to: 0
  1587  003E94  0E00               	movlw	0
  1588  003E96  6FDD               	movwf	(sprintf@f+5)& (0+255),b
  1589  003E98  0E00               	movlw	0
  1590  003E9A  6FDC               	movwf	(sprintf@f+4)& (0+255),b
  1591  003E9C                     
  1592                           ; BSR set to: 0
  1593  003E9C  0ED8               	movlw	low sprintf@f
  1594  003E9E  6FC4               	movwf	vfprintf@fp& (0+255),b
  1595  003EA0  0E00               	movlw	high sprintf@f
  1596  003EA2  6FC5               	movwf	(vfprintf@fp+1)& (0+255),b
  1597  003EA4  C0CE  F0C6         	movff	sprintf@fmt,vfprintf@fmt
  1598  003EA8  C0CF  F0C7         	movff	sprintf@fmt+1,vfprintf@fmt+1
  1599  003EAC  0ED6               	movlw	low sprintf@ap
  1600  003EAE  6FC8               	movwf	vfprintf@ap& (0+255),b
  1601  003EB0  0E00               	movlw	high sprintf@ap
  1602  003EB2  6FC9               	movwf	(vfprintf@ap+1)& (0+255),b
  1603  003EB4  EC4F  F01E         	call	_vfprintf	;wreg free
  1604  003EB8  0100               	movlb	0	; () banked
  1605  003EBA  51DA               	movf	(sprintf@f+2)& (0+255),w,b
  1606  003EBC  25CC               	addwf	sprintf@s& (0+255),w,b
  1607  003EBE  6ED9               	movwf	fsr2l,c
  1608  003EC0  51DB               	movf	(sprintf@f+3)& (0+255),w,b
  1609  003EC2  21CD               	addwfc	(sprintf@s+1)& (0+255),w,b
  1610  003EC4  6EDA               	movwf	fsr2h,c
  1611  003EC6  0E00               	movlw	0
  1612  003EC8  6EDF               	movwf	indf2,c
  1613  003ECA                     
  1614                           ; BSR set to: 0
  1615  003ECA  0012               	return		;funcret
  1616  003ECC                     __end_of_sprintf:
  1617                           	callstack 0
  1618                           
  1619 ;; *************** function _vfprintf *****************
  1620 ;; Defined at:
  1621 ;;		line 1368 in file "C:\Program Files\Microchip\xc8\v2.20\pic\sources\c99\common\doprnt.c"
  1622 ;; Parameters:    Size  Location     Type
  1623 ;;  fp              2  100[BANK0 ] PTR struct _IO_FILE
  1624 ;;		 -> sprintf@f(6), 
  1625 ;;  fmt             2  102[BANK0 ] PTR const unsigned char 
  1626 ;;		 -> STR_7(6), STR_5(6), STR_3(6), 
  1627 ;;  ap              2  104[BANK0 ] PTR PTR void 
  1628 ;;		 -> sprintf@ap(2), 
  1629 ;; Auto vars:     Size  Location     Type
  1630 ;;  cfmt            2  106[BANK0 ] PTR unsigned char 
  1631 ;;		 -> STR_7(6), STR_5(6), STR_3(6), 
  1632 ;; Return value:  Size  Location     Type
  1633 ;;                  2  100[BANK0 ] int 
  1634 ;; Registers used:
  1635 ;;		wreg, fsr1l, fsr1h, fsr2l, fsr2h, status,2, status,0, tblptrl, tblptrh, tblptru, prodl, prodh, cstack
  1636 ;; Tracked objects:
  1637 ;;		On entry : 0/0
  1638 ;;		On exit  : 0/0
  1639 ;;		Unchanged: 0/0
  1640 ;; Data sizes:     COMRAM   BANK0   BANK1   BANK2   BANK3   BANK4   BANK5   BANK6   BANK7
  1641 ;;      Params:         0       6       0       0       0       0       0       0       0
  1642 ;;      Locals:         0       2       0       0       0       0       0       0       0
  1643 ;;      Temps:          0       0       0       0       0       0       0       0       0
  1644 ;;      Totals:         0       8       0       0       0       0       0       0       0
  1645 ;;Total ram usage:        8 bytes
  1646 ;; Hardware stack levels used:    1
  1647 ;; Hardware stack levels required when called:    7
  1648 ;; This function calls:
  1649 ;;		_vfpfcnvrt
  1650 ;; This function is called by:
  1651 ;;		_sprintf
  1652 ;; This function uses a non-reentrant model
  1653 ;;
  1654                           
  1655                           	psect	text2
  1656  003C9E                     __ptext2:
  1657                           	callstack 0
  1658  003C9E                     _vfprintf:
  1659                           	callstack 22
  1660  003C9E                     
  1661                           ;C:\Program Files\Microchip\xc8\v2.20\pic\sources\c99\common\doprnt.c: 1368: int vfprint
      +                          f(FILE *fp, const char *fmt, va_list ap);C:\Program Files\Microchip\xc8\v2.20\pic\source
      +                          s\c99\common\doprnt.c: 1369: {;C:\Program Files\Microchip\xc8\v2.20\pic\sources\c99\comm
      +                          on\doprnt.c: 1371:     char *cfmt;;C:\Program Files\Microchip\xc8\v2.20\pic\sources\c99\
      +                          common\doprnt.c: 1373:     cfmt = (char *)fmt;
  1662  003C9E  C0C6  F0CA         	movff	vfprintf@fmt,vfprintf@cfmt
  1663  003CA2  C0C7  F0CB         	movff	vfprintf@fmt+1,vfprintf@cfmt+1
  1664  003CA6                     
  1665                           ;C:\Program Files\Microchip\xc8\v2.20\pic\sources\c99\common\doprnt.c: 1374:     nout = 
      +                          0;
  1666  003CA6  0E00               	movlw	0
  1667  003CA8  0101               	movlb	1	; () banked
  1668  003CAA  6F09               	movwf	(_nout+1)& (0+255),b
  1669  003CAC  0E00               	movlw	0
  1670  003CAE  6F08               	movwf	_nout& (0+255),b
  1671                           
  1672                           ;C:\Program Files\Microchip\xc8\v2.20\pic\sources\c99\common\doprnt.c: 1375:     while (
      +                          *cfmt) {
  1673  003CB0  EF71  F01E         	goto	l4369
  1674  003CB4                     l4367:
  1675                           
  1676                           ; BSR set to: 1
  1677                           ;C:\Program Files\Microchip\xc8\v2.20\pic\sources\c99\common\doprnt.c: 1376:         nou
      +                          t += vfpfcnvrt(fp, &cfmt, ap);
  1678  003CB4  C0C4  F0A4         	movff	vfprintf@fp,vfpfcnvrt@fp
  1679  003CB8  C0C5  F0A5         	movff	vfprintf@fp+1,vfpfcnvrt@fp+1
  1680  003CBC  0ECA               	movlw	low vfprintf@cfmt
  1681  003CBE  0100               	movlb	0	; () banked
  1682  003CC0  6FA6               	movwf	vfpfcnvrt@fmt& (0+255),b
  1683  003CC2  0E00               	movlw	high vfprintf@cfmt
  1684  003CC4  6FA7               	movwf	(vfpfcnvrt@fmt+1)& (0+255),b
  1685  003CC6  C0C8  F0A8         	movff	vfprintf@ap,vfpfcnvrt@ap
  1686  003CCA  C0C9  F0A9         	movff	vfprintf@ap+1,vfpfcnvrt@ap+1
  1687  003CCE  ECF5  F009         	call	_vfpfcnvrt	;wreg free
  1688  003CD2  0100               	movlb	0	; () banked
  1689  003CD4  51A4               	movf	?_vfpfcnvrt& (0+255),w,b
  1690  003CD6  0101               	movlb	1	; () banked
  1691  003CD8  2708               	addwf	_nout& (0+255),f,b
  1692  003CDA  0100               	movlb	0	; () banked
  1693  003CDC  51A5               	movf	(?_vfpfcnvrt+1)& (0+255),w,b
  1694  003CDE  0101               	movlb	1	; () banked
  1695  003CE0  2309               	addwfc	(_nout+1)& (0+255),f,b
  1696  003CE2                     l4369:
  1697                           
  1698                           ; BSR set to: 1
  1699                           ;C:\Program Files\Microchip\xc8\v2.20\pic\sources\c99\common\doprnt.c: 1375:     while (
      +                          *cfmt) {
  1700  003CE2  C0CA  FFF6         	movff	vfprintf@cfmt,tblptrl
  1701  003CE6  C0CB  FFF7         	movff	vfprintf@cfmt+1,tblptrh
  1702  003CEA                     	if	0	;tblptru may be non-zero
  1703  003CEA                     	endif
  1704  003CEA                     	if	0	;tblptru may be non-zero
  1705  003CEA                     	endif
  1706  003CEA  0008               	tblrd		*
  1707  003CEC  50F5               	movf	tablat,w,c
  1708  003CEE  0900               	iorlw	0
  1709  003CF0  A4D8               	btfss	status,2,c
  1710  003CF2  EF7D  F01E         	goto	u5451
  1711  003CF6  EF7F  F01E         	goto	u5450
  1712  003CFA                     u5451:
  1713  003CFA  EF5A  F01E         	goto	l4367
  1714  003CFE                     u5450:
  1715  003CFE                     
  1716                           ; BSR set to: 1
  1717                           ;C:\Program Files\Microchip\xc8\v2.20\pic\sources\c99\common\doprnt.c: 1378:     return 
      +                          nout;
  1718  003CFE  C108  F0C4         	movff	_nout,?_vfprintf
  1719  003D02  C109  F0C5         	movff	_nout+1,?_vfprintf+1
  1720  003D06                     
  1721                           ; BSR set to: 1
  1722  003D06  0012               	return		;funcret
  1723  003D08                     __end_of_vfprintf:
  1724                           	callstack 0
  1725                           
  1726 ;; *************** function _vfpfcnvrt *****************
  1727 ;; Defined at:
  1728 ;;		line 670 in file "C:\Program Files\Microchip\xc8\v2.20\pic\sources\c99\common\doprnt.c"
  1729 ;; Parameters:    Size  Location     Type
  1730 ;;  fp              2   68[BANK0 ] PTR struct _IO_FILE
  1731 ;;		 -> sprintf@f(6), 
  1732 ;;  fmt             2   70[BANK0 ] PTR PTR unsigned char 
  1733 ;;		 -> vfprintf@cfmt(2), 
  1734 ;;  ap              2   72[BANK0 ] PTR PTR void 
  1735 ;;		 -> sprintf@ap(2), 
  1736 ;; Auto vars:     Size  Location     Type
  1737 ;;  ll              8   78[BANK0 ] long long 
  1738 ;;  llu             8    0        unsigned long long 
  1739 ;;  f               4   92[BANK0 ] unsigned long long 
  1740 ;;  ct              3   96[BANK0 ] unsigned char [3]
  1741 ;;  vp              3    0        PTR void 
  1742 ;;  cp              3    0        PTR unsigned char 
  1743 ;;  i               2    0        int 
  1744 ;;  done            2    0        int 
  1745 ;;  c               1   99[BANK0 ] unsigned char 
  1746 ;; Return value:  Size  Location     Type
  1747 ;;                  2   68[BANK0 ] int 
  1748 ;; Registers used:
  1749 ;;		wreg, fsr1l, fsr1h, fsr2l, fsr2h, status,2, status,0, tblptrl, tblptrh, tblptru, prodl, prodh, cstack
  1750 ;; Tracked objects:
  1751 ;;		On entry : 0/0
  1752 ;;		On exit  : 0/0
  1753 ;;		Unchanged: 0/0
  1754 ;; Data sizes:     COMRAM   BANK0   BANK1   BANK2   BANK3   BANK4   BANK5   BANK6   BANK7
  1755 ;;      Params:         0       6       0       0       0       0       0       0       0
  1756 ;;      Locals:         0      22       0       0       0       0       0       0       0
  1757 ;;      Temps:          0       4       0       0       0       0       0       0       0
  1758 ;;      Totals:         0      32       0       0       0       0       0       0       0
  1759 ;;Total ram usage:       32 bytes
  1760 ;; Hardware stack levels used:    1
  1761 ;; Hardware stack levels required when called:    6
  1762 ;; This function calls:
  1763 ;;		_atoi
  1764 ;;		_dtoa
  1765 ;;		_efgtoa
  1766 ;;		_fputc
  1767 ;;		_isdigit
  1768 ;;		_isupper
  1769 ;;		_strncmp
  1770 ;;		_tolower
  1771 ;; This function is called by:
  1772 ;;		_vfprintf
  1773 ;; This function uses a non-reentrant model
  1774 ;;
  1775                           
  1776                           	psect	text3
  1777  0013EA                     __ptext3:
  1778                           	callstack 0
  1779  0013EA                     _vfpfcnvrt:
  1780                           	callstack 22
  1781  0013EA                     
  1782                           ;C:\Program Files\Microchip\xc8\v2.20\pic\sources\c99\common\doprnt.c: 670: static int v
      +                          fpfcnvrt(FILE *fp, char *fmt[], va_list ap);C:\Program Files\Microchip\xc8\v2.20\pic\sou
      +                          rces\c99\common\doprnt.c: 671: {;C:\Program Files\Microchip\xc8\v2.20\pic\sources\c99\co
      +                          mmon\doprnt.c: 672:     char c, *cp, ct[3];;C:\Program Files\Microchip\xc8\v2.20\pic\sou
      +                          rces\c99\common\doprnt.c: 673:     int done, i;;C:\Program Files\Microchip\xc8\v2.20\pic
      +                          \sources\c99\common\doprnt.c: 674:     long long ll;;C:\Program Files\Microchip\xc8\v2.2
      +                          0\pic\sources\c99\common\doprnt.c: 675:     unsigned long long llu;
  1783  0013EA  C0A6  FFD9         	movff	vfpfcnvrt@fmt,fsr2l
  1784  0013EE  C0A7  FFDA         	movff	vfpfcnvrt@fmt+1,fsr2h
  1785  0013F2  CFDE FFF6          	movff	postinc2,tblptrl
  1786  0013F6  CFDD FFF7          	movff	postdec2,tblptrh
  1787  0013FA                     	if	0	;tblptru may be non-zero
  1788  0013FA                     	endif
  1789  0013FA                     	if	0	;tblptru may be non-zero
  1790  0013FA                     	endif
  1791  0013FA  0008               	tblrd		*
  1792  0013FC  50F5               	movf	tablat,w,c
  1793  0013FE  0A25               	xorlw	37
  1794  001400  A4D8               	btfss	status,2,c
  1795  001402  EF05  F00A         	goto	u5211
  1796  001406  EF07  F00A         	goto	u5210
  1797  00140A                     u5211:
  1798  00140A  EFF3  F00C         	goto	l4337
  1799  00140E                     u5210:
  1800  00140E                     
  1801                           ;C:\Program Files\Microchip\xc8\v2.20\pic\sources\c99\common\doprnt.c: 681:         ++*f
      +                          mt;
  1802  00140E  C0A6  FFD9         	movff	vfpfcnvrt@fmt,fsr2l
  1803  001412  C0A7  FFDA         	movff	vfpfcnvrt@fmt+1,fsr2h
  1804  001416  2ADE               	incf	postinc2,f,c
  1805  001418  0E00               	movlw	0
  1806  00141A  22DD               	addwfc	postdec2,f,c
  1807  00141C                     
  1808                           ;C:\Program Files\Microchip\xc8\v2.20\pic\sources\c99\common\doprnt.c: 683:         flag
      +                          s = width = 0;
  1809  00141C  0E00               	movlw	0
  1810  00141E  0100               	movlb	0	; () banked
  1811  001420  6FF8               	movwf	(_width+1)& (0+255),b
  1812  001422  0E00               	movlw	0
  1813  001424  6FF7               	movwf	_width& (0+255),b
  1814  001426  C0F7  F0FB         	movff	_width,_flags
  1815  00142A  C0F8  F0FC         	movff	_width+1,_flags+1
  1816  00142E                     
  1817                           ; BSR set to: 0
  1818                           ;C:\Program Files\Microchip\xc8\v2.20\pic\sources\c99\common\doprnt.c: 684:         prec
      +                           = -1;
  1819  00142E  69F9               	setf	_prec& (0+255),b
  1820  001430  69FA               	setf	(_prec+1)& (0+255),b
  1821  001432                     
  1822                           ; BSR set to: 0
  1823                           ;C:\Program Files\Microchip\xc8\v2.20\pic\sources\c99\common\doprnt.c: 723:         if (
      +                          (*fmt)[0] == '*') {
  1824  001432  C0A6  FFD9         	movff	vfpfcnvrt@fmt,fsr2l
  1825  001436  C0A7  FFDA         	movff	vfpfcnvrt@fmt+1,fsr2h
  1826  00143A  CFDE FFF6          	movff	postinc2,tblptrl
  1827  00143E  CFDD FFF7          	movff	postdec2,tblptrh
  1828  001442                     	if	0	;tblptru may be non-zero
  1829  001442                     	endif
  1830  001442                     	if	0	;tblptru may be non-zero
  1831  001442                     	endif
  1832  001442  0008               	tblrd		*
  1833  001444  50F5               	movf	tablat,w,c
  1834  001446  0A2A               	xorlw	42
  1835  001448  A4D8               	btfss	status,2,c
  1836  00144A  EF29  F00A         	goto	u5221
  1837  00144E  EF2B  F00A         	goto	u5220
  1838  001452                     u5221:
  1839  001452  EF54  F00A         	goto	l4243
  1840  001456                     u5220:
  1841  001456                     
  1842                           ; BSR set to: 0
  1843                           ;C:\Program Files\Microchip\xc8\v2.20\pic\sources\c99\common\doprnt.c: 724:             
      +                          ++*fmt;
  1844  001456  C0A6  FFD9         	movff	vfpfcnvrt@fmt,fsr2l
  1845  00145A  C0A7  FFDA         	movff	vfpfcnvrt@fmt+1,fsr2h
  1846  00145E  2ADE               	incf	postinc2,f,c
  1847  001460  0E00               	movlw	0
  1848  001462  22DD               	addwfc	postdec2,f,c
  1849                           
  1850                           ;C:\Program Files\Microchip\xc8\v2.20\pic\sources\c99\common\doprnt.c: 725:             
      +                          width = (*(int *)__va_arg(*(int **)ap, (int)0));
  1851  001464  C0A8  FFD9         	movff	vfpfcnvrt@ap,fsr2l
  1852  001468  C0A9  FFDA         	movff	vfpfcnvrt@ap+1,fsr2h
  1853  00146C  CFDF F0AA          	movff	indf2,??_vfpfcnvrt
  1854  001470  0E02               	movlw	2
  1855  001472  26DE               	addwf	postinc2,f,c
  1856  001474  CFDF F0AB          	movff	indf2,??_vfpfcnvrt+1
  1857  001478  0E00               	movlw	0
  1858  00147A  22DD               	addwfc	postdec2,f,c
  1859  00147C  C0AA  FFD9         	movff	??_vfpfcnvrt,fsr2l
  1860  001480  C0AB  FFDA         	movff	??_vfpfcnvrt+1,fsr2h
  1861  001484  CFDE F0F7          	movff	postinc2,_width
  1862  001488  CFDD F0F8          	movff	postdec2,_width+1
  1863  00148C                     
  1864                           ; BSR set to: 0
  1865                           ;C:\Program Files\Microchip\xc8\v2.20\pic\sources\c99\common\doprnt.c: 726:             
      +                          if (width < 0) {
  1866  00148C  BFF8               	btfsc	(_width+1)& (0+255),7,b
  1867  00148E  EF4D  F00A         	goto	u5230
  1868  001492  EF4B  F00A         	goto	u5231
  1869  001496                     u5231:
  1870  001496  EF98  F00A         	goto	l4253
  1871  00149A                     u5230:
  1872  00149A                     
  1873                           ; BSR set to: 0
  1874                           ;C:\Program Files\Microchip\xc8\v2.20\pic\sources\c99\common\doprnt.c: 727:             
      +                              flags |= (1 << 0);
  1875  00149A  81FB               	bsf	_flags& (0+255),0,b
  1876                           
  1877                           ;C:\Program Files\Microchip\xc8\v2.20\pic\sources\c99\common\doprnt.c: 728:             
      +                              width = -width;
  1878  00149C  6DF7               	negf	_width& (0+255),b
  1879  00149E  1FF8               	comf	(_width+1)& (0+255),f,b
  1880  0014A0  B0D8               	btfsc	status,0,c
  1881  0014A2  2BF8               	incf	(_width+1)& (0+255),f,b
  1882  0014A4  EF98  F00A         	goto	l4253
  1883  0014A8                     l4243:
  1884                           
  1885                           ; BSR set to: 0
  1886                           ;C:\Program Files\Microchip\xc8\v2.20\pic\sources\c99\common\doprnt.c: 731:             
      +                          width = atoi(*fmt);
  1887  0014A8  C0A6  FFD9         	movff	vfpfcnvrt@fmt,fsr2l
  1888  0014AC  C0A7  FFDA         	movff	vfpfcnvrt@fmt+1,fsr2h
  1889  0014B0  CFDE F008          	movff	postinc2,atoi@s
  1890  0014B4  CFDD F009          	movff	postdec2,atoi@s+1
  1891  0014B8  EC4B  F018         	call	_atoi	;wreg free
  1892  0014BC  C008  F0F7         	movff	?_atoi,_width
  1893  0014C0  C009  F0F8         	movff	?_atoi+1,_width+1
  1894                           
  1895                           ;C:\Program Files\Microchip\xc8\v2.20\pic\sources\c99\common\doprnt.c: 732:             
      +                          while ((0 ? isdigit((*fmt)[0]) : ((unsigned)((*fmt)[0])-'0') < 10)) {
  1896  0014C4  EF6B  F00A         	goto	l4247
  1897  0014C8                     l4245:
  1898                           
  1899                           ; BSR set to: 0
  1900                           ;C:\Program Files\Microchip\xc8\v2.20\pic\sources\c99\common\doprnt.c: 733:             
      +                              ++*fmt;
  1901  0014C8  C0A6  FFD9         	movff	vfpfcnvrt@fmt,fsr2l
  1902  0014CC  C0A7  FFDA         	movff	vfpfcnvrt@fmt+1,fsr2h
  1903  0014D0  2ADE               	incf	postinc2,f,c
  1904  0014D2  0E00               	movlw	0
  1905  0014D4  22DD               	addwfc	postdec2,f,c
  1906  0014D6                     l4247:
  1907  0014D6  0ED0               	movlw	208
  1908  0014D8  0100               	movlb	0	; () banked
  1909  0014DA  6FAA               	movwf	??_vfpfcnvrt& (0+255),b
  1910  0014DC  0EFF               	movlw	255
  1911  0014DE  6FAB               	movwf	(??_vfpfcnvrt+1)& (0+255),b
  1912  0014E0  C0A6  FFD9         	movff	vfpfcnvrt@fmt,fsr2l
  1913  0014E4  C0A7  FFDA         	movff	vfpfcnvrt@fmt+1,fsr2h
  1914  0014E8  CFDE FFF6          	movff	postinc2,tblptrl
  1915  0014EC  CFDD FFF7          	movff	postdec2,tblptrh
  1916  0014F0                     	if	0	;tblptru may be non-zero
  1917  0014F0                     	endif
  1918  0014F0                     	if	0	;tblptru may be non-zero
  1919  0014F0                     	endif
  1920  0014F0  0008               	tblrd		*
  1921  0014F2  50F5               	movf	tablat,w,c
  1922  0014F4  6FAC               	movwf	(??_vfpfcnvrt+2)& (0+255),b
  1923  0014F6  6BAD               	clrf	(??_vfpfcnvrt+3)& (0+255),b
  1924  0014F8  51AA               	movf	??_vfpfcnvrt& (0+255),w,b
  1925  0014FA  27AC               	addwf	(??_vfpfcnvrt+2)& (0+255),f,b
  1926  0014FC  51AB               	movf	(??_vfpfcnvrt+1)& (0+255),w,b
  1927  0014FE  23AD               	addwfc	(??_vfpfcnvrt+3)& (0+255),f,b
  1928  001500  51AD               	movf	(??_vfpfcnvrt+3)& (0+255),w,b
  1929  001502  E10A               	bnz	u5240
  1930  001504  0E0A               	movlw	10
  1931  001506  5DAC               	subwf	(??_vfpfcnvrt+2)& (0+255),w,b
  1932  001508  A0D8               	btfss	status,0,c
  1933  00150A  EF89  F00A         	goto	u5241
  1934  00150E  EF8C  F00A         	goto	u5240
  1935  001512                     u5241:
  1936  001512  0E01               	movlw	1
  1937  001514  EF8D  F00A         	goto	u5250
  1938  001518                     u5240:
  1939  001518  0E00               	movlw	0
  1940  00151A                     u5250:
  1941  00151A  6FB6               	movwf	_vfpfcnvrt$1026& (0+255),b
  1942  00151C  6BB7               	clrf	(_vfpfcnvrt$1026+1)& (0+255),b
  1943  00151E                     
  1944                           ; BSR set to: 0
  1945  00151E  51B6               	movf	_vfpfcnvrt$1026& (0+255),w,b
  1946  001520  11B7               	iorwf	(_vfpfcnvrt$1026+1)& (0+255),w,b
  1947  001522  A4D8               	btfss	status,2,c
  1948  001524  EF96  F00A         	goto	u5261
  1949  001528  EF98  F00A         	goto	u5260
  1950  00152C                     u5261:
  1951  00152C  EF64  F00A         	goto	l4245
  1952  001530                     u5260:
  1953  001530                     l4253:
  1954                           
  1955                           ; BSR set to: 0
  1956                           ;C:\Program Files\Microchip\xc8\v2.20\pic\sources\c99\common\doprnt.c: 740:         if (
      +                          (*fmt)[0] == '.') {
  1957  001530  C0A6  FFD9         	movff	vfpfcnvrt@fmt,fsr2l
  1958  001534  C0A7  FFDA         	movff	vfpfcnvrt@fmt+1,fsr2h
  1959  001538  CFDE FFF6          	movff	postinc2,tblptrl
  1960  00153C  CFDD FFF7          	movff	postdec2,tblptrh
  1961  001540                     	if	0	;tblptru may be non-zero
  1962  001540                     	endif
  1963  001540                     	if	0	;tblptru may be non-zero
  1964  001540                     	endif
  1965  001540  0008               	tblrd		*
  1966  001542  50F5               	movf	tablat,w,c
  1967  001544  0A2E               	xorlw	46
  1968  001546  A4D8               	btfss	status,2,c
  1969  001548  EFA8  F00A         	goto	u5271
  1970  00154C  EFAA  F00A         	goto	u5270
  1971  001550                     u5271:
  1972  001550  EF28  F00B         	goto	l4273
  1973  001554                     u5270:
  1974  001554                     
  1975                           ; BSR set to: 0
  1976                           ;C:\Program Files\Microchip\xc8\v2.20\pic\sources\c99\common\doprnt.c: 741:             
      +                          prec = 0;
  1977  001554  0E00               	movlw	0
  1978  001556  6FFA               	movwf	(_prec+1)& (0+255),b
  1979  001558  0E00               	movlw	0
  1980  00155A  6FF9               	movwf	_prec& (0+255),b
  1981  00155C                     
  1982                           ; BSR set to: 0
  1983                           ;C:\Program Files\Microchip\xc8\v2.20\pic\sources\c99\common\doprnt.c: 742:             
      +                          ++*fmt;
  1984  00155C  C0A6  FFD9         	movff	vfpfcnvrt@fmt,fsr2l
  1985  001560  C0A7  FFDA         	movff	vfpfcnvrt@fmt+1,fsr2h
  1986  001564  2ADE               	incf	postinc2,f,c
  1987  001566  0E00               	movlw	0
  1988  001568  22DD               	addwfc	postdec2,f,c
  1989  00156A                     
  1990                           ; BSR set to: 0
  1991                           ;C:\Program Files\Microchip\xc8\v2.20\pic\sources\c99\common\doprnt.c: 743:             
      +                          if ((*fmt)[0] == '*') {
  1992  00156A  C0A6  FFD9         	movff	vfpfcnvrt@fmt,fsr2l
  1993  00156E  C0A7  FFDA         	movff	vfpfcnvrt@fmt+1,fsr2h
  1994  001572  CFDE FFF6          	movff	postinc2,tblptrl
  1995  001576  CFDD FFF7          	movff	postdec2,tblptrh
  1996  00157A                     	if	0	;tblptru may be non-zero
  1997  00157A                     	endif
  1998  00157A                     	if	0	;tblptru may be non-zero
  1999  00157A                     	endif
  2000  00157A  0008               	tblrd		*
  2001  00157C  50F5               	movf	tablat,w,c
  2002  00157E  0A2A               	xorlw	42
  2003  001580  A4D8               	btfss	status,2,c
  2004  001582  EFC5  F00A         	goto	u5281
  2005  001586  EFC7  F00A         	goto	u5280
  2006  00158A                     u5281:
  2007  00158A  EFE4  F00A         	goto	l4263
  2008  00158E                     u5280:
  2009  00158E                     
  2010                           ; BSR set to: 0
  2011                           ;C:\Program Files\Microchip\xc8\v2.20\pic\sources\c99\common\doprnt.c: 744:             
      +                              ++*fmt;
  2012  00158E  C0A6  FFD9         	movff	vfpfcnvrt@fmt,fsr2l
  2013  001592  C0A7  FFDA         	movff	vfpfcnvrt@fmt+1,fsr2h
  2014  001596  2ADE               	incf	postinc2,f,c
  2015  001598  0E00               	movlw	0
  2016  00159A  22DD               	addwfc	postdec2,f,c
  2017                           
  2018                           ;C:\Program Files\Microchip\xc8\v2.20\pic\sources\c99\common\doprnt.c: 745:             
      +                              prec = (*(int *)__va_arg(*(int **)ap, (int)0));
  2019  00159C  C0A8  FFD9         	movff	vfpfcnvrt@ap,fsr2l
  2020  0015A0  C0A9  FFDA         	movff	vfpfcnvrt@ap+1,fsr2h
  2021  0015A4  CFDF F0AA          	movff	indf2,??_vfpfcnvrt
  2022  0015A8  0E02               	movlw	2
  2023  0015AA  26DE               	addwf	postinc2,f,c
  2024  0015AC  CFDF F0AB          	movff	indf2,??_vfpfcnvrt+1
  2025  0015B0  0E00               	movlw	0
  2026  0015B2  22DD               	addwfc	postdec2,f,c
  2027  0015B4  C0AA  FFD9         	movff	??_vfpfcnvrt,fsr2l
  2028  0015B8  C0AB  FFDA         	movff	??_vfpfcnvrt+1,fsr2h
  2029  0015BC  CFDE F0F9          	movff	postinc2,_prec
  2030  0015C0  CFDD F0FA          	movff	postdec2,_prec+1
  2031                           
  2032                           ;C:\Program Files\Microchip\xc8\v2.20\pic\sources\c99\common\doprnt.c: 746:             
      +                          } else {
  2033  0015C4  EF28  F00B         	goto	l4273
  2034  0015C8                     l4263:
  2035                           
  2036                           ; BSR set to: 0
  2037                           ;C:\Program Files\Microchip\xc8\v2.20\pic\sources\c99\common\doprnt.c: 747:             
      +                              prec = atoi(*fmt);
  2038  0015C8  C0A6  FFD9         	movff	vfpfcnvrt@fmt,fsr2l
  2039  0015CC  C0A7  FFDA         	movff	vfpfcnvrt@fmt+1,fsr2h
  2040  0015D0  CFDE F008          	movff	postinc2,atoi@s
  2041  0015D4  CFDD F009          	movff	postdec2,atoi@s+1
  2042  0015D8  EC4B  F018         	call	_atoi	;wreg free
  2043  0015DC  C008  F0F9         	movff	?_atoi,_prec
  2044  0015E0  C009  F0FA         	movff	?_atoi+1,_prec+1
  2045                           
  2046                           ;C:\Program Files\Microchip\xc8\v2.20\pic\sources\c99\common\doprnt.c: 748:             
      +                              while ((0 ? isdigit((*fmt)[0]) : ((unsigned)((*fmt)[0])-'0') < 10)) {
  2047  0015E4  EFFB  F00A         	goto	l4267
  2048  0015E8                     l4265:
  2049                           
  2050                           ; BSR set to: 0
  2051                           ;C:\Program Files\Microchip\xc8\v2.20\pic\sources\c99\common\doprnt.c: 749:             
      +                                  ++*fmt;
  2052  0015E8  C0A6  FFD9         	movff	vfpfcnvrt@fmt,fsr2l
  2053  0015EC  C0A7  FFDA         	movff	vfpfcnvrt@fmt+1,fsr2h
  2054  0015F0  2ADE               	incf	postinc2,f,c
  2055  0015F2  0E00               	movlw	0
  2056  0015F4  22DD               	addwfc	postdec2,f,c
  2057  0015F6                     l4267:
  2058  0015F6  0ED0               	movlw	208
  2059  0015F8  0100               	movlb	0	; () banked
  2060  0015FA  6FAA               	movwf	??_vfpfcnvrt& (0+255),b
  2061  0015FC  0EFF               	movlw	255
  2062  0015FE  6FAB               	movwf	(??_vfpfcnvrt+1)& (0+255),b
  2063  001600  C0A6  FFD9         	movff	vfpfcnvrt@fmt,fsr2l
  2064  001604  C0A7  FFDA         	movff	vfpfcnvrt@fmt+1,fsr2h
  2065  001608  CFDE FFF6          	movff	postinc2,tblptrl
  2066  00160C  CFDD FFF7          	movff	postdec2,tblptrh
  2067  001610                     	if	0	;tblptru may be non-zero
  2068  001610                     	endif
  2069  001610                     	if	0	;tblptru may be non-zero
  2070  001610                     	endif
  2071  001610  0008               	tblrd		*
  2072  001612  50F5               	movf	tablat,w,c
  2073  001614  6FAC               	movwf	(??_vfpfcnvrt+2)& (0+255),b
  2074  001616  6BAD               	clrf	(??_vfpfcnvrt+3)& (0+255),b
  2075  001618  51AA               	movf	??_vfpfcnvrt& (0+255),w,b
  2076  00161A  27AC               	addwf	(??_vfpfcnvrt+2)& (0+255),f,b
  2077  00161C  51AB               	movf	(??_vfpfcnvrt+1)& (0+255),w,b
  2078  00161E  23AD               	addwfc	(??_vfpfcnvrt+3)& (0+255),f,b
  2079  001620  51AD               	movf	(??_vfpfcnvrt+3)& (0+255),w,b
  2080  001622  E10A               	bnz	u5290
  2081  001624  0E0A               	movlw	10
  2082  001626  5DAC               	subwf	(??_vfpfcnvrt+2)& (0+255),w,b
  2083  001628  A0D8               	btfss	status,0,c
  2084  00162A  EF19  F00B         	goto	u5291
  2085  00162E  EF1C  F00B         	goto	u5290
  2086  001632                     u5291:
  2087  001632  0E01               	movlw	1
  2088  001634  EF1D  F00B         	goto	u5300
  2089  001638                     u5290:
  2090  001638  0E00               	movlw	0
  2091  00163A                     u5300:
  2092  00163A  6FB8               	movwf	_vfpfcnvrt$1027& (0+255),b
  2093  00163C  6BB9               	clrf	(_vfpfcnvrt$1027+1)& (0+255),b
  2094  00163E                     
  2095                           ; BSR set to: 0
  2096  00163E  51B8               	movf	_vfpfcnvrt$1027& (0+255),w,b
  2097  001640  11B9               	iorwf	(_vfpfcnvrt$1027+1)& (0+255),w,b
  2098  001642  A4D8               	btfss	status,2,c
  2099  001644  EF26  F00B         	goto	u5311
  2100  001648  EF28  F00B         	goto	u5310
  2101  00164C                     u5311:
  2102  00164C  EFF4  F00A         	goto	l4265
  2103  001650                     u5310:
  2104  001650                     l4273:
  2105                           
  2106                           ; BSR set to: 0
  2107                           ;C:\Program Files\Microchip\xc8\v2.20\pic\sources\c99\common\doprnt.c: 757:         ct[0
      +                          ] = tolower((int)(*fmt)[0]);
  2108  001650  C0A6  FFD9         	movff	vfpfcnvrt@fmt,fsr2l
  2109  001654  C0A7  FFDA         	movff	vfpfcnvrt@fmt+1,fsr2h
  2110  001658  CFDE FFF6          	movff	postinc2,tblptrl
  2111  00165C  CFDD FFF7          	movff	postdec2,tblptrh
  2112  001660                     	if	0	;tblptru may be non-zero
  2113  001660                     	endif
  2114  001660                     	if	0	;tblptru may be non-zero
  2115  001660                     	endif
  2116  001660  0008               	tblrd		*
  2117  001662  50F5               	movf	tablat,w,c
  2118  001664  6E07               	movwf	tolower@c^0,c
  2119  001666  6A08               	clrf	(tolower@c+1)^0,c
  2120  001668  EC84  F01E         	call	_tolower	;wreg free
  2121  00166C  5007               	movf	?_tolower^0,w,c
  2122  00166E  0100               	movlb	0	; () banked
  2123  001670  6FC0               	movwf	vfpfcnvrt@ct& (0+255),b
  2124  001672                     
  2125                           ; BSR set to: 0
  2126                           ;C:\Program Files\Microchip\xc8\v2.20\pic\sources\c99\common\doprnt.c: 758:         if (
      +                          ct[0]) {
  2127  001672  51C0               	movf	vfpfcnvrt@ct& (0+255),w,b
  2128  001674  B4D8               	btfsc	status,2,c
  2129  001676  EF3F  F00B         	goto	u5321
  2130  00167A  EF41  F00B         	goto	u5320
  2131  00167E                     u5321:
  2132  00167E  EF7B  F00B         	goto	l4283
  2133  001682                     u5320:
  2134  001682                     
  2135                           ; BSR set to: 0
  2136                           ;C:\Program Files\Microchip\xc8\v2.20\pic\sources\c99\common\doprnt.c: 759:             
      +                          ct[1] = tolower((int)(*fmt)[1]);
  2137  001682  C0A6  FFD9         	movff	vfpfcnvrt@fmt,fsr2l
  2138  001686  C0A7  FFDA         	movff	vfpfcnvrt@fmt+1,fsr2h
  2139  00168A  CFDE F0AA          	movff	postinc2,??_vfpfcnvrt
  2140  00168E  CFDD F0AB          	movff	postdec2,??_vfpfcnvrt+1
  2141  001692  0E01               	movlw	1
  2142  001694  27AA               	addwf	??_vfpfcnvrt& (0+255),f,b
  2143  001696  0E00               	movlw	0
  2144  001698  23AB               	addwfc	(??_vfpfcnvrt+1)& (0+255),f,b
  2145  00169A  C0AA  FFF6         	movff	??_vfpfcnvrt,tblptrl
  2146  00169E  C0AB  FFF7         	movff	??_vfpfcnvrt+1,tblptrh
  2147  0016A2                     	if	0	;tblptru may be non-zero
  2148  0016A2                     	endif
  2149  0016A2                     	if	0	;tblptru may be non-zero
  2150  0016A2                     	endif
  2151  0016A2  0008               	tblrd		*
  2152  0016A4  50F5               	movf	tablat,w,c
  2153  0016A6  6E07               	movwf	tolower@c^0,c
  2154  0016A8  6A08               	clrf	(tolower@c+1)^0,c
  2155  0016AA  EC84  F01E         	call	_tolower	;wreg free
  2156  0016AE  5007               	movf	?_tolower^0,w,c
  2157  0016B0  0100               	movlb	0	; () banked
  2158  0016B2  6FC1               	movwf	(vfpfcnvrt@ct+1)& (0+255),b
  2159  0016B4                     
  2160                           ; BSR set to: 0
  2161                           ;C:\Program Files\Microchip\xc8\v2.20\pic\sources\c99\common\doprnt.c: 760:             
      +                          if (ct[1]) {
  2162  0016B4  51C1               	movf	(vfpfcnvrt@ct+1)& (0+255),w,b
  2163  0016B6  B4D8               	btfsc	status,2,c
  2164  0016B8  EF60  F00B         	goto	u5331
  2165  0016BC  EF62  F00B         	goto	u5330
  2166  0016C0                     u5331:
  2167  0016C0  EF7B  F00B         	goto	l4283
  2168  0016C4                     u5330:
  2169  0016C4                     
  2170                           ; BSR set to: 0
  2171                           ;C:\Program Files\Microchip\xc8\v2.20\pic\sources\c99\common\doprnt.c: 761:             
      +                              ct[2] = tolower((int)(*fmt)[2]);
  2172  0016C4  C0A6  FFD9         	movff	vfpfcnvrt@fmt,fsr2l
  2173  0016C8  C0A7  FFDA         	movff	vfpfcnvrt@fmt+1,fsr2h
  2174  0016CC  CFDE F0AA          	movff	postinc2,??_vfpfcnvrt
  2175  0016D0  CFDD F0AB          	movff	postdec2,??_vfpfcnvrt+1
  2176  0016D4  0E02               	movlw	2
  2177  0016D6  27AA               	addwf	??_vfpfcnvrt& (0+255),f,b
  2178  0016D8  0E00               	movlw	0
  2179  0016DA  23AB               	addwfc	(??_vfpfcnvrt+1)& (0+255),f,b
  2180  0016DC  C0AA  FFF6         	movff	??_vfpfcnvrt,tblptrl
  2181  0016E0  C0AB  FFF7         	movff	??_vfpfcnvrt+1,tblptrh
  2182  0016E4                     	if	0	;tblptru may be non-zero
  2183  0016E4                     	endif
  2184  0016E4                     	if	0	;tblptru may be non-zero
  2185  0016E4                     	endif
  2186  0016E4  0008               	tblrd		*
  2187  0016E6  50F5               	movf	tablat,w,c
  2188  0016E8  6E07               	movwf	tolower@c^0,c
  2189  0016EA  6A08               	clrf	(tolower@c+1)^0,c
  2190  0016EC  EC84  F01E         	call	_tolower	;wreg free
  2191  0016F0  5007               	movf	?_tolower^0,w,c
  2192  0016F2  0100               	movlb	0	; () banked
  2193  0016F4  6FC2               	movwf	(vfpfcnvrt@ct+2)& (0+255),b
  2194  0016F6                     l4283:
  2195                           
  2196                           ; BSR set to: 0
  2197                           ;C:\Program Files\Microchip\xc8\v2.20\pic\sources\c99\common\doprnt.c: 825:         if (
      +                          (*fmt[0] == 'd') || (*fmt[0] == 'i')) {
  2198  0016F6  C0A6  FFD9         	movff	vfpfcnvrt@fmt,fsr2l
  2199  0016FA  C0A7  FFDA         	movff	vfpfcnvrt@fmt+1,fsr2h
  2200  0016FE  CFDE FFF6          	movff	postinc2,tblptrl
  2201  001702  CFDD FFF7          	movff	postdec2,tblptrh
  2202  001706                     	if	0	;tblptru may be non-zero
  2203  001706                     	endif
  2204  001706                     	if	0	;tblptru may be non-zero
  2205  001706                     	endif
  2206  001706  0008               	tblrd		*
  2207  001708  50F5               	movf	tablat,w,c
  2208  00170A  0A64               	xorlw	100
  2209  00170C  B4D8               	btfsc	status,2,c
  2210  00170E  EF8B  F00B         	goto	u5341
  2211  001712  EF8D  F00B         	goto	u5340
  2212  001716                     u5341:
  2213  001716  EF9F  F00B         	goto	l4287
  2214  00171A                     u5340:
  2215  00171A                     
  2216                           ; BSR set to: 0
  2217  00171A  C0A6  FFD9         	movff	vfpfcnvrt@fmt,fsr2l
  2218  00171E  C0A7  FFDA         	movff	vfpfcnvrt@fmt+1,fsr2h
  2219  001722  CFDE FFF6          	movff	postinc2,tblptrl
  2220  001726  CFDD FFF7          	movff	postdec2,tblptrh
  2221  00172A                     	if	0	;tblptru may be non-zero
  2222  00172A                     	endif
  2223  00172A                     	if	0	;tblptru may be non-zero
  2224  00172A                     	endif
  2225  00172A  0008               	tblrd		*
  2226  00172C  50F5               	movf	tablat,w,c
  2227  00172E  0A69               	xorlw	105
  2228  001730  A4D8               	btfss	status,2,c
  2229  001732  EF9D  F00B         	goto	u5351
  2230  001736  EF9F  F00B         	goto	u5350
  2231  00173A                     u5351:
  2232  00173A  EFDF  F00B         	goto	l4293
  2233  00173E                     u5350:
  2234  00173E                     l4287:
  2235                           
  2236                           ; BSR set to: 0
  2237                           ;C:\Program Files\Microchip\xc8\v2.20\pic\sources\c99\common\doprnt.c: 827:             
      +                          ++*fmt;
  2238  00173E  C0A6  FFD9         	movff	vfpfcnvrt@fmt,fsr2l
  2239  001742  C0A7  FFDA         	movff	vfpfcnvrt@fmt+1,fsr2h
  2240  001746  2ADE               	incf	postinc2,f,c
  2241  001748  0E00               	movlw	0
  2242  00174A  22DD               	addwfc	postdec2,f,c
  2243                           
  2244                           ;C:\Program Files\Microchip\xc8\v2.20\pic\sources\c99\common\doprnt.c: 828:             
      +                          ll = (long long)(*(int *)__va_arg(*(int **)ap, (int)0));
  2245  00174C  C0A8  FFD9         	movff	vfpfcnvrt@ap,fsr2l
  2246  001750  C0A9  FFDA         	movff	vfpfcnvrt@ap+1,fsr2h
  2247  001754  CFDF F0AA          	movff	indf2,??_vfpfcnvrt
  2248  001758  0E02               	movlw	2
  2249  00175A  26DE               	addwf	postinc2,f,c
  2250  00175C  CFDF F0AB          	movff	indf2,??_vfpfcnvrt+1
  2251  001760  0E00               	movlw	0
  2252  001762  22DD               	addwfc	postdec2,f,c
  2253  001764  C0AA  FFD9         	movff	??_vfpfcnvrt,fsr2l
  2254  001768  C0AB  FFDA         	movff	??_vfpfcnvrt+1,fsr2h
  2255  00176C  CFDE F0AE          	movff	postinc2,vfpfcnvrt@ll
  2256  001770  CFDD F0AF          	movff	postdec2,vfpfcnvrt@ll+1
  2257  001774  0E00               	movlw	0
  2258  001776  BFAF               	btfsc	(vfpfcnvrt@ll+1)& (0+255),7,b
  2259  001778  0EFF               	movlw	-1
  2260  00177A  6FB0               	movwf	(vfpfcnvrt@ll+2)& (0+255),b
  2261  00177C  6FB1               	movwf	(vfpfcnvrt@ll+3)& (0+255),b
  2262  00177E  6FB2               	movwf	(vfpfcnvrt@ll+4)& (0+255),b
  2263  001780  6FB3               	movwf	(vfpfcnvrt@ll+5)& (0+255),b
  2264  001782  6FB4               	movwf	(vfpfcnvrt@ll+6)& (0+255),b
  2265  001784  6FB5               	movwf	(vfpfcnvrt@ll+7)& (0+255),b
  2266  001786                     
  2267                           ; BSR set to: 0
  2268                           ;C:\Program Files\Microchip\xc8\v2.20\pic\sources\c99\common\doprnt.c: 830:             
      +                          return dtoa(fp, ll);
  2269  001786  C0A4  F01C         	movff	vfpfcnvrt@fp,dtoa@fp
  2270  00178A  C0A5  F01D         	movff	vfpfcnvrt@fp+1,dtoa@fp+1
  2271  00178E  C0AE  F01E         	movff	vfpfcnvrt@ll,dtoa@d
  2272  001792  C0AF  F01F         	movff	vfpfcnvrt@ll+1,dtoa@d+1
  2273  001796  C0B0  F020         	movff	vfpfcnvrt@ll+2,dtoa@d+2
  2274  00179A  C0B1  F021         	movff	vfpfcnvrt@ll+3,dtoa@d+3
  2275  00179E  C0B2  F022         	movff	vfpfcnvrt@ll+4,dtoa@d+4
  2276  0017A2  C0B3  F023         	movff	vfpfcnvrt@ll+5,dtoa@d+5
  2277  0017A6  C0B4  F024         	movff	vfpfcnvrt@ll+6,dtoa@d+6
  2278  0017AA  C0B5  F025         	movff	vfpfcnvrt@ll+7,dtoa@d+7
  2279  0017AE  ECF6  F014         	call	_dtoa	;wreg free
  2280  0017B2  C01C  F0A4         	movff	?_dtoa,?_vfpfcnvrt
  2281  0017B6  C01D  F0A5         	movff	?_dtoa+1,?_vfpfcnvrt+1
  2282  0017BA  EF0E  F00D         	goto	l1003
  2283  0017BE                     l4293:
  2284                           
  2285                           ; BSR set to: 0
  2286                           ;C:\Program Files\Microchip\xc8\v2.20\pic\sources\c99\common\doprnt.c: 920:         if (
      +                          ct[0] == 'f') {
  2287  0017BE  0E66               	movlw	102
  2288  0017C0  19C0               	xorwf	vfpfcnvrt@ct& (0+255),w,b
  2289  0017C2  A4D8               	btfss	status,2,c
  2290  0017C4  EFE6  F00B         	goto	u5361
  2291  0017C8  EFE8  F00B         	goto	u5360
  2292  0017CC                     u5361:
  2293  0017CC  EF28  F00C         	goto	l4305
  2294  0017D0                     u5360:
  2295  0017D0                     
  2296                           ; BSR set to: 0
  2297                           ;C:\Program Files\Microchip\xc8\v2.20\pic\sources\c99\common\doprnt.c: 922:             
      +                          c = (*fmt)[0];
  2298  0017D0  C0A6  FFD9         	movff	vfpfcnvrt@fmt,fsr2l
  2299  0017D4  C0A7  FFDA         	movff	vfpfcnvrt@fmt+1,fsr2h
  2300  0017D8  CFDE FFF6          	movff	postinc2,tblptrl
  2301  0017DC  CFDD FFF7          	movff	postdec2,tblptrh
  2302  0017E0                     	if	0	;tblptru may be non-zero
  2303  0017E0                     	endif
  2304  0017E0                     	if	0	;tblptru may be non-zero
  2305  0017E0                     	endif
  2306  0017E0  0008               	tblrd		*
  2307  0017E2  CFF5 F0C3          	movff	tablat,vfpfcnvrt@c
  2308  0017E6                     
  2309                           ; BSR set to: 0
  2310                           ;C:\Program Files\Microchip\xc8\v2.20\pic\sources\c99\common\doprnt.c: 923:             
      +                          ++*fmt;
  2311  0017E6  C0A6  FFD9         	movff	vfpfcnvrt@fmt,fsr2l
  2312  0017EA  C0A7  FFDA         	movff	vfpfcnvrt@fmt+1,fsr2h
  2313  0017EE  2ADE               	incf	postinc2,f,c
  2314  0017F0  0E00               	movlw	0
  2315  0017F2  22DD               	addwfc	postdec2,f,c
  2316  0017F4                     
  2317                           ; BSR set to: 0
  2318                           ;C:\Program Files\Microchip\xc8\v2.20\pic\sources\c99\common\doprnt.c: 924:             
      +                          f = (long double)(*(double *)__va_arg(*(double **)ap, (double)0));
  2319  0017F4  C0A8  FFD9         	movff	vfpfcnvrt@ap,fsr2l
  2320  0017F8  C0A9  FFDA         	movff	vfpfcnvrt@ap+1,fsr2h
  2321  0017FC  CFDF F0AA          	movff	indf2,??_vfpfcnvrt
  2322  001800  0E04               	movlw	4
  2323  001802  26DE               	addwf	postinc2,f,c
  2324  001804  CFDF F0AB          	movff	indf2,??_vfpfcnvrt+1
  2325  001808  0E00               	movlw	0
  2326  00180A  22DD               	addwfc	postdec2,f,c
  2327  00180C  C0AA  FFD9         	movff	??_vfpfcnvrt,fsr2l
  2328  001810  C0AB  FFDA         	movff	??_vfpfcnvrt+1,fsr2h
  2329  001814  CFDE F0BC          	movff	postinc2,vfpfcnvrt@f
  2330  001818  CFDE F0BD          	movff	postinc2,vfpfcnvrt@f+1
  2331  00181C  CFDE F0BE          	movff	postinc2,vfpfcnvrt@f+2
  2332  001820  CFDE F0BF          	movff	postinc2,vfpfcnvrt@f+3
  2333  001824                     l4301:
  2334                           
  2335                           ; BSR set to: 0
  2336                           ;C:\Program Files\Microchip\xc8\v2.20\pic\sources\c99\common\doprnt.c: 926:             
      +                          return efgtoa(fp, f, c);
  2337  001824  C0A4  F060         	movff	vfpfcnvrt@fp,efgtoa@fp
  2338  001828  C0A5  F061         	movff	vfpfcnvrt@fp+1,efgtoa@fp+1
  2339  00182C  C0BC  F062         	movff	vfpfcnvrt@f,efgtoa@f
  2340  001830  C0BD  F063         	movff	vfpfcnvrt@f+1,efgtoa@f+1
  2341  001834  C0BE  F064         	movff	vfpfcnvrt@f+2,efgtoa@f+2
  2342  001838  C0BF  F065         	movff	vfpfcnvrt@f+3,efgtoa@f+3
  2343  00183C  C0C3  F066         	movff	vfpfcnvrt@c,efgtoa@c
  2344  001840  EC1D  F004         	call	_efgtoa	;wreg free
  2345  001844  C060  F0A4         	movff	?_efgtoa,?_vfpfcnvrt
  2346  001848  C061  F0A5         	movff	?_efgtoa+1,?_vfpfcnvrt+1
  2347  00184C  EF0E  F00D         	goto	l1003
  2348  001850                     l4305:
  2349                           
  2350                           ; BSR set to: 0
  2351                           ;C:\Program Files\Microchip\xc8\v2.20\pic\sources\c99\common\doprnt.c: 928:         if (
      +                          !strncmp(ct, "lf", ((sizeof("lf")/sizeof("lf"[0]))-1))) {
  2352  001850  0EC0               	movlw	low vfpfcnvrt@ct
  2353  001852  6E01               	movwf	strncmp@_l^0,c
  2354  001854  0E00               	movlw	high vfpfcnvrt@ct
  2355  001856  6E02               	movwf	(strncmp@_l+1)^0,c
  2356  001858  0E31               	movlw	low STR_17
  2357  00185A  6E03               	movwf	strncmp@_r^0,c
  2358  00185C  0E08               	movlw	high STR_17
  2359  00185E  6E04               	movwf	(strncmp@_r+1)^0,c
  2360  001860  0E00               	movlw	0
  2361  001862  6E06               	movwf	(strncmp@n+1)^0,c
  2362  001864  0E02               	movlw	2
  2363  001866  6E05               	movwf	strncmp@n^0,c
  2364  001868  EC0D  F01C         	call	_strncmp	;wreg free
  2365  00186C  5001               	movf	?_strncmp^0,w,c
  2366  00186E  1002               	iorwf	(?_strncmp+1)^0,w,c
  2367  001870  A4D8               	btfss	status,2,c
  2368  001872  EF3D  F00C         	goto	u5371
  2369  001876  EF3F  F00C         	goto	u5370
  2370  00187A                     u5371:
  2371  00187A  EFBB  F00C         	goto	l4321
  2372  00187E                     u5370:
  2373  00187E                     
  2374                           ;C:\Program Files\Microchip\xc8\v2.20\pic\sources\c99\common\doprnt.c: 931:             
      +                          if ((0 ? isupper((int)(*fmt)[0]) : ((unsigned)((int)(*fmt)[0])-'A') < 26)) {
  2375  00187E  C0A6  FFD9         	movff	vfpfcnvrt@fmt,fsr2l
  2376  001882  C0A7  FFDA         	movff	vfpfcnvrt@fmt+1,fsr2h
  2377  001886  CFDE F0AA          	movff	postinc2,??_vfpfcnvrt
  2378  00188A  CFDD F0AB          	movff	postdec2,??_vfpfcnvrt+1
  2379  00188E  0E01               	movlw	1
  2380  001890  0100               	movlb	0	; () banked
  2381  001892  27AA               	addwf	??_vfpfcnvrt& (0+255),f,b
  2382  001894  0E00               	movlw	0
  2383  001896  23AB               	addwfc	(??_vfpfcnvrt+1)& (0+255),f,b
  2384  001898  C0AA  FFF6         	movff	??_vfpfcnvrt,tblptrl
  2385  00189C  C0AB  FFF7         	movff	??_vfpfcnvrt+1,tblptrh
  2386  0018A0                     	if	0	;tblptru may be non-zero
  2387  0018A0                     	endif
  2388  0018A0                     	if	0	;tblptru may be non-zero
  2389  0018A0                     	endif
  2390  0018A0  0008               	tblrd		*
  2391  0018A2  CFF5 F0C3          	movff	tablat,vfpfcnvrt@c
  2392  0018A6  0EBF               	movlw	191
  2393  0018A8  6FAA               	movwf	??_vfpfcnvrt& (0+255),b
  2394  0018AA  0EFF               	movlw	255
  2395  0018AC  6FAB               	movwf	(??_vfpfcnvrt+1)& (0+255),b
  2396  0018AE  C0A6  FFD9         	movff	vfpfcnvrt@fmt,fsr2l
  2397  0018B2  C0A7  FFDA         	movff	vfpfcnvrt@fmt+1,fsr2h
  2398  0018B6  CFDE FFF6          	movff	postinc2,tblptrl
  2399  0018BA  CFDD FFF7          	movff	postdec2,tblptrh
  2400  0018BE                     	if	0	;tblptru may be non-zero
  2401  0018BE                     	endif
  2402  0018BE                     	if	0	;tblptru may be non-zero
  2403  0018BE                     	endif
  2404  0018BE  0008               	tblrd		*
  2405  0018C0  50F5               	movf	tablat,w,c
  2406  0018C2  6FAC               	movwf	(??_vfpfcnvrt+2)& (0+255),b
  2407  0018C4  6BAD               	clrf	(??_vfpfcnvrt+3)& (0+255),b
  2408  0018C6  51AA               	movf	??_vfpfcnvrt& (0+255),w,b
  2409  0018C8  27AC               	addwf	(??_vfpfcnvrt+2)& (0+255),f,b
  2410  0018CA  51AB               	movf	(??_vfpfcnvrt+1)& (0+255),w,b
  2411  0018CC  23AD               	addwfc	(??_vfpfcnvrt+3)& (0+255),f,b
  2412  0018CE  51AD               	movf	(??_vfpfcnvrt+3)& (0+255),w,b
  2413  0018D0  E10A               	bnz	u5380
  2414  0018D2  0E1A               	movlw	26
  2415  0018D4  5DAC               	subwf	(??_vfpfcnvrt+2)& (0+255),w,b
  2416  0018D6  A0D8               	btfss	status,0,c
  2417  0018D8  EF70  F00C         	goto	u5381
  2418  0018DC  EF73  F00C         	goto	u5380
  2419  0018E0                     u5381:
  2420  0018E0  0E01               	movlw	1
  2421  0018E2  EF74  F00C         	goto	u5390
  2422  0018E6                     u5380:
  2423  0018E6  0E00               	movlw	0
  2424  0018E8                     u5390:
  2425  0018E8  6FBA               	movwf	_vfpfcnvrt$1032& (0+255),b
  2426  0018EA  6BBB               	clrf	(_vfpfcnvrt$1032+1)& (0+255),b
  2427  0018EC                     
  2428                           ; BSR set to: 0
  2429  0018EC  51BA               	movf	_vfpfcnvrt$1032& (0+255),w,b
  2430  0018EE  11BB               	iorwf	(_vfpfcnvrt$1032+1)& (0+255),w,b
  2431  0018F0  B4D8               	btfsc	status,2,c
  2432  0018F2  EF7D  F00C         	goto	u5401
  2433  0018F6  EF7F  F00C         	goto	u5400
  2434  0018FA                     u5401:
  2435  0018FA  EF99  F00C         	goto	l4315
  2436  0018FE                     u5400:
  2437  0018FE                     
  2438                           ; BSR set to: 0
  2439                           ;C:\Program Files\Microchip\xc8\v2.20\pic\sources\c99\common\doprnt.c: 932:             
      +                              f = (*(long double *)__va_arg(*(long double **)ap, (long double)0));
  2440  0018FE  C0A8  FFD9         	movff	vfpfcnvrt@ap,fsr2l
  2441  001902  C0A9  FFDA         	movff	vfpfcnvrt@ap+1,fsr2h
  2442  001906  CFDF F0AA          	movff	indf2,??_vfpfcnvrt
  2443  00190A  0E04               	movlw	4
  2444  00190C  26DE               	addwf	postinc2,f,c
  2445  00190E  CFDF F0AB          	movff	indf2,??_vfpfcnvrt+1
  2446  001912  0E00               	movlw	0
  2447  001914  22DD               	addwfc	postdec2,f,c
  2448  001916  C0AA  FFD9         	movff	??_vfpfcnvrt,fsr2l
  2449  00191A  C0AB  FFDA         	movff	??_vfpfcnvrt+1,fsr2h
  2450  00191E  CFDE F0BC          	movff	postinc2,vfpfcnvrt@f
  2451  001922  CFDE F0BD          	movff	postinc2,vfpfcnvrt@f+1
  2452  001926  CFDE F0BE          	movff	postinc2,vfpfcnvrt@f+2
  2453  00192A  CFDE F0BF          	movff	postinc2,vfpfcnvrt@f+3
  2454                           
  2455                           ;C:\Program Files\Microchip\xc8\v2.20\pic\sources\c99\common\doprnt.c: 933:             
      +                          } else {
  2456  00192E  EFB1  F00C         	goto	l1011
  2457  001932                     l4315:
  2458                           
  2459                           ; BSR set to: 0
  2460                           ;C:\Program Files\Microchip\xc8\v2.20\pic\sources\c99\common\doprnt.c: 934:             
      +                              f = (long double)(*(double *)__va_arg(*(double **)ap, (double)0));
  2461  001932  C0A8  FFD9         	movff	vfpfcnvrt@ap,fsr2l
  2462  001936  C0A9  FFDA         	movff	vfpfcnvrt@ap+1,fsr2h
  2463  00193A  CFDF F0AA          	movff	indf2,??_vfpfcnvrt
  2464  00193E  0E04               	movlw	4
  2465  001940  26DE               	addwf	postinc2,f,c
  2466  001942  CFDF F0AB          	movff	indf2,??_vfpfcnvrt+1
  2467  001946  0E00               	movlw	0
  2468  001948  22DD               	addwfc	postdec2,f,c
  2469  00194A  C0AA  FFD9         	movff	??_vfpfcnvrt,fsr2l
  2470  00194E  C0AB  FFDA         	movff	??_vfpfcnvrt+1,fsr2h
  2471  001952  CFDE F0BC          	movff	postinc2,vfpfcnvrt@f
  2472  001956  CFDE F0BD          	movff	postinc2,vfpfcnvrt@f+1
  2473  00195A  CFDE F0BE          	movff	postinc2,vfpfcnvrt@f+2
  2474  00195E  CFDE F0BF          	movff	postinc2,vfpfcnvrt@f+3
  2475  001962                     l1011:
  2476                           
  2477                           ; BSR set to: 0
  2478                           ;C:\Program Files\Microchip\xc8\v2.20\pic\sources\c99\common\doprnt.c: 936:             
      +                          *fmt += ((sizeof("lf")/sizeof("lf"[0]))-1);
  2479  001962  0E02               	movlw	2
  2480  001964  C0A6  FFD9         	movff	vfpfcnvrt@fmt,fsr2l
  2481  001968  C0A7  FFDA         	movff	vfpfcnvrt@fmt+1,fsr2h
  2482  00196C  26DE               	addwf	postinc2,f,c
  2483  00196E  0E00               	movlw	0
  2484  001970  22DD               	addwfc	postdec2,f,c
  2485  001972  EF12  F00C         	goto	l4301
  2486  001976                     l4321:
  2487                           
  2488                           ;C:\Program Files\Microchip\xc8\v2.20\pic\sources\c99\common\doprnt.c: 1350:         if 
      +                          ((*fmt)[0] == '%') {
  2489  001976  C0A6  FFD9         	movff	vfpfcnvrt@fmt,fsr2l
  2490  00197A  C0A7  FFDA         	movff	vfpfcnvrt@fmt+1,fsr2h
  2491  00197E  CFDE FFF6          	movff	postinc2,tblptrl
  2492  001982  CFDD FFF7          	movff	postdec2,tblptrh
  2493  001986                     	if	0	;tblptru may be non-zero
  2494  001986                     	endif
  2495  001986                     	if	0	;tblptru may be non-zero
  2496  001986                     	endif
  2497  001986  0008               	tblrd		*
  2498  001988  50F5               	movf	tablat,w,c
  2499  00198A  0A25               	xorlw	37
  2500  00198C  A4D8               	btfss	status,2,c
  2501  00198E  EFCB  F00C         	goto	u5411
  2502  001992  EFCD  F00C         	goto	u5410
  2503  001996                     u5411:
  2504  001996  EFE5  F00C         	goto	l4331
  2505  00199A                     u5410:
  2506  00199A                     
  2507                           ;C:\Program Files\Microchip\xc8\v2.20\pic\sources\c99\common\doprnt.c: 1351:            
      +                           ++*fmt;
  2508  00199A  C0A6  FFD9         	movff	vfpfcnvrt@fmt,fsr2l
  2509  00199E  C0A7  FFDA         	movff	vfpfcnvrt@fmt+1,fsr2h
  2510  0019A2  2ADE               	incf	postinc2,f,c
  2511  0019A4  0E00               	movlw	0
  2512  0019A6  22DD               	addwfc	postdec2,f,c
  2513  0019A8                     
  2514                           ;C:\Program Files\Microchip\xc8\v2.20\pic\sources\c99\common\doprnt.c: 1352:            
      +                           fputc((int)'%', fp);
  2515  0019A8  0E00               	movlw	0
  2516  0019AA  6E02               	movwf	(fputc@c+1)^0,c
  2517  0019AC  0E25               	movlw	37
  2518  0019AE  6E01               	movwf	fputc@c^0,c
  2519  0019B0  C0A4  F003         	movff	vfpfcnvrt@fp,fputc@fp
  2520  0019B4  C0A5  F004         	movff	vfpfcnvrt@fp+1,fputc@fp+1
  2521  0019B8  EC78  F01C         	call	_fputc	;wreg free
  2522  0019BC                     l4327:
  2523                           
  2524                           ;C:\Program Files\Microchip\xc8\v2.20\pic\sources\c99\common\doprnt.c: 1353:            
      +                           return 1;
  2525  0019BC  0E00               	movlw	0
  2526  0019BE  0100               	movlb	0	; () banked
  2527  0019C0  6FA5               	movwf	(?_vfpfcnvrt+1)& (0+255),b
  2528  0019C2  0E01               	movlw	1
  2529  0019C4  6FA4               	movwf	?_vfpfcnvrt& (0+255),b
  2530  0019C6  EF0E  F00D         	goto	l1003
  2531  0019CA                     l4331:
  2532                           
  2533                           ;C:\Program Files\Microchip\xc8\v2.20\pic\sources\c99\common\doprnt.c: 1357:         ++*
      +                          fmt;
  2534  0019CA  C0A6  FFD9         	movff	vfpfcnvrt@fmt,fsr2l
  2535  0019CE  C0A7  FFDA         	movff	vfpfcnvrt@fmt+1,fsr2h
  2536  0019D2  2ADE               	incf	postinc2,f,c
  2537  0019D4  0E00               	movlw	0
  2538  0019D6  22DD               	addwfc	postdec2,f,c
  2539  0019D8                     
  2540                           ;C:\Program Files\Microchip\xc8\v2.20\pic\sources\c99\common\doprnt.c: 1358:         ret
      +                          urn 0;
  2541  0019D8  0E00               	movlw	0
  2542  0019DA  0100               	movlb	0	; () banked
  2543  0019DC  6FA5               	movwf	(?_vfpfcnvrt+1)& (0+255),b
  2544  0019DE  0E00               	movlw	0
  2545  0019E0  6FA4               	movwf	?_vfpfcnvrt& (0+255),b
  2546  0019E2  EF0E  F00D         	goto	l1003
  2547  0019E6                     l4337:
  2548                           
  2549                           ;C:\Program Files\Microchip\xc8\v2.20\pic\sources\c99\common\doprnt.c: 1362:     fputc((
      +                          int)(*fmt)[0], fp);
  2550  0019E6  C0A6  FFD9         	movff	vfpfcnvrt@fmt,fsr2l
  2551  0019EA  C0A7  FFDA         	movff	vfpfcnvrt@fmt+1,fsr2h
  2552  0019EE  CFDE FFF6          	movff	postinc2,tblptrl
  2553  0019F2  CFDD FFF7          	movff	postdec2,tblptrh
  2554  0019F6                     	if	0	;tblptru may be non-zero
  2555  0019F6                     	endif
  2556  0019F6                     	if	0	;tblptru may be non-zero
  2557  0019F6                     	endif
  2558  0019F6  0008               	tblrd		*
  2559  0019F8  50F5               	movf	tablat,w,c
  2560  0019FA  6E01               	movwf	fputc@c^0,c
  2561  0019FC  6A02               	clrf	(fputc@c+1)^0,c
  2562  0019FE  C0A4  F003         	movff	vfpfcnvrt@fp,fputc@fp
  2563  001A02  C0A5  F004         	movff	vfpfcnvrt@fp+1,fputc@fp+1
  2564  001A06  EC78  F01C         	call	_fputc	;wreg free
  2565  001A0A                     
  2566                           ;C:\Program Files\Microchip\xc8\v2.20\pic\sources\c99\common\doprnt.c: 1363:     ++*fmt;
  2567  001A0A  C0A6  FFD9         	movff	vfpfcnvrt@fmt,fsr2l
  2568  001A0E  C0A7  FFDA         	movff	vfpfcnvrt@fmt+1,fsr2h
  2569  001A12  2ADE               	incf	postinc2,f,c
  2570  001A14  0E00               	movlw	0
  2571  001A16  22DD               	addwfc	postdec2,f,c
  2572  001A18  EFDE  F00C         	goto	l4327
  2573  001A1C                     l1003:
  2574  001A1C  0012               	return		;funcret
  2575  001A1E                     __end_of_vfpfcnvrt:
  2576                           	callstack 0
  2577                           
  2578 ;; *************** function _strncmp *****************
  2579 ;; Defined at:
  2580 ;;		line 3 in file "C:\Program Files\Microchip\xc8\v2.20\pic\sources\c99\common\strncmp.c"
  2581 ;; Parameters:    Size  Location     Type
  2582 ;;  _l              2    0[COMRAM] PTR const unsigned char 
  2583 ;;		 -> vfpfcnvrt@ct(3), 
  2584 ;;  _r              2    2[COMRAM] PTR const unsigned char 
  2585 ;;		 -> STR_19(3), 
  2586 ;;  n               2    4[COMRAM] unsigned int 
  2587 ;; Auto vars:     Size  Location     Type
  2588 ;;  r               2    9[COMRAM] PTR const unsigned char 
  2589 ;;		 -> STR_19(3), 
  2590 ;;  l               2    7[COMRAM] PTR const unsigned char 
  2591 ;;		 -> vfpfcnvrt@ct(3), 
  2592 ;; Return value:  Size  Location     Type
  2593 ;;                  2    0[COMRAM] int 
  2594 ;; Registers used:
  2595 ;;		wreg, fsr2l, fsr2h, status,2, status,0, tblptrl, tblptrh, tblptru
  2596 ;; Tracked objects:
  2597 ;;		On entry : 0/0
  2598 ;;		On exit  : 0/0
  2599 ;;		Unchanged: 0/0
  2600 ;; Data sizes:     COMRAM   BANK0   BANK1   BANK2   BANK3   BANK4   BANK5   BANK6   BANK7
  2601 ;;      Params:         6       0       0       0       0       0       0       0       0
  2602 ;;      Locals:         4       0       0       0       0       0       0       0       0
  2603 ;;      Temps:          1       0       0       0       0       0       0       0       0
  2604 ;;      Totals:        11       0       0       0       0       0       0       0       0
  2605 ;;Total ram usage:       11 bytes
  2606 ;; Hardware stack levels used:    1
  2607 ;; Hardware stack levels required when called:    1
  2608 ;; This function calls:
  2609 ;;		Nothing
  2610 ;; This function is called by:
  2611 ;;		_vfpfcnvrt
  2612 ;; This function uses a non-reentrant model
  2613 ;;
  2614                           
  2615                           	psect	text4
  2616  00381A                     __ptext4:
  2617                           	callstack 0
  2618  00381A                     _strncmp:
  2619                           	callstack 26
  2620  00381A  C001  F008         	movff	strncmp@_l,strncmp@l
  2621  00381E  C002  F009         	movff	strncmp@_l+1,strncmp@l+1
  2622  003822  C003  F00A         	movff	strncmp@_r,strncmp@r
  2623  003826  C004  F00B         	movff	strncmp@_r+1,strncmp@r+1
  2624  00382A  0605               	decf	strncmp@n^0,f,c
  2625  00382C  A0D8               	btfss	status,0,c
  2626  00382E  0606               	decf	(strncmp@n+1)^0,f,c
  2627  003830  2805               	incf	strncmp@n^0,w,c
  2628  003832  E106               	bnz	u5161
  2629  003834  2806               	incf	(strncmp@n+1)^0,w,c
  2630  003836  A4D8               	btfss	status,2,c
  2631  003838  EF20  F01C         	goto	u5161
  2632  00383C  EF22  F01C         	goto	u5160
  2633  003840                     u5161:
  2634  003840  EF2F  F01C         	goto	l4205
  2635  003844                     u5160:
  2636  003844  0E00               	movlw	0
  2637  003846  6E02               	movwf	(?_strncmp+1)^0,c
  2638  003848  0E00               	movlw	0
  2639  00384A  6E01               	movwf	?_strncmp^0,c
  2640  00384C  EF77  F01C         	goto	l1139
  2641  003850                     l4203:
  2642  003850  4A08               	infsnz	strncmp@l^0,f,c
  2643  003852  2A09               	incf	(strncmp@l+1)^0,f,c
  2644  003854  4A0A               	infsnz	strncmp@r^0,f,c
  2645  003856  2A0B               	incf	(strncmp@r+1)^0,f,c
  2646  003858  0605               	decf	strncmp@n^0,f,c
  2647  00385A  A0D8               	btfss	status,0,c
  2648  00385C  0606               	decf	(strncmp@n+1)^0,f,c
  2649  00385E                     l4205:
  2650  00385E  C008  FFD9         	movff	strncmp@l,fsr2l
  2651  003862  C009  FFDA         	movff	strncmp@l+1,fsr2h
  2652  003866  50DF               	movf	indf2,w,c
  2653  003868  B4D8               	btfsc	status,2,c
  2654  00386A  EF39  F01C         	goto	u5171
  2655  00386E  EF3B  F01C         	goto	u5170
  2656  003872                     u5171:
  2657  003872  EF66  F01C         	goto	l4213
  2658  003876                     u5170:
  2659  003876  C00A  FFF6         	movff	strncmp@r,tblptrl
  2660  00387A  C00B  FFF7         	movff	strncmp@r+1,tblptrh
  2661  00387E                     	if	0	;tblptru may be non-zero
  2662  00387E                     	endif
  2663  00387E                     	if	0	;tblptru may be non-zero
  2664  00387E                     	endif
  2665  00387E  0008               	tblrd		*
  2666  003880  50F5               	movf	tablat,w,c
  2667  003882  0900               	iorlw	0
  2668  003884  B4D8               	btfsc	status,2,c
  2669  003886  EF47  F01C         	goto	u5181
  2670  00388A  EF49  F01C         	goto	u5180
  2671  00388E                     u5181:
  2672  00388E  EF66  F01C         	goto	l4213
  2673  003892                     u5180:
  2674  003892  5005               	movf	strncmp@n^0,w,c
  2675  003894  1006               	iorwf	(strncmp@n+1)^0,w,c
  2676  003896  B4D8               	btfsc	status,2,c
  2677  003898  EF50  F01C         	goto	u5191
  2678  00389C  EF52  F01C         	goto	u5190
  2679  0038A0                     u5191:
  2680  0038A0  EF66  F01C         	goto	l4213
  2681  0038A4                     u5190:
  2682  0038A4  C008  FFD9         	movff	strncmp@l,fsr2l
  2683  0038A8  C009  FFDA         	movff	strncmp@l+1,fsr2h
  2684  0038AC  50DF               	movf	indf2,w,c
  2685  0038AE  6E07               	movwf	??_strncmp^0,c
  2686  0038B0  C00A  FFF6         	movff	strncmp@r,tblptrl
  2687  0038B4  C00B  FFF7         	movff	strncmp@r+1,tblptrh
  2688  0038B8                     	if	0	;tblptru may be non-zero
  2689  0038B8                     	endif
  2690  0038B8                     	if	0	;tblptru may be non-zero
  2691  0038B8                     	endif
  2692  0038B8  0008               	tblrd		*
  2693  0038BA  50F5               	movf	tablat,w,c
  2694  0038BC  1807               	xorwf	??_strncmp^0,w,c
  2695  0038BE  B4D8               	btfsc	status,2,c
  2696  0038C0  EF64  F01C         	goto	u5201
  2697  0038C4  EF66  F01C         	goto	u5200
  2698  0038C8                     u5201:
  2699  0038C8  EF28  F01C         	goto	l4203
  2700  0038CC                     u5200:
  2701  0038CC                     l4213:
  2702  0038CC  C008  FFD9         	movff	strncmp@l,fsr2l
  2703  0038D0  C009  FFDA         	movff	strncmp@l+1,fsr2h
  2704  0038D4  50DF               	movf	indf2,w,c
  2705  0038D6  6E07               	movwf	??_strncmp^0,c
  2706  0038D8  C00A  FFF6         	movff	strncmp@r,tblptrl
  2707  0038DC  C00B  FFF7         	movff	strncmp@r+1,tblptrh
  2708  0038E0                     	if	0	;tblptru may be non-zero
  2709  0038E0                     	endif
  2710  0038E0                     	if	0	;tblptru may be non-zero
  2711  0038E0                     	endif
  2712  0038E0  0008               	tblrd		*
  2713  0038E2  50F5               	movf	tablat,w,c
  2714  0038E4  5C07               	subwf	??_strncmp^0,w,c
  2715  0038E6  6E01               	movwf	?_strncmp^0,c
  2716  0038E8  6A02               	clrf	(?_strncmp+1)^0,c
  2717  0038EA  A0D8               	btfss	status,0,c
  2718  0038EC  0602               	decf	(?_strncmp+1)^0,f,c
  2719  0038EE                     l1139:
  2720  0038EE  0012               	return		;funcret
  2721  0038F0                     __end_of_strncmp:
  2722                           	callstack 0
  2723                           
  2724 ;; *************** function _efgtoa *****************
  2725 ;; Defined at:
  2726 ;;		line 319 in file "C:\Program Files\Microchip\xc8\v2.20\pic\sources\c99\common\doprnt.c"
  2727 ;; Parameters:    Size  Location     Type
  2728 ;;  fp              2    0[BANK0 ] PTR struct _IO_FILE
  2729 ;;		 -> sprintf@f(6), 
  2730 ;;  f               4    2[BANK0 ] PTR struct _IO_FILE
  2731 ;;  c               1    6[BANK0 ] unsigned char 
  2732 ;; Auto vars:     Size  Location     Type
  2733 ;;  u               4   64[BANK0 ] unsigned char 
  2734 ;;  g               4   56[BANK0 ] unsigned char 
  2735 ;;  l               4   50[BANK0 ] unsigned char 
  2736 ;;  h               4   46[BANK0 ] unsigned char 
  2737 ;;  ou              4   12[BANK0 ] unsigned char 
  2738 ;;  n               2   62[BANK0 ] int 
  2739 ;;  e               2   60[BANK0 ] int 
  2740 ;;  i               2   54[BANK0 ] int 
  2741 ;;  w               2   43[BANK0 ] int 
  2742 ;;  p               2   40[BANK0 ] int 
  2743 ;;  sign            2   38[BANK0 ] int 
  2744 ;;  d               2   36[BANK0 ] int 
  2745 ;;  ne              2   34[BANK0 ] int 
  2746 ;;  m               2   32[BANK0 ] int 
  2747 ;;  pp              2   30[BANK0 ] int 
  2748 ;;  t               2   28[BANK0 ] int 
  2749 ;;  mode            1   45[BANK0 ] unsigned char 
  2750 ;;  nmode           1   42[BANK0 ] unsigned char 
  2751 ;; Return value:  Size  Location     Type
  2752 ;;                  2    0[BANK0 ] int 
  2753 ;; Registers used:
  2754 ;;		wreg, fsr1l, fsr1h, fsr2l, fsr2h, status,2, status,0, tblptrl, tblptrh, tblptru, prodl, prodh, cstack
  2755 ;; Tracked objects:
  2756 ;;		On entry : 0/0
  2757 ;;		On exit  : 0/0
  2758 ;;		Unchanged: 0/0
  2759 ;; Data sizes:     COMRAM   BANK0   BANK1   BANK2   BANK3   BANK4   BANK5   BANK6   BANK7
  2760 ;;      Params:         0       7       0       0       0       0       0       0       0
  2761 ;;      Locals:         0      56       0       0       0       0       0       0       0
  2762 ;;      Temps:          0       5       0       0       0       0       0       0       0
  2763 ;;      Totals:         0      68       0       0       0       0       0       0       0
  2764 ;;Total ram usage:       68 bytes
  2765 ;; Hardware stack levels used:    1
  2766 ;; Hardware stack levels required when called:    5
  2767 ;; This function calls:
  2768 ;;		___awdiv
  2769 ;;		___awmod
  2770 ;;		___fladd
  2771 ;;		___fldiv
  2772 ;;		___fleq
  2773 ;;		___flge
  2774 ;;		___flmul
  2775 ;;		___flneg
  2776 ;;		___flsub
  2777 ;;		___fltol
  2778 ;;		___fpclassifyf
  2779 ;;		_floorf
  2780 ;;		_isupper
  2781 ;;		_pad
  2782 ;;		_strcpy
  2783 ;;		_tolower
  2784 ;; This function is called by:
  2785 ;;		_vfpfcnvrt
  2786 ;; This function uses a non-reentrant model
  2787 ;;
  2788                           
  2789                           	psect	text5
  2790  00083A                     __ptext5:
  2791                           	callstack 0
  2792  00083A                     _efgtoa:
  2793                           	callstack 22
  2794  00083A                     
  2795                           ;C:\Program Files\Microchip\xc8\v2.20\pic\sources\c99\common\doprnt.c: 319: static int e
      +                          fgtoa(FILE *fp, long double f, char c);C:\Program Files\Microchip\xc8\v2.20\pic\sources\
      +                          c99\common\doprnt.c: 320: {;C:\Program Files\Microchip\xc8\v2.20\pic\sources\c99\common\
      +                          doprnt.c: 321:     char mode, nmode;;C:\Program Files\Microchip\xc8\v2.20\pic\sources\c9
      +                          9\common\doprnt.c: 322:     int d, e, i, m, n, ne, p, pp, sign, t, w;;C:\Program Files\M
      +                          icrochip\xc8\v2.20\pic\sources\c99\common\doprnt.c: 323:     long double g, h, l, ou, u;
  2796  00083A  0E00               	movlw	0
  2797  00083C  0100               	movlb	0	; () banked
  2798  00083E  6F87               	movwf	(efgtoa@sign+1)& (0+255),b
  2799  000840  0E00               	movlw	0
  2800  000842  6F86               	movwf	efgtoa@sign& (0+255),b
  2801  000844                     
  2802                           ; BSR set to: 0
  2803                           ;C:\Program Files\Microchip\xc8\v2.20\pic\sources\c99\common\doprnt.c: 327:     g = f;
  2804  000844  C062  F098         	movff	efgtoa@f,efgtoa@g
  2805  000848  C063  F099         	movff	efgtoa@f+1,efgtoa@g+1
  2806  00084C  C064  F09A         	movff	efgtoa@f+2,efgtoa@g+2
  2807  000850  C065  F09B         	movff	efgtoa@f+3,efgtoa@g+3
  2808  000854                     
  2809                           ; BSR set to: 0
  2810                           ;C:\Program Files\Microchip\xc8\v2.20\pic\sources\c99\common\doprnt.c: 328:     if (g < 
      +                          0.0) {
  2811  000854  BF9B               	btfsc	(efgtoa@g+3)& (0+255),7,b
  2812  000856  EF31  F004         	goto	u4570
  2813  00085A  EF2F  F004         	goto	u4571
  2814  00085E                     u4571:
  2815  00085E  EF47  F004         	goto	l3867
  2816  000862                     u4570:
  2817  000862                     
  2818                           ; BSR set to: 0
  2819                           ;C:\Program Files\Microchip\xc8\v2.20\pic\sources\c99\common\doprnt.c: 329:         sign
      +                           = 1;
  2820  000862  0E00               	movlw	0
  2821  000864  6F87               	movwf	(efgtoa@sign+1)& (0+255),b
  2822  000866  0E01               	movlw	1
  2823  000868  6F86               	movwf	efgtoa@sign& (0+255),b
  2824  00086A                     
  2825                           ; BSR set to: 0
  2826                           ;C:\Program Files\Microchip\xc8\v2.20\pic\sources\c99\common\doprnt.c: 330:         g = 
      +                          -g;
  2827  00086A  C098  F001         	movff	efgtoa@g,___flneg@f1
  2828  00086E  C099  F002         	movff	efgtoa@g+1,___flneg@f1+1
  2829  000872  C09A  F003         	movff	efgtoa@g+2,___flneg@f1+2
  2830  000876  C09B  F004         	movff	efgtoa@g+3,___flneg@f1+3
  2831  00087A  ECA0  F020         	call	___flneg	;wreg free
  2832  00087E  C001  F098         	movff	?___flneg,efgtoa@g
  2833  000882  C002  F099         	movff	?___flneg+1,efgtoa@g+1
  2834  000886  C003  F09A         	movff	?___flneg+2,efgtoa@g+2
  2835  00088A  C004  F09B         	movff	?___flneg+3,efgtoa@g+3
  2836  00088E                     l3867:
  2837                           
  2838                           ;C:\Program Files\Microchip\xc8\v2.20\pic\sources\c99\common\doprnt.c: 334:     n = 0;
  2839  00088E  0E00               	movlw	0
  2840  000890  0100               	movlb	0	; () banked
  2841  000892  6F9F               	movwf	(efgtoa@n+1)& (0+255),b
  2842  000894  0E00               	movlw	0
  2843  000896  6F9E               	movwf	efgtoa@n& (0+255),b
  2844  000898                     
  2845                           ; BSR set to: 0
  2846                           ;C:\Program Files\Microchip\xc8\v2.20\pic\sources\c99\common\doprnt.c: 335:     w = widt
      +                          h;
  2847  000898  C0F7  F08B         	movff	_width,efgtoa@w
  2848  00089C  C0F8  F08C         	movff	_width+1,efgtoa@w+1
  2849  0008A0                     
  2850                           ; BSR set to: 0
  2851                           ;C:\Program Files\Microchip\xc8\v2.20\pic\sources\c99\common\doprnt.c: 336:     if (sign
      +                           || (flags & (1 << 2))) {
  2852  0008A0  5186               	movf	efgtoa@sign& (0+255),w,b
  2853  0008A2  1187               	iorwf	(efgtoa@sign+1)& (0+255),w,b
  2854  0008A4  A4D8               	btfss	status,2,c
  2855  0008A6  EF57  F004         	goto	u4581
  2856  0008AA  EF59  F004         	goto	u4580
  2857  0008AE                     u4581:
  2858  0008AE  EF60  F004         	goto	l3875
  2859  0008B2                     u4580:
  2860  0008B2                     
  2861                           ; BSR set to: 0
  2862  0008B2  A5FB               	btfss	_flags& (0+255),2,b
  2863  0008B4  EF5E  F004         	goto	u4591
  2864  0008B8  EF60  F004         	goto	u4590
  2865  0008BC                     u4591:
  2866  0008BC  EF7A  F004         	goto	l3887
  2867  0008C0                     u4590:
  2868  0008C0                     l3875:
  2869                           
  2870                           ; BSR set to: 0
  2871                           ;C:\Program Files\Microchip\xc8\v2.20\pic\sources\c99\common\doprnt.c: 337:         dbuf
      +                          [n] = sign ? '-' : '+';
  2872  0008C0  5186               	movf	efgtoa@sign& (0+255),w,b
  2873  0008C2  1187               	iorwf	(efgtoa@sign+1)& (0+255),w,b
  2874  0008C4  A4D8               	btfss	status,2,c
  2875  0008C6  EF67  F004         	goto	u4601
  2876  0008CA  EF69  F004         	goto	u4600
  2877  0008CE                     u4601:
  2878  0008CE  EF6F  F004         	goto	l3879
  2879  0008D2                     u4600:
  2880  0008D2                     
  2881                           ; BSR set to: 0
  2882  0008D2  0E00               	movlw	0
  2883  0008D4  6F71               	movwf	(_efgtoa$1001+1)& (0+255),b
  2884  0008D6  0E2B               	movlw	43
  2885  0008D8  6F70               	movwf	_efgtoa$1001& (0+255),b
  2886  0008DA  EF73  F004         	goto	l3881
  2887  0008DE                     l3879:
  2888                           
  2889                           ; BSR set to: 0
  2890  0008DE  0E00               	movlw	0
  2891  0008E0  6F71               	movwf	(_efgtoa$1001+1)& (0+255),b
  2892  0008E2  0E2D               	movlw	45
  2893  0008E4  6F70               	movwf	_efgtoa$1001& (0+255),b
  2894  0008E6                     l3881:
  2895                           
  2896                           ; BSR set to: 0
  2897  0008E6  C070  F10A         	movff	_efgtoa$1001,_dbuf
  2898  0008EA                     
  2899                           ; BSR set to: 0
  2900                           ;C:\Program Files\Microchip\xc8\v2.20\pic\sources\c99\common\doprnt.c: 338:         ++n;
  2901  0008EA  4B9E               	infsnz	efgtoa@n& (0+255),f,b
  2902  0008EC  2B9F               	incf	(efgtoa@n+1)& (0+255),f,b
  2903  0008EE                     
  2904                           ; BSR set to: 0
  2905                           ;C:\Program Files\Microchip\xc8\v2.20\pic\sources\c99\common\doprnt.c: 339:         --w;
  2906  0008EE  078B               	decf	efgtoa@w& (0+255),f,b
  2907  0008F0  A0D8               	btfss	status,0,c
  2908  0008F2  078C               	decf	(efgtoa@w+1)& (0+255),f,b
  2909  0008F4                     l3887:
  2910                           
  2911                           ; BSR set to: 0
  2912                           ;C:\Program Files\Microchip\xc8\v2.20\pic\sources\c99\common\doprnt.c: 344:         if (
      +                          (0 ? isupper((int)c) : ((unsigned)((int)c)-'A') < 26)) {
  2913  0008F4  C098  F001         	movff	efgtoa@g,___fpclassifyf@x
  2914  0008F8  C099  F002         	movff	efgtoa@g+1,___fpclassifyf@x+1
  2915  0008FC  C09A  F003         	movff	efgtoa@g+2,___fpclassifyf@x+2
  2916  000900  C09B  F004         	movff	efgtoa@g+3,___fpclassifyf@x+3
  2917  000904  EC8E  F01B         	call	___fpclassifyf	;wreg free
  2918  000908  0401               	decf	?___fpclassifyf^0,w,c
  2919  00090A  1002               	iorwf	(?___fpclassifyf+1)^0,w,c
  2920  00090C  A4D8               	btfss	status,2,c
  2921  00090E  EF8B  F004         	goto	u4611
  2922  000912  EF8D  F004         	goto	u4610
  2923  000916                     u4611:
  2924  000916  EFE4  F004         	goto	l3905
  2925  00091A                     u4610:
  2926  00091A  0EBF               	movlw	191
  2927  00091C  0100               	movlb	0	; () banked
  2928  00091E  6F67               	movwf	??_efgtoa& (0+255),b
  2929  000920  0EFF               	movlw	255
  2930  000922  6F68               	movwf	(??_efgtoa+1)& (0+255),b
  2931  000924  5166               	movf	efgtoa@c& (0+255),w,b
  2932  000926  6F69               	movwf	(??_efgtoa+2)& (0+255),b
  2933  000928  6B6A               	clrf	(??_efgtoa+3)& (0+255),b
  2934  00092A  5167               	movf	??_efgtoa& (0+255),w,b
  2935  00092C  2769               	addwf	(??_efgtoa+2)& (0+255),f,b
  2936  00092E  5168               	movf	(??_efgtoa+1)& (0+255),w,b
  2937  000930  236A               	addwfc	(??_efgtoa+3)& (0+255),f,b
  2938  000932  516A               	movf	(??_efgtoa+3)& (0+255),w,b
  2939  000934  E10A               	bnz	u4620
  2940  000936  0E1A               	movlw	26
  2941  000938  5D69               	subwf	(??_efgtoa+2)& (0+255),w,b
  2942  00093A  A0D8               	btfss	status,0,c
  2943  00093C  EFA2  F004         	goto	u4621
  2944  000940  EFA5  F004         	goto	u4620
  2945  000944                     u4621:
  2946  000944  0E01               	movlw	1
  2947  000946  EFA6  F004         	goto	u4630
  2948  00094A                     u4620:
  2949  00094A  0E00               	movlw	0
  2950  00094C                     u4630:
  2951  00094C  6F72               	movwf	_efgtoa$1002& (0+255),b
  2952  00094E  6B73               	clrf	(_efgtoa$1002+1)& (0+255),b
  2953  000950                     
  2954                           ; BSR set to: 0
  2955  000950  5172               	movf	_efgtoa$1002& (0+255),w,b
  2956  000952  1173               	iorwf	(_efgtoa$1002+1)& (0+255),w,b
  2957  000954  B4D8               	btfsc	status,2,c
  2958  000956  EFAF  F004         	goto	u4641
  2959  00095A  EFB1  F004         	goto	u4640
  2960  00095E                     u4641:
  2961  00095E  EFBF  F004         	goto	l3897
  2962  000962                     u4640:
  2963  000962                     
  2964                           ; BSR set to: 0
  2965                           ;C:\Program Files\Microchip\xc8\v2.20\pic\sources\c99\common\doprnt.c: 345:             
      +                          strcpy(&dbuf[n], "INF");
  2966  000962  0E0A               	movlw	low _dbuf
  2967  000964  259E               	addwf	efgtoa@n& (0+255),w,b
  2968  000966  6E01               	movwf	strcpy@dest^0,c
  2969  000968  0E01               	movlw	high _dbuf
  2970  00096A  219F               	addwfc	(efgtoa@n+1)& (0+255),w,b
  2971  00096C  6E02               	movwf	(strcpy@dest+1)^0,c
  2972  00096E  0E21               	movlw	low STR_9
  2973  000970  6E03               	movwf	strcpy@src^0,c
  2974  000972  0E08               	movlw	high STR_9
  2975  000974  6E04               	movwf	(strcpy@src+1)^0,c
  2976  000976  ECE3  F01E         	call	_strcpy	;wreg free
  2977                           
  2978                           ;C:\Program Files\Microchip\xc8\v2.20\pic\sources\c99\common\doprnt.c: 346:         } el
      +                          se {
  2979  00097A  EFCB  F004         	goto	l3899
  2980  00097E                     l3897:
  2981                           
  2982                           ; BSR set to: 0
  2983                           ;C:\Program Files\Microchip\xc8\v2.20\pic\sources\c99\common\doprnt.c: 347:             
      +                          strcpy(&dbuf[n], "inf");
  2984  00097E  0E0A               	movlw	low _dbuf
  2985  000980  259E               	addwf	efgtoa@n& (0+255),w,b
  2986  000982  6E01               	movwf	strcpy@dest^0,c
  2987  000984  0E01               	movlw	high _dbuf
  2988  000986  219F               	addwfc	(efgtoa@n+1)& (0+255),w,b
  2989  000988  6E02               	movwf	(strcpy@dest+1)^0,c
  2990  00098A  0E29               	movlw	low STR_10
  2991  00098C  6E03               	movwf	strcpy@src^0,c
  2992  00098E  0E08               	movlw	high STR_10
  2993  000990  6E04               	movwf	(strcpy@src+1)^0,c
  2994  000992  ECE3  F01E         	call	_strcpy	;wreg free
  2995  000996                     l3899:
  2996                           
  2997                           ;C:\Program Files\Microchip\xc8\v2.20\pic\sources\c99\common\doprnt.c: 349:         w -=
      +                           ((sizeof("inf")/sizeof("inf"[0]))-1);
  2998  000996  0100               	movlb	0	; () banked
  2999  000998  0EFD               	movlw	253
  3000  00099A  278B               	addwf	efgtoa@w& (0+255),f,b
  3001  00099C  0EFF               	movlw	255
  3002  00099E  238C               	addwfc	(efgtoa@w+1)& (0+255),f,b
  3003  0009A0                     l3901:
  3004                           
  3005                           ;C:\Program Files\Microchip\xc8\v2.20\pic\sources\c99\common\doprnt.c: 350:         retu
      +                          rn pad(fp, &dbuf[0], w);
  3006  0009A0  C060  F011         	movff	efgtoa@fp,pad@fp
  3007  0009A4  C061  F012         	movff	efgtoa@fp+1,pad@fp+1
  3008  0009A8  0E0A               	movlw	low _dbuf
  3009  0009AA  6E13               	movwf	pad@buf^0,c
  3010  0009AC  0E01               	movlw	high _dbuf
  3011  0009AE  6E14               	movwf	(pad@buf+1)^0,c
  3012  0009B0  C08B  F015         	movff	efgtoa@w,pad@p
  3013  0009B4  C08C  F016         	movff	efgtoa@w+1,pad@p+1
  3014  0009B8  ECDD  F01C         	call	_pad	;wreg free
  3015  0009BC  C011  F060         	movff	?_pad,?_efgtoa
  3016  0009C0  C012  F061         	movff	?_pad+1,?_efgtoa+1
  3017  0009C4  EFF4  F009         	goto	l901
  3018  0009C8                     l3905:
  3019                           
  3020                           ;C:\Program Files\Microchip\xc8\v2.20\pic\sources\c99\common\doprnt.c: 353:         if (
      +                          (0 ? isupper((int)c) : ((unsigned)((int)c)-'A') < 26)) {
  3021  0009C8  C098  F001         	movff	efgtoa@g,___fpclassifyf@x
  3022  0009CC  C099  F002         	movff	efgtoa@g+1,___fpclassifyf@x+1
  3023  0009D0  C09A  F003         	movff	efgtoa@g+2,___fpclassifyf@x+2
  3024  0009D4  C09B  F004         	movff	efgtoa@g+3,___fpclassifyf@x+3
  3025  0009D8  EC8E  F01B         	call	___fpclassifyf	;wreg free
  3026  0009DC  5001               	movf	?___fpclassifyf^0,w,c
  3027  0009DE  1002               	iorwf	(?___fpclassifyf+1)^0,w,c
  3028  0009E0  A4D8               	btfss	status,2,c
  3029  0009E2  EFF5  F004         	goto	u4651
  3030  0009E6  EFF7  F004         	goto	u4650
  3031  0009EA                     u4651:
  3032  0009EA  EF37  F005         	goto	l3923
  3033  0009EE                     u4650:
  3034  0009EE  0EBF               	movlw	191
  3035  0009F0  0100               	movlb	0	; () banked
  3036  0009F2  6F67               	movwf	??_efgtoa& (0+255),b
  3037  0009F4  0EFF               	movlw	255
  3038  0009F6  6F68               	movwf	(??_efgtoa+1)& (0+255),b
  3039  0009F8  5166               	movf	efgtoa@c& (0+255),w,b
  3040  0009FA  6F69               	movwf	(??_efgtoa+2)& (0+255),b
  3041  0009FC  6B6A               	clrf	(??_efgtoa+3)& (0+255),b
  3042  0009FE  5167               	movf	??_efgtoa& (0+255),w,b
  3043  000A00  2769               	addwf	(??_efgtoa+2)& (0+255),f,b
  3044  000A02  5168               	movf	(??_efgtoa+1)& (0+255),w,b
  3045  000A04  236A               	addwfc	(??_efgtoa+3)& (0+255),f,b
  3046  000A06  516A               	movf	(??_efgtoa+3)& (0+255),w,b
  3047  000A08  E10A               	bnz	u4660
  3048  000A0A  0E1A               	movlw	26
  3049  000A0C  5D69               	subwf	(??_efgtoa+2)& (0+255),w,b
  3050  000A0E  A0D8               	btfss	status,0,c
  3051  000A10  EF0C  F005         	goto	u4661
  3052  000A14  EF0F  F005         	goto	u4660
  3053  000A18                     u4661:
  3054  000A18  0E01               	movlw	1
  3055  000A1A  EF10  F005         	goto	u4670
  3056  000A1E                     u4660:
  3057  000A1E  0E00               	movlw	0
  3058  000A20                     u4670:
  3059  000A20  6F74               	movwf	_efgtoa$1006& (0+255),b
  3060  000A22  6B75               	clrf	(_efgtoa$1006+1)& (0+255),b
  3061  000A24                     
  3062                           ; BSR set to: 0
  3063  000A24  5174               	movf	_efgtoa$1006& (0+255),w,b
  3064  000A26  1175               	iorwf	(_efgtoa$1006+1)& (0+255),w,b
  3065  000A28  B4D8               	btfsc	status,2,c
  3066  000A2A  EF19  F005         	goto	u4681
  3067  000A2E  EF1B  F005         	goto	u4680
  3068  000A32                     u4681:
  3069  000A32  EF29  F005         	goto	l3915
  3070  000A36                     u4680:
  3071  000A36                     
  3072                           ; BSR set to: 0
  3073                           ;C:\Program Files\Microchip\xc8\v2.20\pic\sources\c99\common\doprnt.c: 354:             
      +                          strcpy(&dbuf[n], "NAN");
  3074  000A36  0E0A               	movlw	low _dbuf
  3075  000A38  259E               	addwf	efgtoa@n& (0+255),w,b
  3076  000A3A  6E01               	movwf	strcpy@dest^0,c
  3077  000A3C  0E01               	movlw	high _dbuf
  3078  000A3E  219F               	addwfc	(efgtoa@n+1)& (0+255),w,b
  3079  000A40  6E02               	movwf	(strcpy@dest+1)^0,c
  3080  000A42  0E25               	movlw	low STR_13
  3081  000A44  6E03               	movwf	strcpy@src^0,c
  3082  000A46  0E08               	movlw	high STR_13
  3083  000A48  6E04               	movwf	(strcpy@src+1)^0,c
  3084  000A4A  ECE3  F01E         	call	_strcpy	;wreg free
  3085                           
  3086                           ;C:\Program Files\Microchip\xc8\v2.20\pic\sources\c99\common\doprnt.c: 355:         } el
      +                          se {
  3087  000A4E  EFCB  F004         	goto	l3899
  3088  000A52                     l3915:
  3089                           
  3090                           ; BSR set to: 0
  3091                           ;C:\Program Files\Microchip\xc8\v2.20\pic\sources\c99\common\doprnt.c: 356:             
      +                          strcpy(&dbuf[n], "nan");
  3092  000A52  0E0A               	movlw	low _dbuf
  3093  000A54  259E               	addwf	efgtoa@n& (0+255),w,b
  3094  000A56  6E01               	movwf	strcpy@dest^0,c
  3095  000A58  0E01               	movlw	high _dbuf
  3096  000A5A  219F               	addwfc	(efgtoa@n+1)& (0+255),w,b
  3097  000A5C  6E02               	movwf	(strcpy@dest+1)^0,c
  3098  000A5E  0E2D               	movlw	low STR_14
  3099  000A60  6E03               	movwf	strcpy@src^0,c
  3100  000A62  0E08               	movlw	high STR_14
  3101  000A64  6E04               	movwf	(strcpy@src+1)^0,c
  3102  000A66  ECE3  F01E         	call	_strcpy	;wreg free
  3103  000A6A  EFCB  F004         	goto	l3899
  3104  000A6E                     l3923:
  3105                           
  3106                           ;C:\Program Files\Microchip\xc8\v2.20\pic\sources\c99\common\doprnt.c: 363:     u = 1.0;
  3107  000A6E  0E00               	movlw	0
  3108  000A70  0100               	movlb	0	; () banked
  3109  000A72  6FA0               	movwf	efgtoa@u& (0+255),b
  3110  000A74  0E00               	movlw	0
  3111  000A76  6FA1               	movwf	(efgtoa@u+1)& (0+255),b
  3112  000A78  0E80               	movlw	128
  3113  000A7A  6FA2               	movwf	(efgtoa@u+2)& (0+255),b
  3114  000A7C  0E3F               	movlw	63
  3115  000A7E  6FA3               	movwf	(efgtoa@u+3)& (0+255),b
  3116                           
  3117                           ;C:\Program Files\Microchip\xc8\v2.20\pic\sources\c99\common\doprnt.c: 364:     e = 0;
  3118  000A80  0E00               	movlw	0
  3119  000A82  6F9D               	movwf	(efgtoa@e+1)& (0+255),b
  3120  000A84  0E00               	movlw	0
  3121  000A86  6F9C               	movwf	efgtoa@e& (0+255),b
  3122  000A88                     
  3123                           ; BSR set to: 0
  3124                           ;C:\Program Files\Microchip\xc8\v2.20\pic\sources\c99\common\doprnt.c: 365:     if (!(g 
      +                          == 0.0)) {
  3125  000A88  C098  F001         	movff	efgtoa@g,___fleq@ff1
  3126  000A8C  C099  F002         	movff	efgtoa@g+1,___fleq@ff1+1
  3127  000A90  C09A  F003         	movff	efgtoa@g+2,___fleq@ff1+2
  3128  000A94  C09B  F004         	movff	efgtoa@g+3,___fleq@ff1+3
  3129  000A98  0E00               	movlw	0
  3130  000A9A  6E05               	movwf	___fleq@ff2^0,c
  3131  000A9C  0E00               	movlw	0
  3132  000A9E  6E06               	movwf	(___fleq@ff2+1)^0,c
  3133  000AA0  0E00               	movlw	0
  3134  000AA2  6E07               	movwf	(___fleq@ff2+2)^0,c
  3135  000AA4  0E00               	movlw	0
  3136  000AA6  6E08               	movwf	(___fleq@ff2+3)^0,c
  3137  000AA8  ECFA  F01D         	call	___fleq	;wreg free
  3138  000AAC  B0D8               	btfsc	status,0,c
  3139  000AAE  EF5B  F005         	goto	u4691
  3140  000AB2  EF5D  F005         	goto	u4690
  3141  000AB6                     u4691:
  3142  000AB6  EFE0  F005         	goto	l3941
  3143  000ABA                     u4690:
  3144  000ABA  EF7C  F005         	goto	l3933
  3145  000ABE                     l3929:
  3146                           
  3147                           ;C:\Program Files\Microchip\xc8\v2.20\pic\sources\c99\common\doprnt.c: 367:             
      +                          u = u*10.0;
  3148  000ABE  C0A0  F02E         	movff	efgtoa@u,___flmul@b
  3149  000AC2  C0A1  F02F         	movff	efgtoa@u+1,___flmul@b+1
  3150  000AC6  C0A2  F030         	movff	efgtoa@u+2,___flmul@b+2
  3151  000ACA  C0A3  F031         	movff	efgtoa@u+3,___flmul@b+3
  3152  000ACE  0E00               	movlw	0
  3153  000AD0  6E32               	movwf	___flmul@a^0,c
  3154  000AD2  0E00               	movlw	0
  3155  000AD4  6E33               	movwf	(___flmul@a+1)^0,c
  3156  000AD6  0E20               	movlw	32
  3157  000AD8  6E34               	movwf	(___flmul@a+2)^0,c
  3158  000ADA  0E41               	movlw	65
  3159  000ADC  6E35               	movwf	(___flmul@a+3)^0,c
  3160  000ADE  EC6F  F00F         	call	___flmul	;wreg free
  3161  000AE2  C02E  F0A0         	movff	?___flmul,efgtoa@u
  3162  000AE6  C02F  F0A1         	movff	?___flmul+1,efgtoa@u+1
  3163  000AEA  C030  F0A2         	movff	?___flmul+2,efgtoa@u+2
  3164  000AEE  C031  F0A3         	movff	?___flmul+3,efgtoa@u+3
  3165  000AF2                     
  3166                           ;C:\Program Files\Microchip\xc8\v2.20\pic\sources\c99\common\doprnt.c: 368:             
      +                          ++e;
  3167  000AF2  0100               	movlb	0	; () banked
  3168  000AF4  4B9C               	infsnz	efgtoa@e& (0+255),f,b
  3169  000AF6  2B9D               	incf	(efgtoa@e+1)& (0+255),f,b
  3170  000AF8                     l3933:
  3171                           
  3172                           ;C:\Program Files\Microchip\xc8\v2.20\pic\sources\c99\common\doprnt.c: 366:         whil
      +                          e (!(g < (u*10.0))) {
  3173  000AF8  C098  F047         	movff	efgtoa@g,___flge@ff1
  3174  000AFC  C099  F048         	movff	efgtoa@g+1,___flge@ff1+1
  3175  000B00  C09A  F049         	movff	efgtoa@g+2,___flge@ff1+2
  3176  000B04  C09B  F04A         	movff	efgtoa@g+3,___flge@ff1+3
  3177  000B08  0E00               	movlw	0
  3178  000B0A  6E32               	movwf	___flmul@a^0,c
  3179  000B0C  0E00               	movlw	0
  3180  000B0E  6E33               	movwf	(___flmul@a+1)^0,c
  3181  000B10  0E20               	movlw	32
  3182  000B12  6E34               	movwf	(___flmul@a+2)^0,c
  3183  000B14  0E41               	movlw	65
  3184  000B16  6E35               	movwf	(___flmul@a+3)^0,c
  3185  000B18  C0A0  F02E         	movff	efgtoa@u,___flmul@b
  3186  000B1C  C0A1  F02F         	movff	efgtoa@u+1,___flmul@b+1
  3187  000B20  C0A2  F030         	movff	efgtoa@u+2,___flmul@b+2
  3188  000B24  C0A3  F031         	movff	efgtoa@u+3,___flmul@b+3
  3189  000B28  EC6F  F00F         	call	___flmul	;wreg free
  3190  000B2C  C02E  F04B         	movff	?___flmul,___flge@ff2
  3191  000B30  C02F  F04C         	movff	?___flmul+1,___flge@ff2+1
  3192  000B34  C030  F04D         	movff	?___flmul+2,___flge@ff2+2
  3193  000B38  C031  F04E         	movff	?___flmul+3,___flge@ff2+3
  3194  000B3C  EC0C  F01B         	call	___flge	;wreg free
  3195  000B40  B0D8               	btfsc	status,0,c
  3196  000B42  EFA5  F005         	goto	u4701
  3197  000B46  EFA7  F005         	goto	u4700
  3198  000B4A                     u4701:
  3199  000B4A  EF5F  F005         	goto	l3929
  3200  000B4E                     u4700:
  3201  000B4E  EFC7  F005         	goto	l3939
  3202  000B52                     l3935:
  3203                           
  3204                           ;C:\Program Files\Microchip\xc8\v2.20\pic\sources\c99\common\doprnt.c: 371:             
      +                          u = u/10.0;
  3205  000B52  C0A0  F015         	movff	efgtoa@u,___fldiv@b
  3206  000B56  C0A1  F016         	movff	efgtoa@u+1,___fldiv@b+1
  3207  000B5A  C0A2  F017         	movff	efgtoa@u+2,___fldiv@b+2
  3208  000B5E  C0A3  F018         	movff	efgtoa@u+3,___fldiv@b+3
  3209  000B62  0E00               	movlw	0
  3210  000B64  6E19               	movwf	___fldiv@a^0,c
  3211  000B66  0E00               	movlw	0
  3212  000B68  6E1A               	movwf	(___fldiv@a+1)^0,c
  3213  000B6A  0E20               	movlw	32
  3214  000B6C  6E1B               	movwf	(___fldiv@a+2)^0,c
  3215  000B6E  0E41               	movlw	65
  3216  000B70  6E1C               	movwf	(___fldiv@a+3)^0,c
  3217  000B72  EC84  F011         	call	___fldiv	;wreg free
  3218  000B76  C015  F0A0         	movff	?___fldiv,efgtoa@u
  3219  000B7A  C016  F0A1         	movff	?___fldiv+1,efgtoa@u+1
  3220  000B7E  C017  F0A2         	movff	?___fldiv+2,efgtoa@u+2
  3221  000B82  C018  F0A3         	movff	?___fldiv+3,efgtoa@u+3
  3222  000B86                     
  3223                           ;C:\Program Files\Microchip\xc8\v2.20\pic\sources\c99\common\doprnt.c: 372:             
      +                          --e;
  3224  000B86  0100               	movlb	0	; () banked
  3225  000B88  079C               	decf	efgtoa@e& (0+255),f,b
  3226  000B8A  A0D8               	btfss	status,0,c
  3227  000B8C  079D               	decf	(efgtoa@e+1)& (0+255),f,b
  3228  000B8E                     l3939:
  3229                           
  3230                           ;C:\Program Files\Microchip\xc8\v2.20\pic\sources\c99\common\doprnt.c: 370:         whil
      +                          e (g < u) {
  3231  000B8E  C098  F047         	movff	efgtoa@g,___flge@ff1
  3232  000B92  C099  F048         	movff	efgtoa@g+1,___flge@ff1+1
  3233  000B96  C09A  F049         	movff	efgtoa@g+2,___flge@ff1+2
  3234  000B9A  C09B  F04A         	movff	efgtoa@g+3,___flge@ff1+3
  3235  000B9E  C0A0  F04B         	movff	efgtoa@u,___flge@ff2
  3236  000BA2  C0A1  F04C         	movff	efgtoa@u+1,___flge@ff2+1
  3237  000BA6  C0A2  F04D         	movff	efgtoa@u+2,___flge@ff2+2
  3238  000BAA  C0A3  F04E         	movff	efgtoa@u+3,___flge@ff2+3
  3239  000BAE  EC0C  F01B         	call	___flge	;wreg free
  3240  000BB2  A0D8               	btfss	status,0,c
  3241  000BB4  EFDE  F005         	goto	u4711
  3242  000BB8  EFE0  F005         	goto	u4710
  3243  000BBC                     u4711:
  3244  000BBC  EFA9  F005         	goto	l3935
  3245  000BC0                     u4710:
  3246  000BC0                     l3941:
  3247                           
  3248                           ;C:\Program Files\Microchip\xc8\v2.20\pic\sources\c99\common\doprnt.c: 377:     mode = t
      +                          olower((int)c);
  3249  000BC0  C066  F007         	movff	efgtoa@c,tolower@c
  3250  000BC4  6A08               	clrf	(tolower@c+1)^0,c
  3251  000BC6  EC84  F01E         	call	_tolower	;wreg free
  3252  000BCA  5007               	movf	?_tolower^0,w,c
  3253  000BCC  0100               	movlb	0	; () banked
  3254  000BCE  6F8D               	movwf	efgtoa@mode& (0+255),b
  3255  000BD0                     
  3256                           ; BSR set to: 0
  3257                           ;C:\Program Files\Microchip\xc8\v2.20\pic\sources\c99\common\doprnt.c: 378:     nmode = 
      +                          mode;
  3258  000BD0  C08D  F08A         	movff	efgtoa@mode,efgtoa@nmode
  3259  000BD4                     
  3260                           ; BSR set to: 0
  3261                           ;C:\Program Files\Microchip\xc8\v2.20\pic\sources\c99\common\doprnt.c: 379:     if (mode
      +                           == 'g') {
  3262  000BD4  0E67               	movlw	103
  3263  000BD6  198D               	xorwf	efgtoa@mode& (0+255),w,b
  3264  000BD8  A4D8               	btfss	status,2,c
  3265  000BDA  EFF1  F005         	goto	u4721
  3266  000BDE  EFF3  F005         	goto	u4720
  3267  000BE2                     u4721:
  3268  000BE2  EF19  F006         	goto	l3955
  3269  000BE6                     u4720:
  3270  000BE6                     
  3271                           ; BSR set to: 0
  3272                           ;C:\Program Files\Microchip\xc8\v2.20\pic\sources\c99\common\doprnt.c: 380:   if (prec =
      +                          = 0) {
  3273  000BE6  51F9               	movf	_prec& (0+255),w,b
  3274  000BE8  11FA               	iorwf	(_prec+1)& (0+255),w,b
  3275  000BEA  A4D8               	btfss	status,2,c
  3276  000BEC  EFFA  F005         	goto	u4731
  3277  000BF0  EFFC  F005         	goto	u4730
  3278  000BF4                     u4731:
  3279  000BF4  EF00  F006         	goto	l3951
  3280  000BF8                     u4730:
  3281  000BF8                     
  3282                           ; BSR set to: 0
  3283                           ;C:\Program Files\Microchip\xc8\v2.20\pic\sources\c99\common\doprnt.c: 381:    prec = 1;
  3284  000BF8  0E00               	movlw	0
  3285  000BFA  6FFA               	movwf	(_prec+1)& (0+255),b
  3286  000BFC  0E01               	movlw	1
  3287  000BFE  6FF9               	movwf	_prec& (0+255),b
  3288  000C00                     l3951:
  3289                           
  3290                           ; BSR set to: 0
  3291                           ;C:\Program Files\Microchip\xc8\v2.20\pic\sources\c99\common\doprnt.c: 383:         p = 
      +                          (0 < prec) ? prec : 6;
  3292  000C00  BFFA               	btfsc	(_prec+1)& (0+255),7,b
  3293  000C02  EF0D  F006         	goto	u4740
  3294  000C06  51FA               	movf	(_prec+1)& (0+255),w,b
  3295  000C08  E106               	bnz	u4741
  3296  000C0A  05F9               	decf	_prec& (0+255),w,b
  3297  000C0C  B0D8               	btfsc	status,0,c
  3298  000C0E  EF0B  F006         	goto	u4741
  3299  000C12  EF0D  F006         	goto	u4740
  3300  000C16                     u4741:
  3301  000C16  EF13  F006         	goto	l919
  3302  000C1A                     u4740:
  3303  000C1A                     l3953:
  3304                           
  3305                           ; BSR set to: 0
  3306  000C1A  0E00               	movlw	0
  3307  000C1C  6F89               	movwf	(efgtoa@p+1)& (0+255),b
  3308  000C1E  0E06               	movlw	6
  3309  000C20  6F88               	movwf	efgtoa@p& (0+255),b
  3310  000C22  EF22  F006         	goto	l3961
  3311  000C26                     l919:
  3312                           
  3313                           ; BSR set to: 0
  3314  000C26  C0F9  F088         	movff	_prec,efgtoa@p
  3315  000C2A  C0FA  F089         	movff	_prec+1,efgtoa@p+1
  3316  000C2E  EF22  F006         	goto	l3961
  3317  000C32                     l3955:
  3318                           
  3319                           ; BSR set to: 0
  3320                           ;C:\Program Files\Microchip\xc8\v2.20\pic\sources\c99\common\doprnt.c: 385:         p = 
      +                          (prec < 0) ? 6 : prec;
  3321  000C32  BFFA               	btfsc	(_prec+1)& (0+255),7,b
  3322  000C34  EF1E  F006         	goto	u4751
  3323  000C38  EF20  F006         	goto	u4750
  3324  000C3C                     u4751:
  3325  000C3C  EF0D  F006         	goto	l3953
  3326  000C40                     u4750:
  3327  000C40  EF13  F006         	goto	l919
  3328  000C44                     l3961:
  3329                           
  3330                           ; BSR set to: 0
  3331                           ;C:\Program Files\Microchip\xc8\v2.20\pic\sources\c99\common\doprnt.c: 389:     if (mode
      +                           == 'g') {
  3332  000C44  0E67               	movlw	103
  3333  000C46  198D               	xorwf	efgtoa@mode& (0+255),w,b
  3334  000C48  A4D8               	btfss	status,2,c
  3335  000C4A  EF29  F006         	goto	u4761
  3336  000C4E  EF2B  F006         	goto	u4760
  3337  000C52                     u4761:
  3338  000C52  EF5A  F006         	goto	l3971
  3339  000C56                     u4760:
  3340  000C56                     
  3341                           ; BSR set to: 0
  3342                           ;C:\Program Files\Microchip\xc8\v2.20\pic\sources\c99\common\doprnt.c: 390:         if (
      +                          !(e < -4) && !((p - 1) < e)) {
  3343  000C56  AF9D               	btfss	(efgtoa@e+1)& (0+255),7,b
  3344  000C58  EF39  F006         	goto	u4770
  3345  000C5C  0EFC               	movlw	252
  3346  000C5E  5D9C               	subwf	efgtoa@e& (0+255),w,b
  3347  000C60  0EFF               	movlw	255
  3348  000C62  599D               	subwfb	(efgtoa@e+1)& (0+255),w,b
  3349  000C64  A0D8               	btfss	status,0,c
  3350  000C66  EF37  F006         	goto	u4771
  3351  000C6A  EF39  F006         	goto	u4770
  3352  000C6E                     u4771:
  3353  000C6E  EF58  F006         	goto	l3969
  3354  000C72                     u4770:
  3355  000C72                     
  3356                           ; BSR set to: 0
  3357  000C72  0EFF               	movlw	255
  3358  000C74  6F67               	movwf	??_efgtoa& (0+255),b
  3359  000C76  0EFF               	movlw	255
  3360  000C78  6F68               	movwf	(??_efgtoa+1)& (0+255),b
  3361  000C7A  C088  F069         	movff	efgtoa@p,??_efgtoa+2
  3362  000C7E  C089  F06A         	movff	efgtoa@p+1,??_efgtoa+3
  3363  000C82  5167               	movf	??_efgtoa& (0+255),w,b
  3364  000C84  2769               	addwf	(??_efgtoa+2)& (0+255),f,b
  3365  000C86  5168               	movf	(??_efgtoa+1)& (0+255),w,b
  3366  000C88  236A               	addwfc	(??_efgtoa+3)& (0+255),f,b
  3367  000C8A  519C               	movf	efgtoa@e& (0+255),w,b
  3368  000C8C  5D69               	subwf	(??_efgtoa+2)& (0+255),w,b
  3369  000C8E  516A               	movf	(??_efgtoa+3)& (0+255),w,b
  3370  000C90  0A80               	xorlw	128
  3371  000C92  6F6B               	movwf	(??_efgtoa+4)& (0+255),b
  3372  000C94  519D               	movf	(efgtoa@e+1)& (0+255),w,b
  3373  000C96  0A80               	xorlw	128
  3374  000C98  596B               	subwfb	(??_efgtoa+4)& (0+255),w,b
  3375  000C9A  A0D8               	btfss	status,0,c
  3376  000C9C  EF52  F006         	goto	u4781
  3377  000CA0  EF54  F006         	goto	u4780
  3378  000CA4                     u4781:
  3379  000CA4  EF58  F006         	goto	l3969
  3380  000CA8                     u4780:
  3381  000CA8                     
  3382                           ; BSR set to: 0
  3383                           ;C:\Program Files\Microchip\xc8\v2.20\pic\sources\c99\common\doprnt.c: 391:             
      +                          nmode = 'f';
  3384  000CA8  0E66               	movlw	102
  3385  000CAA  6F8A               	movwf	efgtoa@nmode& (0+255),b
  3386                           
  3387                           ;C:\Program Files\Microchip\xc8\v2.20\pic\sources\c99\common\doprnt.c: 392:         } el
      +                          se {
  3388  000CAC  EF5A  F006         	goto	l3971
  3389  000CB0                     l3969:
  3390                           
  3391                           ; BSR set to: 0
  3392                           ;C:\Program Files\Microchip\xc8\v2.20\pic\sources\c99\common\doprnt.c: 393:             
      +                          nmode = 'e';
  3393  000CB0  0E65               	movlw	101
  3394  000CB2  6F8A               	movwf	efgtoa@nmode& (0+255),b
  3395  000CB4                     l3971:
  3396                           
  3397                           ; BSR set to: 0
  3398                           ;C:\Program Files\Microchip\xc8\v2.20\pic\sources\c99\common\doprnt.c: 398:     m = p;
  3399  000CB4  C088  F080         	movff	efgtoa@p,efgtoa@m
  3400  000CB8  C089  F081         	movff	efgtoa@p+1,efgtoa@m+1
  3401  000CBC                     
  3402                           ; BSR set to: 0
  3403                           ;C:\Program Files\Microchip\xc8\v2.20\pic\sources\c99\common\doprnt.c: 399:     if (!(mo
      +                          de == 'g') || ((nmode == 'f') && (e < 0))) {
  3404  000CBC  0E67               	movlw	103
  3405  000CBE  198D               	xorwf	efgtoa@mode& (0+255),w,b
  3406  000CC0  A4D8               	btfss	status,2,c
  3407  000CC2  EF65  F006         	goto	u4791
  3408  000CC6  EF67  F006         	goto	u4790
  3409  000CCA                     u4791:
  3410  000CCA  EF77  F006         	goto	l3979
  3411  000CCE                     u4790:
  3412  000CCE                     
  3413                           ; BSR set to: 0
  3414  000CCE  0E66               	movlw	102
  3415  000CD0  198A               	xorwf	efgtoa@nmode& (0+255),w,b
  3416  000CD2  A4D8               	btfss	status,2,c
  3417  000CD4  EF6E  F006         	goto	u4801
  3418  000CD8  EF70  F006         	goto	u4800
  3419  000CDC                     u4801:
  3420  000CDC  EF79  F006         	goto	l3981
  3421  000CE0                     u4800:
  3422  000CE0                     
  3423                           ; BSR set to: 0
  3424  000CE0  BF9D               	btfsc	(efgtoa@e+1)& (0+255),7,b
  3425  000CE2  EF77  F006         	goto	u4810
  3426  000CE6  EF75  F006         	goto	u4811
  3427  000CEA                     u4811:
  3428  000CEA  EF79  F006         	goto	l3981
  3429  000CEE                     u4810:
  3430  000CEE                     l3979:
  3431                           
  3432                           ; BSR set to: 0
  3433                           ;C:\Program Files\Microchip\xc8\v2.20\pic\sources\c99\common\doprnt.c: 400:         ++m;
  3434  000CEE  4B80               	infsnz	efgtoa@m& (0+255),f,b
  3435  000CF0  2B81               	incf	(efgtoa@m+1)& (0+255),f,b
  3436  000CF2                     l3981:
  3437                           
  3438                           ; BSR set to: 0
  3439                           ;C:\Program Files\Microchip\xc8\v2.20\pic\sources\c99\common\doprnt.c: 404:     if (nmod
      +                          e == 'f') {
  3440  000CF2  0E66               	movlw	102
  3441  000CF4  198A               	xorwf	efgtoa@nmode& (0+255),w,b
  3442  000CF6  A4D8               	btfss	status,2,c
  3443  000CF8  EF80  F006         	goto	u4821
  3444  000CFC  EF82  F006         	goto	u4820
  3445  000D00                     u4821:
  3446  000D00  EFA2  F006         	goto	l3991
  3447  000D04                     u4820:
  3448  000D04                     
  3449                           ; BSR set to: 0
  3450                           ;C:\Program Files\Microchip\xc8\v2.20\pic\sources\c99\common\doprnt.c: 405:         if (
      +                          e < 0) {
  3451  000D04  BF9D               	btfsc	(efgtoa@e+1)& (0+255),7,b
  3452  000D06  EF89  F006         	goto	u4830
  3453  000D0A  EF87  F006         	goto	u4831
  3454  000D0E                     u4831:
  3455  000D0E  EF95  F006         	goto	l3987
  3456  000D12                     u4830:
  3457  000D12                     
  3458                           ; BSR set to: 0
  3459                           ;C:\Program Files\Microchip\xc8\v2.20\pic\sources\c99\common\doprnt.c: 406:             
      +                          u = 1.0;
  3460  000D12  0E00               	movlw	0
  3461  000D14  6FA0               	movwf	efgtoa@u& (0+255),b
  3462  000D16  0E00               	movlw	0
  3463  000D18  6FA1               	movwf	(efgtoa@u+1)& (0+255),b
  3464  000D1A  0E80               	movlw	128
  3465  000D1C  6FA2               	movwf	(efgtoa@u+2)& (0+255),b
  3466  000D1E  0E3F               	movlw	63
  3467  000D20  6FA3               	movwf	(efgtoa@u+3)& (0+255),b
  3468                           
  3469                           ;C:\Program Files\Microchip\xc8\v2.20\pic\sources\c99\common\doprnt.c: 407:             
      +                          e = 0;
  3470  000D22  0E00               	movlw	0
  3471  000D24  6F9D               	movwf	(efgtoa@e+1)& (0+255),b
  3472  000D26  0E00               	movlw	0
  3473  000D28  6F9C               	movwf	efgtoa@e& (0+255),b
  3474  000D2A                     l3987:
  3475                           
  3476                           ; BSR set to: 0
  3477                           ;C:\Program Files\Microchip\xc8\v2.20\pic\sources\c99\common\doprnt.c: 409:         if (
      +                          !(mode == 'g')) {
  3478  000D2A  0E67               	movlw	103
  3479  000D2C  198D               	xorwf	efgtoa@mode& (0+255),w,b
  3480  000D2E  B4D8               	btfsc	status,2,c
  3481  000D30  EF9C  F006         	goto	u4841
  3482  000D34  EF9E  F006         	goto	u4840
  3483  000D38                     u4841:
  3484  000D38  EFA2  F006         	goto	l3991
  3485  000D3C                     u4840:
  3486  000D3C                     
  3487                           ; BSR set to: 0
  3488                           ;C:\Program Files\Microchip\xc8\v2.20\pic\sources\c99\common\doprnt.c: 410:             
      +                          m += e;
  3489  000D3C  519C               	movf	efgtoa@e& (0+255),w,b
  3490  000D3E  2780               	addwf	efgtoa@m& (0+255),f,b
  3491  000D40  519D               	movf	(efgtoa@e+1)& (0+255),w,b
  3492  000D42  2381               	addwfc	(efgtoa@m+1)& (0+255),f,b
  3493  000D44                     l3991:
  3494                           
  3495                           ; BSR set to: 0
  3496                           ;C:\Program Files\Microchip\xc8\v2.20\pic\sources\c99\common\doprnt.c: 415:     i = 0;
  3497  000D44  0E00               	movlw	0
  3498  000D46  6F97               	movwf	(efgtoa@i+1)& (0+255),b
  3499  000D48  0E00               	movlw	0
  3500  000D4A  6F96               	movwf	efgtoa@i& (0+255),b
  3501  000D4C                     
  3502                           ; BSR set to: 0
  3503                           ;C:\Program Files\Microchip\xc8\v2.20\pic\sources\c99\common\doprnt.c: 416:     h = g;
  3504  000D4C  C098  F08E         	movff	efgtoa@g,efgtoa@h
  3505  000D50  C099  F08F         	movff	efgtoa@g+1,efgtoa@h+1
  3506  000D54  C09A  F090         	movff	efgtoa@g+2,efgtoa@h+2
  3507  000D58  C09B  F091         	movff	efgtoa@g+3,efgtoa@h+3
  3508  000D5C                     
  3509                           ; BSR set to: 0
  3510                           ;C:\Program Files\Microchip\xc8\v2.20\pic\sources\c99\common\doprnt.c: 417:     ou = u;
  3511  000D5C  C0A0  F06C         	movff	efgtoa@u,efgtoa@ou
  3512  000D60  C0A1  F06D         	movff	efgtoa@u+1,efgtoa@ou+1
  3513  000D64  C0A2  F06E         	movff	efgtoa@u+2,efgtoa@ou+2
  3514  000D68  C0A3  F06F         	movff	efgtoa@u+3,efgtoa@ou+3
  3515                           
  3516                           ;C:\Program Files\Microchip\xc8\v2.20\pic\sources\c99\common\doprnt.c: 418:     while (i
      +                           < m) {
  3517  000D6C  EF33  F007         	goto	l4005
  3518  000D70                     l3997:
  3519                           
  3520                           ; BSR set to: 0
  3521                           ;C:\Program Files\Microchip\xc8\v2.20\pic\sources\c99\common\doprnt.c: 419:         l = 
      +                          floorf(h/u);
  3522  000D70  C08E  F015         	movff	efgtoa@h,___fldiv@b
  3523  000D74  C08F  F016         	movff	efgtoa@h+1,___fldiv@b+1
  3524  000D78  C090  F017         	movff	efgtoa@h+2,___fldiv@b+2
  3525  000D7C  C091  F018         	movff	efgtoa@h+3,___fldiv@b+3
  3526  000D80  C0A0  F019         	movff	efgtoa@u,___fldiv@a
  3527  000D84  C0A1  F01A         	movff	efgtoa@u+1,___fldiv@a+1
  3528  000D88  C0A2  F01B         	movff	efgtoa@u+2,___fldiv@a+2
  3529  000D8C  C0A3  F01C         	movff	efgtoa@u+3,___fldiv@a+3
  3530  000D90  EC84  F011         	call	___fldiv	;wreg free
  3531  000D94  C015  F02E         	movff	?___fldiv,floorf@x
  3532  000D98  C016  F02F         	movff	?___fldiv+1,floorf@x+1
  3533  000D9C  C017  F030         	movff	?___fldiv+2,floorf@x+2
  3534  000DA0  C018  F031         	movff	?___fldiv+3,floorf@x+3
  3535  000DA4  EC68  F016         	call	_floorf	;wreg free
  3536  000DA8  C02E  F092         	movff	?_floorf,efgtoa@l
  3537  000DAC  C02F  F093         	movff	?_floorf+1,efgtoa@l+1
  3538  000DB0  C030  F094         	movff	?_floorf+2,efgtoa@l+2
  3539  000DB4  C031  F095         	movff	?_floorf+3,efgtoa@l+3
  3540                           
  3541                           ;C:\Program Files\Microchip\xc8\v2.20\pic\sources\c99\common\doprnt.c: 420:         d = 
      +                          (int)l;
  3542  000DB8  C092  F047         	movff	efgtoa@l,___fltol@f1
  3543  000DBC  C093  F048         	movff	efgtoa@l+1,___fltol@f1+1
  3544  000DC0  C094  F049         	movff	efgtoa@l+2,___fltol@f1+2
  3545  000DC4  C095  F04A         	movff	efgtoa@l+3,___fltol@f1+3
  3546  000DC8  EC89  F01A         	call	___fltol	;wreg free
  3547  000DCC  C047  F084         	movff	?___fltol,efgtoa@d
  3548  000DD0  C048  F085         	movff	?___fltol+1,efgtoa@d+1
  3549  000DD4                     
  3550                           ;C:\Program Files\Microchip\xc8\v2.20\pic\sources\c99\common\doprnt.c: 421:         h -=
      +                           l*u;
  3551  000DD4  C08E  F057         	movff	efgtoa@h,___flsub@b
  3552  000DD8  C08F  F058         	movff	efgtoa@h+1,___flsub@b+1
  3553  000DDC  C090  F059         	movff	efgtoa@h+2,___flsub@b+2
  3554  000DE0  C091  F05A         	movff	efgtoa@h+3,___flsub@b+3
  3555  000DE4  C0A0  F032         	movff	efgtoa@u,___flmul@a
  3556  000DE8  C0A1  F033         	movff	efgtoa@u+1,___flmul@a+1
  3557  000DEC  C0A2  F034         	movff	efgtoa@u+2,___flmul@a+2
  3558  000DF0  C0A3  F035         	movff	efgtoa@u+3,___flmul@a+3
  3559  000DF4  C092  F02E         	movff	efgtoa@l,___flmul@b
  3560  000DF8  C093  F02F         	movff	efgtoa@l+1,___flmul@b+1
  3561  000DFC  C094  F030         	movff	efgtoa@l+2,___flmul@b+2
  3562  000E00  C095  F031         	movff	efgtoa@l+3,___flmul@b+3
  3563  000E04  EC6F  F00F         	call	___flmul	;wreg free
  3564  000E08  C02E  F05B         	movff	?___flmul,___flsub@a
  3565  000E0C  C02F  F05C         	movff	?___flmul+1,___flsub@a+1
  3566  000E10  C030  F05D         	movff	?___flmul+2,___flsub@a+2
  3567  000E14  C031  F05E         	movff	?___flmul+3,___flsub@a+3
  3568  000E18  ECFD  F01F         	call	___flsub	;wreg free
  3569  000E1C  C057  F08E         	movff	?___flsub,efgtoa@h
  3570  000E20  C058  F08F         	movff	?___flsub+1,efgtoa@h+1
  3571  000E24  C059  F090         	movff	?___flsub+2,efgtoa@h+2
  3572  000E28  C05A  F091         	movff	?___flsub+3,efgtoa@h+3
  3573  000E2C                     
  3574                           ;C:\Program Files\Microchip\xc8\v2.20\pic\sources\c99\common\doprnt.c: 422:         u = 
      +                          u/10.0;
  3575  000E2C  C0A0  F015         	movff	efgtoa@u,___fldiv@b
  3576  000E30  C0A1  F016         	movff	efgtoa@u+1,___fldiv@b+1
  3577  000E34  C0A2  F017         	movff	efgtoa@u+2,___fldiv@b+2
  3578  000E38  C0A3  F018         	movff	efgtoa@u+3,___fldiv@b+3
  3579  000E3C  0E00               	movlw	0
  3580  000E3E  6E19               	movwf	___fldiv@a^0,c
  3581  000E40  0E00               	movlw	0
  3582  000E42  6E1A               	movwf	(___fldiv@a+1)^0,c
  3583  000E44  0E20               	movlw	32
  3584  000E46  6E1B               	movwf	(___fldiv@a+2)^0,c
  3585  000E48  0E41               	movlw	65
  3586  000E4A  6E1C               	movwf	(___fldiv@a+3)^0,c
  3587  000E4C  EC84  F011         	call	___fldiv	;wreg free
  3588  000E50  C015  F0A0         	movff	?___fldiv,efgtoa@u
  3589  000E54  C016  F0A1         	movff	?___fldiv+1,efgtoa@u+1
  3590  000E58  C017  F0A2         	movff	?___fldiv+2,efgtoa@u+2
  3591  000E5C  C018  F0A3         	movff	?___fldiv+3,efgtoa@u+3
  3592  000E60                     
  3593                           ;C:\Program Files\Microchip\xc8\v2.20\pic\sources\c99\common\doprnt.c: 423:         ++i;
  3594  000E60  0100               	movlb	0	; () banked
  3595  000E62  4B96               	infsnz	efgtoa@i& (0+255),f,b
  3596  000E64  2B97               	incf	(efgtoa@i+1)& (0+255),f,b
  3597  000E66                     l4005:
  3598                           
  3599                           ; BSR set to: 0
  3600                           ;C:\Program Files\Microchip\xc8\v2.20\pic\sources\c99\common\doprnt.c: 418:     while (i
      +                           < m) {
  3601  000E66  5180               	movf	efgtoa@m& (0+255),w,b
  3602  000E68  5D96               	subwf	efgtoa@i& (0+255),w,b
  3603  000E6A  5197               	movf	(efgtoa@i+1)& (0+255),w,b
  3604  000E6C  0A80               	xorlw	128
  3605  000E6E  6F67               	movwf	??_efgtoa& (0+255),b
  3606  000E70  5181               	movf	(efgtoa@m+1)& (0+255),w,b
  3607  000E72  0A80               	xorlw	128
  3608  000E74  5967               	subwfb	??_efgtoa& (0+255),w,b
  3609  000E76  A0D8               	btfss	status,0,c
  3610  000E78  EF40  F007         	goto	u4851
  3611  000E7C  EF42  F007         	goto	u4850
  3612  000E80                     u4851:
  3613  000E80  EFB8  F006         	goto	l3997
  3614  000E84                     u4850:
  3615  000E84                     
  3616                           ; BSR set to: 0
  3617                           ;C:\Program Files\Microchip\xc8\v2.20\pic\sources\c99\common\doprnt.c: 427:     l = u*5.
      +                          0;
  3618  000E84  C0A0  F02E         	movff	efgtoa@u,___flmul@b
  3619  000E88  C0A1  F02F         	movff	efgtoa@u+1,___flmul@b+1
  3620  000E8C  C0A2  F030         	movff	efgtoa@u+2,___flmul@b+2
  3621  000E90  C0A3  F031         	movff	efgtoa@u+3,___flmul@b+3
  3622  000E94  0E00               	movlw	0
  3623  000E96  6E32               	movwf	___flmul@a^0,c
  3624  000E98  0E00               	movlw	0
  3625  000E9A  6E33               	movwf	(___flmul@a+1)^0,c
  3626  000E9C  0EA0               	movlw	160
  3627  000E9E  6E34               	movwf	(___flmul@a+2)^0,c
  3628  000EA0  0E40               	movlw	64
  3629  000EA2  6E35               	movwf	(___flmul@a+3)^0,c
  3630  000EA4  EC6F  F00F         	call	___flmul	;wreg free
  3631  000EA8  C02E  F092         	movff	?___flmul,efgtoa@l
  3632  000EAC  C02F  F093         	movff	?___flmul+1,efgtoa@l+1
  3633  000EB0  C030  F094         	movff	?___flmul+2,efgtoa@l+2
  3634  000EB4  C031  F095         	movff	?___flmul+3,efgtoa@l+3
  3635  000EB8                     
  3636                           ;C:\Program Files\Microchip\xc8\v2.20\pic\sources\c99\common\doprnt.c: 428:     if (h < 
      +                          l) {
  3637  000EB8  C08E  F047         	movff	efgtoa@h,___flge@ff1
  3638  000EBC  C08F  F048         	movff	efgtoa@h+1,___flge@ff1+1
  3639  000EC0  C090  F049         	movff	efgtoa@h+2,___flge@ff1+2
  3640  000EC4  C091  F04A         	movff	efgtoa@h+3,___flge@ff1+3
  3641  000EC8  C092  F04B         	movff	efgtoa@l,___flge@ff2
  3642  000ECC  C093  F04C         	movff	efgtoa@l+1,___flge@ff2+1
  3643  000ED0  C094  F04D         	movff	efgtoa@l+2,___flge@ff2+2
  3644  000ED4  C095  F04E         	movff	efgtoa@l+3,___flge@ff2+3
  3645  000ED8  EC0C  F01B         	call	___flge	;wreg free
  3646  000EDC  B0D8               	btfsc	status,0,c
  3647  000EDE  EF73  F007         	goto	u4861
  3648  000EE2  EF75  F007         	goto	u4860
  3649  000EE6                     u4861:
  3650  000EE6  EF80  F007         	goto	l4013
  3651  000EEA                     u4860:
  3652  000EEA                     
  3653                           ;C:\Program Files\Microchip\xc8\v2.20\pic\sources\c99\common\doprnt.c: 429:         l = 
      +                          0.0;
  3654  000EEA  0E00               	movlw	0
  3655  000EEC  0100               	movlb	0	; () banked
  3656  000EEE  6F92               	movwf	efgtoa@l& (0+255),b
  3657  000EF0  0E00               	movlw	0
  3658  000EF2  6F93               	movwf	(efgtoa@l+1)& (0+255),b
  3659  000EF4  0E00               	movlw	0
  3660  000EF6  6F94               	movwf	(efgtoa@l+2)& (0+255),b
  3661  000EF8  0E00               	movlw	0
  3662  000EFA  6F95               	movwf	(efgtoa@l+3)& (0+255),b
  3663                           
  3664                           ;C:\Program Files\Microchip\xc8\v2.20\pic\sources\c99\common\doprnt.c: 430:     } else {
  3665  000EFC  EFA9  F007         	goto	l4019
  3666  000F00                     l4013:
  3667                           
  3668                           ;C:\Program Files\Microchip\xc8\v2.20\pic\sources\c99\common\doprnt.c: 432:         if (
      +                          (h == l) && !(d % 2)) {
  3669  000F00  C08E  F001         	movff	efgtoa@h,___fleq@ff1
  3670  000F04  C08F  F002         	movff	efgtoa@h+1,___fleq@ff1+1
  3671  000F08  C090  F003         	movff	efgtoa@h+2,___fleq@ff1+2
  3672  000F0C  C091  F004         	movff	efgtoa@h+3,___fleq@ff1+3
  3673  000F10  C092  F005         	movff	efgtoa@l,___fleq@ff2
  3674  000F14  C093  F006         	movff	efgtoa@l+1,___fleq@ff2+1
  3675  000F18  C094  F007         	movff	efgtoa@l+2,___fleq@ff2+2
  3676  000F1C  C095  F008         	movff	efgtoa@l+3,___fleq@ff2+3
  3677  000F20  ECFA  F01D         	call	___fleq	;wreg free
  3678  000F24  A0D8               	btfss	status,0,c
  3679  000F26  EF97  F007         	goto	u4871
  3680  000F2A  EF99  F007         	goto	u4870
  3681  000F2E                     u4871:
  3682  000F2E  EFA9  F007         	goto	l4019
  3683  000F32                     u4870:
  3684  000F32  0100               	movlb	0	; () banked
  3685  000F34  B184               	btfsc	efgtoa@d& (0+255),0,b
  3686  000F36  EF9F  F007         	goto	u4881
  3687  000F3A  EFA1  F007         	goto	u4880
  3688  000F3E                     u4881:
  3689  000F3E  EFA9  F007         	goto	l4019
  3690  000F42                     u4880:
  3691  000F42                     
  3692                           ; BSR set to: 0
  3693                           ;C:\Program Files\Microchip\xc8\v2.20\pic\sources\c99\common\doprnt.c: 433:             
      +                          l = 0.0;
  3694  000F42  0E00               	movlw	0
  3695  000F44  6F92               	movwf	efgtoa@l& (0+255),b
  3696  000F46  0E00               	movlw	0
  3697  000F48  6F93               	movwf	(efgtoa@l+1)& (0+255),b
  3698  000F4A  0E00               	movlw	0
  3699  000F4C  6F94               	movwf	(efgtoa@l+2)& (0+255),b
  3700  000F4E  0E00               	movlw	0
  3701  000F50  6F95               	movwf	(efgtoa@l+3)& (0+255),b
  3702  000F52                     l4019:
  3703                           
  3704                           ;C:\Program Files\Microchip\xc8\v2.20\pic\sources\c99\common\doprnt.c: 438:     h = g + 
      +                          l;
  3705  000F52  C098  F047         	movff	efgtoa@g,___fladd@b
  3706  000F56  C099  F048         	movff	efgtoa@g+1,___fladd@b+1
  3707  000F5A  C09A  F049         	movff	efgtoa@g+2,___fladd@b+2
  3708  000F5E  C09B  F04A         	movff	efgtoa@g+3,___fladd@b+3
  3709  000F62  C092  F04B         	movff	efgtoa@l,___fladd@a
  3710  000F66  C093  F04C         	movff	efgtoa@l+1,___fladd@a+1
  3711  000F6A  C094  F04D         	movff	efgtoa@l+2,___fladd@a+2
  3712  000F6E  C095  F04E         	movff	efgtoa@l+3,___fladd@a+3
  3713  000F72  EC0F  F00D         	call	___fladd	;wreg free
  3714  000F76  C047  F08E         	movff	?___fladd,efgtoa@h
  3715  000F7A  C048  F08F         	movff	?___fladd+1,efgtoa@h+1
  3716  000F7E  C049  F090         	movff	?___fladd+2,efgtoa@h+2
  3717  000F82  C04A  F091         	movff	?___fladd+3,efgtoa@h+3
  3718  000F86                     
  3719                           ;C:\Program Files\Microchip\xc8\v2.20\pic\sources\c99\common\doprnt.c: 441:     u = ou;
  3720  000F86  C06C  F0A0         	movff	efgtoa@ou,efgtoa@u
  3721  000F8A  C06D  F0A1         	movff	efgtoa@ou+1,efgtoa@u+1
  3722  000F8E  C06E  F0A2         	movff	efgtoa@ou+2,efgtoa@u+2
  3723  000F92  C06F  F0A3         	movff	efgtoa@ou+3,efgtoa@u+3
  3724  000F96                     
  3725                           ;C:\Program Files\Microchip\xc8\v2.20\pic\sources\c99\common\doprnt.c: 442:     ne = (nm
      +                          ode == 'e') ? 0 : e;
  3726  000F96  0E65               	movlw	101
  3727  000F98  0100               	movlb	0	; () banked
  3728  000F9A  198A               	xorwf	efgtoa@nmode& (0+255),w,b
  3729  000F9C  B4D8               	btfsc	status,2,c
  3730  000F9E  EFD3  F007         	goto	u4891
  3731  000FA2  EFD5  F007         	goto	u4890
  3732  000FA6                     u4891:
  3733  000FA6  EFDB  F007         	goto	l4027
  3734  000FAA                     u4890:
  3735  000FAA                     
  3736                           ; BSR set to: 0
  3737  000FAA  C09C  F082         	movff	efgtoa@e,efgtoa@ne
  3738  000FAE  C09D  F083         	movff	efgtoa@e+1,efgtoa@ne+1
  3739  000FB2  EFDF  F007         	goto	l945
  3740  000FB6                     l4027:
  3741                           
  3742                           ; BSR set to: 0
  3743  000FB6  0E00               	movlw	0
  3744  000FB8  6F83               	movwf	(efgtoa@ne+1)& (0+255),b
  3745  000FBA  0E00               	movlw	0
  3746  000FBC  6F82               	movwf	efgtoa@ne& (0+255),b
  3747  000FBE                     l945:
  3748                           
  3749                           ; BSR set to: 0
  3750                           ;C:\Program Files\Microchip\xc8\v2.20\pic\sources\c99\common\doprnt.c: 443:     pp = 0;
  3751  000FBE  0E00               	movlw	0
  3752  000FC0  6F7F               	movwf	(efgtoa@pp+1)& (0+255),b
  3753  000FC2  0E00               	movlw	0
  3754  000FC4  6F7E               	movwf	efgtoa@pp& (0+255),b
  3755                           
  3756                           ;C:\Program Files\Microchip\xc8\v2.20\pic\sources\c99\common\doprnt.c: 444:     t = 0;
  3757  000FC6  0E00               	movlw	0
  3758  000FC8  6F7D               	movwf	(efgtoa@t+1)& (0+255),b
  3759  000FCA  0E00               	movlw	0
  3760  000FCC  6F7C               	movwf	efgtoa@t& (0+255),b
  3761                           
  3762                           ;C:\Program Files\Microchip\xc8\v2.20\pic\sources\c99\common\doprnt.c: 445:     i = 0;
  3763  000FCE  0E00               	movlw	0
  3764  000FD0  6F97               	movwf	(efgtoa@i+1)& (0+255),b
  3765  000FD2  0E00               	movlw	0
  3766  000FD4  6F96               	movwf	efgtoa@i& (0+255),b
  3767                           
  3768                           ;C:\Program Files\Microchip\xc8\v2.20\pic\sources\c99\common\doprnt.c: 446:     while ((
      +                          i < m) && (n < (80 - 5))) {
  3769  000FD6  EFDA  F008         	goto	l4077
  3770  000FDA                     l4029:
  3771                           
  3772                           ; BSR set to: 0
  3773                           ;C:\Program Files\Microchip\xc8\v2.20\pic\sources\c99\common\doprnt.c: 447:         l = 
      +                          floorf(h/u);
  3774  000FDA  C08E  F015         	movff	efgtoa@h,___fldiv@b
  3775  000FDE  C08F  F016         	movff	efgtoa@h+1,___fldiv@b+1
  3776  000FE2  C090  F017         	movff	efgtoa@h+2,___fldiv@b+2
  3777  000FE6  C091  F018         	movff	efgtoa@h+3,___fldiv@b+3
  3778  000FEA  C0A0  F019         	movff	efgtoa@u,___fldiv@a
  3779  000FEE  C0A1  F01A         	movff	efgtoa@u+1,___fldiv@a+1
  3780  000FF2  C0A2  F01B         	movff	efgtoa@u+2,___fldiv@a+2
  3781  000FF6  C0A3  F01C         	movff	efgtoa@u+3,___fldiv@a+3
  3782  000FFA  EC84  F011         	call	___fldiv	;wreg free
  3783  000FFE  C015  F02E         	movff	?___fldiv,floorf@x
  3784  001002  C016  F02F         	movff	?___fldiv+1,floorf@x+1
  3785  001006  C017  F030         	movff	?___fldiv+2,floorf@x+2
  3786  00100A  C018  F031         	movff	?___fldiv+3,floorf@x+3
  3787  00100E  EC68  F016         	call	_floorf	;wreg free
  3788  001012  C02E  F092         	movff	?_floorf,efgtoa@l
  3789  001016  C02F  F093         	movff	?_floorf+1,efgtoa@l+1
  3790  00101A  C030  F094         	movff	?_floorf+2,efgtoa@l+2
  3791  00101E  C031  F095         	movff	?_floorf+3,efgtoa@l+3
  3792                           
  3793                           ;C:\Program Files\Microchip\xc8\v2.20\pic\sources\c99\common\doprnt.c: 448:         d = 
      +                          (int)l;
  3794  001022  C092  F047         	movff	efgtoa@l,___fltol@f1
  3795  001026  C093  F048         	movff	efgtoa@l+1,___fltol@f1+1
  3796  00102A  C094  F049         	movff	efgtoa@l+2,___fltol@f1+2
  3797  00102E  C095  F04A         	movff	efgtoa@l+3,___fltol@f1+3
  3798  001032  EC89  F01A         	call	___fltol	;wreg free
  3799  001036  C047  F084         	movff	?___fltol,efgtoa@d
  3800  00103A  C048  F085         	movff	?___fltol+1,efgtoa@d+1
  3801  00103E                     
  3802                           ;C:\Program Files\Microchip\xc8\v2.20\pic\sources\c99\common\doprnt.c: 449:         if (
      +                          !(flags & (1 << 4)) && !d && (mode == 'g') && (ne < 0)) {
  3803  00103E  0100               	movlb	0	; () banked
  3804  001040  B9FB               	btfsc	_flags& (0+255),4,b
  3805  001042  EF25  F008         	goto	u4901
  3806  001046  EF27  F008         	goto	u4900
  3807  00104A                     u4901:
  3808  00104A  EF44  F008         	goto	l4041
  3809  00104E                     u4900:
  3810  00104E                     
  3811                           ; BSR set to: 0
  3812  00104E  5184               	movf	efgtoa@d& (0+255),w,b
  3813  001050  1185               	iorwf	(efgtoa@d+1)& (0+255),w,b
  3814  001052  A4D8               	btfss	status,2,c
  3815  001054  EF2E  F008         	goto	u4911
  3816  001058  EF30  F008         	goto	u4910
  3817  00105C                     u4911:
  3818  00105C  EF44  F008         	goto	l4041
  3819  001060                     u4910:
  3820  001060                     
  3821                           ; BSR set to: 0
  3822  001060  0E67               	movlw	103
  3823  001062  198D               	xorwf	efgtoa@mode& (0+255),w,b
  3824  001064  A4D8               	btfss	status,2,c
  3825  001066  EF37  F008         	goto	u4921
  3826  00106A  EF39  F008         	goto	u4920
  3827  00106E                     u4921:
  3828  00106E  EF44  F008         	goto	l4041
  3829  001072                     u4920:
  3830  001072                     
  3831                           ; BSR set to: 0
  3832  001072  BF83               	btfsc	(efgtoa@ne+1)& (0+255),7,b
  3833  001074  EF40  F008         	goto	u4930
  3834  001078  EF3E  F008         	goto	u4931
  3835  00107C                     u4931:
  3836  00107C  EF44  F008         	goto	l4041
  3837  001080                     u4930:
  3838  001080                     
  3839                           ; BSR set to: 0
  3840                           ;C:\Program Files\Microchip\xc8\v2.20\pic\sources\c99\common\doprnt.c: 450:             
      +                          ++t;
  3841  001080  4B7C               	infsnz	efgtoa@t& (0+255),f,b
  3842  001082  2B7D               	incf	(efgtoa@t+1)& (0+255),f,b
  3843                           
  3844                           ;C:\Program Files\Microchip\xc8\v2.20\pic\sources\c99\common\doprnt.c: 451:         } el
      +                          se {
  3845  001084  EF8E  F008         	goto	l4069
  3846  001088                     l4041:
  3847                           
  3848                           ; BSR set to: 0
  3849                           ;C:\Program Files\Microchip\xc8\v2.20\pic\sources\c99\common\doprnt.c: 452:             
      +                          if (!pp && (ne < 0)) {
  3850  001088  517E               	movf	efgtoa@pp& (0+255),w,b
  3851  00108A  117F               	iorwf	(efgtoa@pp+1)& (0+255),w,b
  3852  00108C  A4D8               	btfss	status,2,c
  3853  00108E  EF4B  F008         	goto	u4941
  3854  001092  EF4D  F008         	goto	u4940
  3855  001096                     u4941:
  3856  001096  EF77  F008         	goto	l4061
  3857  00109A                     u4940:
  3858  00109A                     
  3859                           ; BSR set to: 0
  3860  00109A  BF83               	btfsc	(efgtoa@ne+1)& (0+255),7,b
  3861  00109C  EF54  F008         	goto	u4950
  3862  0010A0  EF52  F008         	goto	u4951
  3863  0010A4                     u4951:
  3864  0010A4  EF77  F008         	goto	l4061
  3865  0010A8                     u4950:
  3866  0010A8                     
  3867                           ; BSR set to: 0
  3868                           ;C:\Program Files\Microchip\xc8\v2.20\pic\sources\c99\common\doprnt.c: 453:             
      +                              dbuf[n++] = '.';
  3869  0010A8  0E0A               	movlw	low _dbuf
  3870  0010AA  259E               	addwf	efgtoa@n& (0+255),w,b
  3871  0010AC  6ED9               	movwf	fsr2l,c
  3872  0010AE  0E01               	movlw	high _dbuf
  3873  0010B0  219F               	addwfc	(efgtoa@n+1)& (0+255),w,b
  3874  0010B2  6EDA               	movwf	fsr2h,c
  3875  0010B4  0E2E               	movlw	46
  3876  0010B6  6EDF               	movwf	indf2,c
  3877  0010B8                     
  3878                           ; BSR set to: 0
  3879  0010B8  4B9E               	infsnz	efgtoa@n& (0+255),f,b
  3880  0010BA  2B9F               	incf	(efgtoa@n+1)& (0+255),f,b
  3881  0010BC                     
  3882                           ; BSR set to: 0
  3883                           ;C:\Program Files\Microchip\xc8\v2.20\pic\sources\c99\common\doprnt.c: 454:             
      +                              --w;
  3884  0010BC  078B               	decf	efgtoa@w& (0+255),f,b
  3885  0010BE  A0D8               	btfss	status,0,c
  3886  0010C0  078C               	decf	(efgtoa@w+1)& (0+255),f,b
  3887  0010C2                     
  3888                           ; BSR set to: 0
  3889                           ;C:\Program Files\Microchip\xc8\v2.20\pic\sources\c99\common\doprnt.c: 455:             
      +                              pp = 1;
  3890  0010C2  0E00               	movlw	0
  3891  0010C4  6F7F               	movwf	(efgtoa@pp+1)& (0+255),b
  3892  0010C6  0E01               	movlw	1
  3893  0010C8  6F7E               	movwf	efgtoa@pp& (0+255),b
  3894  0010CA  EF77  F008         	goto	l4061
  3895  0010CE                     l4053:
  3896                           
  3897                           ; BSR set to: 0
  3898                           ;C:\Program Files\Microchip\xc8\v2.20\pic\sources\c99\common\doprnt.c: 458:             
      +                              dbuf[n++] = '0';
  3899  0010CE  0E0A               	movlw	low _dbuf
  3900  0010D0  259E               	addwf	efgtoa@n& (0+255),w,b
  3901  0010D2  6ED9               	movwf	fsr2l,c
  3902  0010D4  0E01               	movlw	high _dbuf
  3903  0010D6  219F               	addwfc	(efgtoa@n+1)& (0+255),w,b
  3904  0010D8  6EDA               	movwf	fsr2h,c
  3905  0010DA  0E30               	movlw	48
  3906  0010DC  6EDF               	movwf	indf2,c
  3907  0010DE                     
  3908                           ; BSR set to: 0
  3909  0010DE  4B9E               	infsnz	efgtoa@n& (0+255),f,b
  3910  0010E0  2B9F               	incf	(efgtoa@n+1)& (0+255),f,b
  3911  0010E2                     
  3912                           ; BSR set to: 0
  3913                           ;C:\Program Files\Microchip\xc8\v2.20\pic\sources\c99\common\doprnt.c: 459:             
      +                              --w;
  3914  0010E2  078B               	decf	efgtoa@w& (0+255),f,b
  3915  0010E4  A0D8               	btfss	status,0,c
  3916  0010E6  078C               	decf	(efgtoa@w+1)& (0+255),f,b
  3917  0010E8                     
  3918                           ; BSR set to: 0
  3919                           ;C:\Program Files\Microchip\xc8\v2.20\pic\sources\c99\common\doprnt.c: 460:             
      +                              --t;
  3920  0010E8  077C               	decf	efgtoa@t& (0+255),f,b
  3921  0010EA  A0D8               	btfss	status,0,c
  3922  0010EC  077D               	decf	(efgtoa@t+1)& (0+255),f,b
  3923  0010EE                     l4061:
  3924                           
  3925                           ; BSR set to: 0
  3926                           ;C:\Program Files\Microchip\xc8\v2.20\pic\sources\c99\common\doprnt.c: 457:             
      +                          while (t) {
  3927  0010EE  517C               	movf	efgtoa@t& (0+255),w,b
  3928  0010F0  117D               	iorwf	(efgtoa@t+1)& (0+255),w,b
  3929  0010F2  A4D8               	btfss	status,2,c
  3930  0010F4  EF7E  F008         	goto	u4961
  3931  0010F8  EF80  F008         	goto	u4960
  3932  0010FC                     u4961:
  3933  0010FC  EF67  F008         	goto	l4053
  3934  001100                     u4960:
  3935  001100                     
  3936                           ; BSR set to: 0
  3937                           ;C:\Program Files\Microchip\xc8\v2.20\pic\sources\c99\common\doprnt.c: 462:             
      +                          dbuf[n++] = '0' + d;
  3938  001100  0E0A               	movlw	low _dbuf
  3939  001102  259E               	addwf	efgtoa@n& (0+255),w,b
  3940  001104  6ED9               	movwf	fsr2l,c
  3941  001106  0E01               	movlw	high _dbuf
  3942  001108  219F               	addwfc	(efgtoa@n+1)& (0+255),w,b
  3943  00110A  6EDA               	movwf	fsr2h,c
  3944  00110C  5184               	movf	efgtoa@d& (0+255),w,b
  3945  00110E  0F30               	addlw	48
  3946  001110  6EDF               	movwf	indf2,c
  3947  001112                     
  3948                           ; BSR set to: 0
  3949  001112  4B9E               	infsnz	efgtoa@n& (0+255),f,b
  3950  001114  2B9F               	incf	(efgtoa@n+1)& (0+255),f,b
  3951  001116                     
  3952                           ; BSR set to: 0
  3953                           ;C:\Program Files\Microchip\xc8\v2.20\pic\sources\c99\common\doprnt.c: 463:             
      +                          --w;
  3954  001116  078B               	decf	efgtoa@w& (0+255),f,b
  3955  001118  A0D8               	btfss	status,0,c
  3956  00111A  078C               	decf	(efgtoa@w+1)& (0+255),f,b
  3957  00111C                     l4069:
  3958                           
  3959                           ; BSR set to: 0
  3960                           ;C:\Program Files\Microchip\xc8\v2.20\pic\sources\c99\common\doprnt.c: 465:         h -=
      +                           l*u;
  3961  00111C  C08E  F057         	movff	efgtoa@h,___flsub@b
  3962  001120  C08F  F058         	movff	efgtoa@h+1,___flsub@b+1
  3963  001124  C090  F059         	movff	efgtoa@h+2,___flsub@b+2
  3964  001128  C091  F05A         	movff	efgtoa@h+3,___flsub@b+3
  3965  00112C  C0A0  F032         	movff	efgtoa@u,___flmul@a
  3966  001130  C0A1  F033         	movff	efgtoa@u+1,___flmul@a+1
  3967  001134  C0A2  F034         	movff	efgtoa@u+2,___flmul@a+2
  3968  001138  C0A3  F035         	movff	efgtoa@u+3,___flmul@a+3
  3969  00113C  C092  F02E         	movff	efgtoa@l,___flmul@b
  3970  001140  C093  F02F         	movff	efgtoa@l+1,___flmul@b+1
  3971  001144  C094  F030         	movff	efgtoa@l+2,___flmul@b+2
  3972  001148  C095  F031         	movff	efgtoa@l+3,___flmul@b+3
  3973  00114C  EC6F  F00F         	call	___flmul	;wreg free
  3974  001150  C02E  F05B         	movff	?___flmul,___flsub@a
  3975  001154  C02F  F05C         	movff	?___flmul+1,___flsub@a+1
  3976  001158  C030  F05D         	movff	?___flmul+2,___flsub@a+2
  3977  00115C  C031  F05E         	movff	?___flmul+3,___flsub@a+3
  3978  001160  ECFD  F01F         	call	___flsub	;wreg free
  3979  001164  C057  F08E         	movff	?___flsub,efgtoa@h
  3980  001168  C058  F08F         	movff	?___flsub+1,efgtoa@h+1
  3981  00116C  C059  F090         	movff	?___flsub+2,efgtoa@h+2
  3982  001170  C05A  F091         	movff	?___flsub+3,efgtoa@h+3
  3983  001174                     
  3984                           ;C:\Program Files\Microchip\xc8\v2.20\pic\sources\c99\common\doprnt.c: 466:         u = 
      +                          u/10.0;
  3985  001174  C0A0  F015         	movff	efgtoa@u,___fldiv@b
  3986  001178  C0A1  F016         	movff	efgtoa@u+1,___fldiv@b+1
  3987  00117C  C0A2  F017         	movff	efgtoa@u+2,___fldiv@b+2
  3988  001180  C0A3  F018         	movff	efgtoa@u+3,___fldiv@b+3
  3989  001184  0E00               	movlw	0
  3990  001186  6E19               	movwf	___fldiv@a^0,c
  3991  001188  0E00               	movlw	0
  3992  00118A  6E1A               	movwf	(___fldiv@a+1)^0,c
  3993  00118C  0E20               	movlw	32
  3994  00118E  6E1B               	movwf	(___fldiv@a+2)^0,c
  3995  001190  0E41               	movlw	65
  3996  001192  6E1C               	movwf	(___fldiv@a+3)^0,c
  3997  001194  EC84  F011         	call	___fldiv	;wreg free
  3998  001198  C015  F0A0         	movff	?___fldiv,efgtoa@u
  3999  00119C  C016  F0A1         	movff	?___fldiv+1,efgtoa@u+1
  4000  0011A0  C017  F0A2         	movff	?___fldiv+2,efgtoa@u+2
  4001  0011A4  C018  F0A3         	movff	?___fldiv+3,efgtoa@u+3
  4002  0011A8                     
  4003                           ;C:\Program Files\Microchip\xc8\v2.20\pic\sources\c99\common\doprnt.c: 467:         --ne
      +                          ;
  4004  0011A8  0100               	movlb	0	; () banked
  4005  0011AA  0782               	decf	efgtoa@ne& (0+255),f,b
  4006  0011AC  A0D8               	btfss	status,0,c
  4007  0011AE  0783               	decf	(efgtoa@ne+1)& (0+255),f,b
  4008  0011B0                     
  4009                           ; BSR set to: 0
  4010                           ;C:\Program Files\Microchip\xc8\v2.20\pic\sources\c99\common\doprnt.c: 468:         ++i;
  4011  0011B0  4B96               	infsnz	efgtoa@i& (0+255),f,b
  4012  0011B2  2B97               	incf	(efgtoa@i+1)& (0+255),f,b
  4013  0011B4                     l4077:
  4014                           
  4015                           ; BSR set to: 0
  4016                           ;C:\Program Files\Microchip\xc8\v2.20\pic\sources\c99\common\doprnt.c: 446:     while ((
      +                          i < m) && (n < (80 - 5))) {
  4017  0011B4  5180               	movf	efgtoa@m& (0+255),w,b
  4018  0011B6  5D96               	subwf	efgtoa@i& (0+255),w,b
  4019  0011B8  5197               	movf	(efgtoa@i+1)& (0+255),w,b
  4020  0011BA  0A80               	xorlw	128
  4021  0011BC  6F67               	movwf	??_efgtoa& (0+255),b
  4022  0011BE  5181               	movf	(efgtoa@m+1)& (0+255),w,b
  4023  0011C0  0A80               	xorlw	128
  4024  0011C2  5967               	subwfb	??_efgtoa& (0+255),w,b
  4025  0011C4  B0D8               	btfsc	status,0,c
  4026  0011C6  EFE7  F008         	goto	u4971
  4027  0011CA  EFE9  F008         	goto	u4970
  4028  0011CE                     u4971:
  4029  0011CE  EFF7  F008         	goto	l4081
  4030  0011D2                     u4970:
  4031  0011D2                     
  4032                           ; BSR set to: 0
  4033  0011D2  BF9F               	btfsc	(efgtoa@n+1)& (0+255),7,b
  4034  0011D4  EFF5  F008         	goto	u4981
  4035  0011D8  519F               	movf	(efgtoa@n+1)& (0+255),w,b
  4036  0011DA  E109               	bnz	u4980
  4037  0011DC  0E4B               	movlw	75
  4038  0011DE  5D9E               	subwf	efgtoa@n& (0+255),w,b
  4039  0011E0  A0D8               	btfss	status,0,c
  4040  0011E2  EFF5  F008         	goto	u4981
  4041  0011E6  EFF7  F008         	goto	u4980
  4042  0011EA                     u4981:
  4043  0011EA  EFED  F007         	goto	l4029
  4044  0011EE                     u4980:
  4045  0011EE                     l4081:
  4046                           
  4047                           ; BSR set to: 0
  4048                           ;C:\Program Files\Microchip\xc8\v2.20\pic\sources\c99\common\doprnt.c: 470:     if (!pp 
      +                          && (flags & (1 << 4))) {
  4049  0011EE  517E               	movf	efgtoa@pp& (0+255),w,b
  4050  0011F0  117F               	iorwf	(efgtoa@pp+1)& (0+255),w,b
  4051  0011F2  A4D8               	btfss	status,2,c
  4052  0011F4  EFFE  F008         	goto	u4991
  4053  0011F8  EF00  F009         	goto	u4990
  4054  0011FC                     u4991:
  4055  0011FC  EF11  F009         	goto	l4089
  4056  001200                     u4990:
  4057  001200                     
  4058                           ; BSR set to: 0
  4059  001200  A9FB               	btfss	_flags& (0+255),4,b
  4060  001202  EF05  F009         	goto	u5001
  4061  001206  EF07  F009         	goto	u5000
  4062  00120A                     u5001:
  4063  00120A  EF11  F009         	goto	l4089
  4064  00120E                     u5000:
  4065  00120E                     
  4066                           ; BSR set to: 0
  4067                           ;C:\Program Files\Microchip\xc8\v2.20\pic\sources\c99\common\doprnt.c: 471:         dbuf
      +                          [n++] = '.';
  4068  00120E  0E0A               	movlw	low _dbuf
  4069  001210  259E               	addwf	efgtoa@n& (0+255),w,b
  4070  001212  6ED9               	movwf	fsr2l,c
  4071  001214  0E01               	movlw	high _dbuf
  4072  001216  219F               	addwfc	(efgtoa@n+1)& (0+255),w,b
  4073  001218  6EDA               	movwf	fsr2h,c
  4074  00121A  0E2E               	movlw	46
  4075  00121C  6EDF               	movwf	indf2,c
  4076  00121E                     
  4077                           ; BSR set to: 0
  4078  00121E  4B9E               	infsnz	efgtoa@n& (0+255),f,b
  4079  001220  2B9F               	incf	(efgtoa@n+1)& (0+255),f,b
  4080  001222                     l4089:
  4081                           
  4082                           ; BSR set to: 0
  4083                           ;C:\Program Files\Microchip\xc8\v2.20\pic\sources\c99\common\doprnt.c: 473:     dbuf[n] 
      +                          = '\0';
  4084  001222  0E0A               	movlw	low _dbuf
  4085  001224  259E               	addwf	efgtoa@n& (0+255),w,b
  4086  001226  6ED9               	movwf	fsr2l,c
  4087  001228  0E01               	movlw	high _dbuf
  4088  00122A  219F               	addwfc	(efgtoa@n+1)& (0+255),w,b
  4089  00122C  6EDA               	movwf	fsr2h,c
  4090  00122E  0E00               	movlw	0
  4091  001230  6EDF               	movwf	indf2,c
  4092  001232                     
  4093                           ; BSR set to: 0
  4094                           ;C:\Program Files\Microchip\xc8\v2.20\pic\sources\c99\common\doprnt.c: 476:     if (nmod
      +                          e == 'e') {
  4095  001232  0E65               	movlw	101
  4096  001234  198A               	xorwf	efgtoa@nmode& (0+255),w,b
  4097  001236  A4D8               	btfss	status,2,c
  4098  001238  EF20  F009         	goto	u5011
  4099  00123C  EF22  F009         	goto	u5010
  4100  001240                     u5011:
  4101  001240  EFD0  F004         	goto	l3901
  4102  001244                     u5010:
  4103  001244                     
  4104                           ; BSR set to: 0
  4105                           ;C:\Program Files\Microchip\xc8\v2.20\pic\sources\c99\common\doprnt.c: 477:         i = 
      +                          sizeof(dbuf) - 1;
  4106  001244  0E00               	movlw	0
  4107  001246  6F97               	movwf	(efgtoa@i+1)& (0+255),b
  4108  001248  0E4F               	movlw	79
  4109  00124A  6F96               	movwf	efgtoa@i& (0+255),b
  4110  00124C                     
  4111                           ; BSR set to: 0
  4112                           ;C:\Program Files\Microchip\xc8\v2.20\pic\sources\c99\common\doprnt.c: 478:         dbuf
      +                          [i] = '\0';
  4113  00124C  0E0A               	movlw	low _dbuf
  4114  00124E  2596               	addwf	efgtoa@i& (0+255),w,b
  4115  001250  6ED9               	movwf	fsr2l,c
  4116  001252  0E01               	movlw	high _dbuf
  4117  001254  2197               	addwfc	(efgtoa@i+1)& (0+255),w,b
  4118  001256  6EDA               	movwf	fsr2h,c
  4119  001258  0E00               	movlw	0
  4120  00125A  6EDF               	movwf	indf2,c
  4121  00125C                     
  4122                           ; BSR set to: 0
  4123                           ;C:\Program Files\Microchip\xc8\v2.20\pic\sources\c99\common\doprnt.c: 479:         sign
      +                           = 0;
  4124  00125C  0E00               	movlw	0
  4125  00125E  6F87               	movwf	(efgtoa@sign+1)& (0+255),b
  4126  001260  0E00               	movlw	0
  4127  001262  6F86               	movwf	efgtoa@sign& (0+255),b
  4128  001264                     
  4129                           ; BSR set to: 0
  4130                           ;C:\Program Files\Microchip\xc8\v2.20\pic\sources\c99\common\doprnt.c: 480:         if (
      +                          e < 0) {
  4131  001264  BF9D               	btfsc	(efgtoa@e+1)& (0+255),7,b
  4132  001266  EF39  F009         	goto	u5020
  4133  00126A  EF37  F009         	goto	u5021
  4134  00126E                     u5021:
  4135  00126E  EF41  F009         	goto	l4105
  4136  001272                     u5020:
  4137  001272                     
  4138                           ; BSR set to: 0
  4139                           ;C:\Program Files\Microchip\xc8\v2.20\pic\sources\c99\common\doprnt.c: 481:             
      +                          sign = 1;
  4140  001272  0E00               	movlw	0
  4141  001274  6F87               	movwf	(efgtoa@sign+1)& (0+255),b
  4142  001276  0E01               	movlw	1
  4143  001278  6F86               	movwf	efgtoa@sign& (0+255),b
  4144  00127A                     
  4145                           ; BSR set to: 0
  4146                           ;C:\Program Files\Microchip\xc8\v2.20\pic\sources\c99\common\doprnt.c: 482:             
      +                          e = -e;
  4147  00127A  6D9C               	negf	efgtoa@e& (0+255),b
  4148  00127C  1F9D               	comf	(efgtoa@e+1)& (0+255),f,b
  4149  00127E  B0D8               	btfsc	status,0,c
  4150  001280  2B9D               	incf	(efgtoa@e+1)& (0+255),f,b
  4151  001282                     l4105:
  4152                           
  4153                           ; BSR set to: 0
  4154                           ;C:\Program Files\Microchip\xc8\v2.20\pic\sources\c99\common\doprnt.c: 484:         p = 
      +                          2;
  4155  001282  0E00               	movlw	0
  4156  001284  6F89               	movwf	(efgtoa@p+1)& (0+255),b
  4157  001286  0E02               	movlw	2
  4158  001288  6F88               	movwf	efgtoa@p& (0+255),b
  4159                           
  4160                           ;C:\Program Files\Microchip\xc8\v2.20\pic\sources\c99\common\doprnt.c: 485:         whil
      +                          e (e || (0 < p)) {
  4161  00128A  EF72  F009         	goto	l4117
  4162  00128E                     l4107:
  4163                           
  4164                           ; BSR set to: 0
  4165                           ;C:\Program Files\Microchip\xc8\v2.20\pic\sources\c99\common\doprnt.c: 486:             
      +                          --i;
  4166  00128E  0796               	decf	efgtoa@i& (0+255),f,b
  4167  001290  A0D8               	btfss	status,0,c
  4168  001292  0797               	decf	(efgtoa@i+1)& (0+255),f,b
  4169  001294                     
  4170                           ; BSR set to: 0
  4171                           ;C:\Program Files\Microchip\xc8\v2.20\pic\sources\c99\common\doprnt.c: 487:             
      +                          dbuf[i] = '0' + (e % 10);
  4172  001294  0E0A               	movlw	low _dbuf
  4173  001296  2596               	addwf	efgtoa@i& (0+255),w,b
  4174  001298  6ED9               	movwf	fsr2l,c
  4175  00129A  0E01               	movlw	high _dbuf
  4176  00129C  2197               	addwfc	(efgtoa@i+1)& (0+255),w,b
  4177  00129E  6EDA               	movwf	fsr2h,c
  4178  0012A0  C09C  F001         	movff	efgtoa@e,___awmod@dividend
  4179  0012A4  C09D  F002         	movff	efgtoa@e+1,___awmod@dividend+1
  4180  0012A8  0E00               	movlw	0
  4181  0012AA  6E04               	movwf	(___awmod@divisor+1)^0,c
  4182  0012AC  0E0A               	movlw	10
  4183  0012AE  6E03               	movwf	___awmod@divisor^0,c
  4184  0012B0  ECA2  F01D         	call	___awmod	;wreg free
  4185  0012B4  5001               	movf	?___awmod^0,w,c
  4186  0012B6  0F30               	addlw	48
  4187  0012B8  6EDF               	movwf	indf2,c
  4188  0012BA                     
  4189                           ;C:\Program Files\Microchip\xc8\v2.20\pic\sources\c99\common\doprnt.c: 488:             
      +                          e = e / 10;
  4190  0012BA  C09C  F001         	movff	efgtoa@e,___awdiv@dividend
  4191  0012BE  C09D  F002         	movff	efgtoa@e+1,___awdiv@dividend+1
  4192  0012C2  0E00               	movlw	0
  4193  0012C4  6E04               	movwf	(___awdiv@divisor+1)^0,c
  4194  0012C6  0E0A               	movlw	10
  4195  0012C8  6E03               	movwf	___awdiv@divisor^0,c
  4196  0012CA  EC40  F01D         	call	___awdiv	;wreg free
  4197  0012CE  C001  F09C         	movff	?___awdiv,efgtoa@e
  4198  0012D2  C002  F09D         	movff	?___awdiv+1,efgtoa@e+1
  4199  0012D6                     
  4200                           ;C:\Program Files\Microchip\xc8\v2.20\pic\sources\c99\common\doprnt.c: 489:             
      +                          --p;
  4201  0012D6  0100               	movlb	0	; () banked
  4202  0012D8  0788               	decf	efgtoa@p& (0+255),f,b
  4203  0012DA  A0D8               	btfss	status,0,c
  4204  0012DC  0789               	decf	(efgtoa@p+1)& (0+255),f,b
  4205  0012DE                     
  4206                           ; BSR set to: 0
  4207                           ;C:\Program Files\Microchip\xc8\v2.20\pic\sources\c99\common\doprnt.c: 490:             
      +                          --w;
  4208  0012DE  078B               	decf	efgtoa@w& (0+255),f,b
  4209  0012E0  A0D8               	btfss	status,0,c
  4210  0012E2  078C               	decf	(efgtoa@w+1)& (0+255),f,b
  4211  0012E4                     l4117:
  4212                           
  4213                           ; BSR set to: 0
  4214                           ;C:\Program Files\Microchip\xc8\v2.20\pic\sources\c99\common\doprnt.c: 485:         whil
      +                          e (e || (0 < p)) {
  4215  0012E4  519C               	movf	efgtoa@e& (0+255),w,b
  4216  0012E6  119D               	iorwf	(efgtoa@e+1)& (0+255),w,b
  4217  0012E8  A4D8               	btfss	status,2,c
  4218  0012EA  EF79  F009         	goto	u5031
  4219  0012EE  EF7B  F009         	goto	u5030
  4220  0012F2                     u5031:
  4221  0012F2  EF47  F009         	goto	l4107
  4222  0012F6                     u5030:
  4223  0012F6                     
  4224                           ; BSR set to: 0
  4225  0012F6  BF89               	btfsc	(efgtoa@p+1)& (0+255),7,b
  4226  0012F8  EF88  F009         	goto	u5040
  4227  0012FC  5189               	movf	(efgtoa@p+1)& (0+255),w,b
  4228  0012FE  E106               	bnz	u5041
  4229  001300  0588               	decf	efgtoa@p& (0+255),w,b
  4230  001302  B0D8               	btfsc	status,0,c
  4231  001304  EF86  F009         	goto	u5041
  4232  001308  EF88  F009         	goto	u5040
  4233  00130C                     u5041:
  4234  00130C  EF47  F009         	goto	l4107
  4235  001310                     u5040:
  4236  001310                     
  4237                           ; BSR set to: 0
  4238                           ;C:\Program Files\Microchip\xc8\v2.20\pic\sources\c99\common\doprnt.c: 492:         --i;
  4239  001310  0796               	decf	efgtoa@i& (0+255),f,b
  4240  001312  A0D8               	btfss	status,0,c
  4241  001314  0797               	decf	(efgtoa@i+1)& (0+255),f,b
  4242  001316                     
  4243                           ; BSR set to: 0
  4244                           ;C:\Program Files\Microchip\xc8\v2.20\pic\sources\c99\common\doprnt.c: 493:         dbuf
      +                          [i] = sign ? '-' : '+';
  4245  001316  5186               	movf	efgtoa@sign& (0+255),w,b
  4246  001318  1187               	iorwf	(efgtoa@sign+1)& (0+255),w,b
  4247  00131A  A4D8               	btfss	status,2,c
  4248  00131C  EF92  F009         	goto	u5051
  4249  001320  EF94  F009         	goto	u5050
  4250  001324                     u5051:
  4251  001324  EF9A  F009         	goto	l4127
  4252  001328                     u5050:
  4253  001328                     
  4254                           ; BSR set to: 0
  4255  001328  0E00               	movlw	0
  4256  00132A  6F77               	movwf	(_efgtoa$1010+1)& (0+255),b
  4257  00132C  0E2B               	movlw	43
  4258  00132E  6F76               	movwf	_efgtoa$1010& (0+255),b
  4259  001330  EF9E  F009         	goto	l4129
  4260  001334                     l4127:
  4261                           
  4262                           ; BSR set to: 0
  4263  001334  0E00               	movlw	0
  4264  001336  6F77               	movwf	(_efgtoa$1010+1)& (0+255),b
  4265  001338  0E2D               	movlw	45
  4266  00133A  6F76               	movwf	_efgtoa$1010& (0+255),b
  4267  00133C                     l4129:
  4268                           
  4269                           ; BSR set to: 0
  4270  00133C  0E0A               	movlw	low _dbuf
  4271  00133E  2596               	addwf	efgtoa@i& (0+255),w,b
  4272  001340  6ED9               	movwf	fsr2l,c
  4273  001342  0E01               	movlw	high _dbuf
  4274  001344  2197               	addwfc	(efgtoa@i+1)& (0+255),w,b
  4275  001346  6EDA               	movwf	fsr2h,c
  4276  001348  C076  FFDF         	movff	_efgtoa$1010,indf2
  4277  00134C                     
  4278                           ; BSR set to: 0
  4279                           ;C:\Program Files\Microchip\xc8\v2.20\pic\sources\c99\common\doprnt.c: 494:         --w;
  4280  00134C  078B               	decf	efgtoa@w& (0+255),f,b
  4281  00134E  A0D8               	btfss	status,0,c
  4282  001350  078C               	decf	(efgtoa@w+1)& (0+255),f,b
  4283  001352                     
  4284                           ; BSR set to: 0
  4285                           ;C:\Program Files\Microchip\xc8\v2.20\pic\sources\c99\common\doprnt.c: 496:         dbuf
      +                          [i] = (0 ? isupper((int)c) : ((unsigned)((int)c)-'A') < 26) ? 'E' : 'e';
  4286  001352  0796               	decf	efgtoa@i& (0+255),f,b
  4287  001354  A0D8               	btfss	status,0,c
  4288  001356  0797               	decf	(efgtoa@i+1)& (0+255),f,b
  4289  001358                     
  4290                           ; BSR set to: 0
  4291  001358  0EBF               	movlw	191
  4292  00135A  6F67               	movwf	??_efgtoa& (0+255),b
  4293  00135C  0EFF               	movlw	255
  4294  00135E  6F68               	movwf	(??_efgtoa+1)& (0+255),b
  4295  001360  5166               	movf	efgtoa@c& (0+255),w,b
  4296  001362  6F69               	movwf	(??_efgtoa+2)& (0+255),b
  4297  001364  6B6A               	clrf	(??_efgtoa+3)& (0+255),b
  4298  001366  5167               	movf	??_efgtoa& (0+255),w,b
  4299  001368  2769               	addwf	(??_efgtoa+2)& (0+255),f,b
  4300  00136A  5168               	movf	(??_efgtoa+1)& (0+255),w,b
  4301  00136C  236A               	addwfc	(??_efgtoa+3)& (0+255),f,b
  4302  00136E  516A               	movf	(??_efgtoa+3)& (0+255),w,b
  4303  001370  E10A               	bnz	u5060
  4304  001372  0E1A               	movlw	26
  4305  001374  5D69               	subwf	(??_efgtoa+2)& (0+255),w,b
  4306  001376  A0D8               	btfss	status,0,c
  4307  001378  EFC0  F009         	goto	u5061
  4308  00137C  EFC3  F009         	goto	u5060
  4309  001380                     u5061:
  4310  001380  0E01               	movlw	1
  4311  001382  EFC4  F009         	goto	u5070
  4312  001386                     u5060:
  4313  001386  0E00               	movlw	0
  4314  001388                     u5070:
  4315  001388  6F7A               	movwf	_efgtoa$1012& (0+255),b
  4316  00138A  6B7B               	clrf	(_efgtoa$1012+1)& (0+255),b
  4317  00138C                     
  4318                           ; BSR set to: 0
  4319  00138C  517A               	movf	_efgtoa$1012& (0+255),w,b
  4320  00138E  117B               	iorwf	(_efgtoa$1012+1)& (0+255),w,b
  4321  001390  A4D8               	btfss	status,2,c
  4322  001392  EFCD  F009         	goto	u5081
  4323  001396  EFCF  F009         	goto	u5080
  4324  00139A                     u5081:
  4325  00139A  EFD5  F009         	goto	l4143
  4326  00139E                     u5080:
  4327  00139E                     
  4328                           ; BSR set to: 0
  4329  00139E  0E00               	movlw	0
  4330  0013A0  6F79               	movwf	(_efgtoa$1011+1)& (0+255),b
  4331  0013A2  0E65               	movlw	101
  4332  0013A4  6F78               	movwf	_efgtoa$1011& (0+255),b
  4333  0013A6  EFD9  F009         	goto	l4145
  4334  0013AA                     l4143:
  4335                           
  4336                           ; BSR set to: 0
  4337  0013AA  0E00               	movlw	0
  4338  0013AC  6F79               	movwf	(_efgtoa$1011+1)& (0+255),b
  4339  0013AE  0E45               	movlw	69
  4340  0013B0  6F78               	movwf	_efgtoa$1011& (0+255),b
  4341  0013B2                     l4145:
  4342                           
  4343                           ; BSR set to: 0
  4344  0013B2  0E0A               	movlw	low _dbuf
  4345  0013B4  2596               	addwf	efgtoa@i& (0+255),w,b
  4346  0013B6  6ED9               	movwf	fsr2l,c
  4347  0013B8  0E01               	movlw	high _dbuf
  4348  0013BA  2197               	addwfc	(efgtoa@i+1)& (0+255),w,b
  4349  0013BC  6EDA               	movwf	fsr2h,c
  4350  0013BE  C078  FFDF         	movff	_efgtoa$1011,indf2
  4351  0013C2                     
  4352                           ; BSR set to: 0
  4353                           ;C:\Program Files\Microchip\xc8\v2.20\pic\sources\c99\common\doprnt.c: 497:         --w;
  4354  0013C2  078B               	decf	efgtoa@w& (0+255),f,b
  4355  0013C4  A0D8               	btfss	status,0,c
  4356  0013C6  078C               	decf	(efgtoa@w+1)& (0+255),f,b
  4357  0013C8                     
  4358                           ; BSR set to: 0
  4359                           ;C:\Program Files\Microchip\xc8\v2.20\pic\sources\c99\common\doprnt.c: 498:         strc
      +                          py(&dbuf[n], &dbuf[i]);
  4360  0013C8  0E0A               	movlw	low _dbuf
  4361  0013CA  259E               	addwf	efgtoa@n& (0+255),w,b
  4362  0013CC  6E01               	movwf	strcpy@dest^0,c
  4363  0013CE  0E01               	movlw	high _dbuf
  4364  0013D0  219F               	addwfc	(efgtoa@n+1)& (0+255),w,b
  4365  0013D2  6E02               	movwf	(strcpy@dest+1)^0,c
  4366  0013D4  0E0A               	movlw	low _dbuf
  4367  0013D6  2596               	addwf	efgtoa@i& (0+255),w,b
  4368  0013D8  6E03               	movwf	strcpy@src^0,c
  4369  0013DA  0E01               	movlw	high _dbuf
  4370  0013DC  2197               	addwfc	(efgtoa@i+1)& (0+255),w,b
  4371  0013DE  6E04               	movwf	(strcpy@src+1)^0,c
  4372  0013E0  ECE3  F01E         	call	_strcpy	;wreg free
  4373  0013E4  EFD0  F004         	goto	l3901
  4374  0013E8                     l901:
  4375  0013E8  0012               	return		;funcret
  4376  0013EA                     __end_of_efgtoa:
  4377                           	callstack 0
  4378                           
  4379 ;; *************** function _tolower *****************
  4380 ;; Defined at:
  4381 ;;		line 4 in file "C:\Program Files\Microchip\xc8\v2.20\pic\sources\c99\common\tolower.c"
  4382 ;; Parameters:    Size  Location     Type
  4383 ;;  c               2    6[COMRAM] int 
  4384 ;; Auto vars:     Size  Location     Type
  4385 ;;		None
  4386 ;; Return value:  Size  Location     Type
  4387 ;;                  2    6[COMRAM] int 
  4388 ;; Registers used:
  4389 ;;		wreg, status,2, status,0
  4390 ;; Tracked objects:
  4391 ;;		On entry : 0/0
  4392 ;;		On exit  : 0/0
  4393 ;;		Unchanged: 0/0
  4394 ;; Data sizes:     COMRAM   BANK0   BANK1   BANK2   BANK3   BANK4   BANK5   BANK6   BANK7
  4395 ;;      Params:         2       0       0       0       0       0       0       0       0
  4396 ;;      Locals:         2       0       0       0       0       0       0       0       0
  4397 ;;      Temps:          4       0       0       0       0       0       0       0       0
  4398 ;;      Totals:         8       0       0       0       0       0       0       0       0
  4399 ;;Total ram usage:        8 bytes
  4400 ;; Hardware stack levels used:    1
  4401 ;; Hardware stack levels required when called:    2
  4402 ;; This function calls:
  4403 ;;		_isupper
  4404 ;; This function is called by:
  4405 ;;		_efgtoa
  4406 ;;		_vfpfcnvrt
  4407 ;; This function uses a non-reentrant model
  4408 ;;
  4409                           
  4410                           	psect	text6
  4411  003D08                     __ptext6:
  4412                           	callstack 0
  4413  003D08                     _tolower:
  4414                           	callstack 25
  4415  003D08  0EBF               	movlw	191
  4416  003D0A  6E09               	movwf	??_tolower^0,c
  4417  003D0C  0EFF               	movlw	255
  4418  003D0E  6E0A               	movwf	(??_tolower+1)^0,c
  4419  003D10  C007  F00B         	movff	tolower@c,??_tolower+2
  4420  003D14  C008  F00C         	movff	tolower@c+1,??_tolower+3
  4421  003D18  5009               	movf	??_tolower^0,w,c
  4422  003D1A  260B               	addwf	(??_tolower+2)^0,f,c
  4423  003D1C  500A               	movf	(??_tolower+1)^0,w,c
  4424  003D1E  220C               	addwfc	(??_tolower+3)^0,f,c
  4425  003D20  500C               	movf	(??_tolower+3)^0,w,c
  4426  003D22  E10A               	bnz	u4250
  4427  003D24  0E1A               	movlw	26
  4428  003D26  5C0B               	subwf	(??_tolower+2)^0,w,c
  4429  003D28  A0D8               	btfss	status,0,c
  4430  003D2A  EF99  F01E         	goto	u4251
  4431  003D2E  EF9C  F01E         	goto	u4250
  4432  003D32                     u4251:
  4433  003D32  0E01               	movlw	1
  4434  003D34  EF9D  F01E         	goto	u4260
  4435  003D38                     u4250:
  4436  003D38  0E00               	movlw	0
  4437  003D3A                     u4260:
  4438  003D3A  6E0D               	movwf	_tolower$1163^0,c
  4439  003D3C  6A0E               	clrf	(_tolower$1163+1)^0,c
  4440  003D3E  500D               	movf	_tolower$1163^0,w,c
  4441  003D40  100E               	iorwf	(_tolower$1163+1)^0,w,c
  4442  003D42  B4D8               	btfsc	status,2,c
  4443  003D44  EFA6  F01E         	goto	u4271
  4444  003D48  EFA8  F01E         	goto	u4270
  4445  003D4C                     u4271:
  4446  003D4C  EFAF  F01E         	goto	l1149
  4447  003D50                     u4270:
  4448  003D50  0E20               	movlw	32
  4449  003D52  1007               	iorwf	tolower@c^0,w,c
  4450  003D54  6E07               	movwf	?_tolower^0,c
  4451  003D56  5008               	movf	(tolower@c+1)^0,w,c
  4452  003D58  6E08               	movwf	(?_tolower+1)^0,c
  4453  003D5A  EFB3  F01E         	goto	l1154
  4454  003D5E                     l1149:
  4455  003D5E  C007  F007         	movff	tolower@c,?_tolower
  4456  003D62  C008  F008         	movff	tolower@c+1,?_tolower+1
  4457  003D66                     l1154:
  4458  003D66  0012               	return		;funcret
  4459  003D68                     __end_of_tolower:
  4460                           	callstack 0
  4461                           
  4462 ;; *************** function _isupper *****************
  4463 ;; Defined at:
  4464 ;;		line 5 in file "C:\Program Files\Microchip\xc8\v2.20\pic\sources\c99\common\isupper.c"
  4465 ;; Parameters:    Size  Location     Type
  4466 ;;  c               2    0[COMRAM] int 
  4467 ;; Auto vars:     Size  Location     Type
  4468 ;;		None
  4469 ;; Return value:  Size  Location     Type
  4470 ;;                  2    0[COMRAM] int 
  4471 ;; Registers used:
  4472 ;;		wreg, status,2, status,0
  4473 ;; Tracked objects:
  4474 ;;		On entry : 0/0
  4475 ;;		On exit  : 0/0
  4476 ;;		Unchanged: 0/0
  4477 ;; Data sizes:     COMRAM   BANK0   BANK1   BANK2   BANK3   BANK4   BANK5   BANK6   BANK7
  4478 ;;      Params:         2       0       0       0       0       0       0       0       0
  4479 ;;      Locals:         0       0       0       0       0       0       0       0       0
  4480 ;;      Temps:          4       0       0       0       0       0       0       0       0
  4481 ;;      Totals:         6       0       0       0       0       0       0       0       0
  4482 ;;Total ram usage:        6 bytes
  4483 ;; Hardware stack levels used:    1
  4484 ;; Hardware stack levels required when called:    1
  4485 ;; This function calls:
  4486 ;;		Nothing
  4487 ;; This function is called by:
  4488 ;;		_efgtoa
  4489 ;;		_vfpfcnvrt
  4490 ;;		_tolower
  4491 ;; This function uses a non-reentrant model
  4492 ;;
  4493                           
  4494                           	psect	text7
  4495  004108                     __ptext7:
  4496                           	callstack 0
  4497  004108                     _isupper:
  4498                           	callstack 25
  4499  004108  0EBF               	movlw	191
  4500  00410A  6E03               	movwf	??_isupper^0,c
  4501  00410C  0EFF               	movlw	255
  4502  00410E  6E04               	movwf	(??_isupper+1)^0,c
  4503  004110  C001  F005         	movff	isupper@c,??_isupper+2
  4504  004114  C002  F006         	movff	isupper@c+1,??_isupper+3
  4505  004118  5003               	movf	??_isupper^0,w,c
  4506  00411A  2605               	addwf	(??_isupper+2)^0,f,c
  4507  00411C  5004               	movf	(??_isupper+1)^0,w,c
  4508  00411E  2206               	addwfc	(??_isupper+3)^0,f,c
  4509  004120  5006               	movf	(??_isupper+3)^0,w,c
  4510  004122  E10A               	bnz	u3260
  4511  004124  0E1A               	movlw	26
  4512  004126  5C05               	subwf	(??_isupper+2)^0,w,c
  4513  004128  A0D8               	btfss	status,0,c
  4514  00412A  EF99  F020         	goto	u3261
  4515  00412E  EF9C  F020         	goto	u3260
  4516  004132                     u3261:
  4517  004132  0E01               	movlw	1
  4518  004134  EF9D  F020         	goto	u3270
  4519  004138                     u3260:
  4520  004138  0E00               	movlw	0
  4521  00413A                     u3270:
  4522  00413A  6E01               	movwf	?_isupper^0,c
  4523  00413C  6A02               	clrf	(?_isupper+1)^0,c
  4524  00413E  0012               	return		;funcret
  4525  004140                     __end_of_isupper:
  4526                           	callstack 0
  4527                           
  4528 ;; *************** function _strcpy *****************
  4529 ;; Defined at:
  4530 ;;		line 3 in file "C:\Program Files\Microchip\xc8\v2.20\pic\sources\c99\common\strcpy.c"
  4531 ;; Parameters:    Size  Location     Type
  4532 ;;  dest            2    0[COMRAM] PTR unsigned char 
  4533 ;;		 -> dbuf(80), 
  4534 ;;  src             2    2[COMRAM] PTR const unsigned char 
  4535 ;;		 -> STR_14(4), STR_13(4), STR_10(4), STR_9(4), 
  4536 ;;		 -> dbuf(80), 
  4537 ;; Auto vars:     Size  Location     Type
  4538 ;;  d               2    8[COMRAM] PTR unsigned char 
  4539 ;;		 -> dbuf(80), 
  4540 ;;  s               2    6[COMRAM] PTR const unsigned char 
  4541 ;;		 -> STR_14(4), STR_13(4), STR_10(4), STR_9(4), 
  4542 ;;		 -> dbuf(80), 
  4543 ;; Return value:  Size  Location     Type
  4544 ;;                  2    0[COMRAM] PTR unsigned char 
  4545 ;; Registers used:
  4546 ;;		wreg, fsr1l, fsr1h, fsr2l, fsr2h, status,2, status,0, tblptrl, tblptrh, tblptru
  4547 ;; Tracked objects:
  4548 ;;		On entry : 0/0
  4549 ;;		On exit  : 0/0
  4550 ;;		Unchanged: 0/0
  4551 ;; Data sizes:     COMRAM   BANK0   BANK1   BANK2   BANK3   BANK4   BANK5   BANK6   BANK7
  4552 ;;      Params:         4       0       0       0       0       0       0       0       0
  4553 ;;      Locals:         4       0       0       0       0       0       0       0       0
  4554 ;;      Temps:          2       0       0       0       0       0       0       0       0
  4555 ;;      Totals:        10       0       0       0       0       0       0       0       0
  4556 ;;Total ram usage:       10 bytes
  4557 ;; Hardware stack levels used:    1
  4558 ;; Hardware stack levels required when called:    1
  4559 ;; This function calls:
  4560 ;;		Nothing
  4561 ;; This function is called by:
  4562 ;;		_efgtoa
  4563 ;; This function uses a non-reentrant model
  4564 ;;
  4565                           
  4566                           	psect	text8
  4567  003DC6                     __ptext8:
  4568                           	callstack 0
  4569  003DC6                     _strcpy:
  4570                           	callstack 25
  4571  003DC6  C003  F007         	movff	strcpy@src,strcpy@s
  4572  003DCA  C004  F008         	movff	strcpy@src+1,strcpy@s+1
  4573  003DCE  C001  F009         	movff	strcpy@dest,strcpy@d
  4574  003DD2  C002  F00A         	movff	strcpy@dest+1,strcpy@d+1
  4575  003DD6                     l3733:
  4576  003DD6  5007               	movf	strcpy@s^0,w,c
  4577  003DD8  6E05               	movwf	??_strcpy^0,c
  4578  003DDA  5008               	movf	(strcpy@s+1)^0,w,c
  4579  003DDC  6E06               	movwf	(??_strcpy+1)^0,c
  4580  003DDE  4A07               	infsnz	strcpy@s^0,f,c
  4581  003DE0  2A08               	incf	(strcpy@s+1)^0,f,c
  4582  003DE2  C005  FFF6         	movff	??_strcpy,tblptrl
  4583  003DE6  C006  FFF7         	movff	??_strcpy+1,tblptrh
  4584  003DEA  6AF8               	clrf	tblptru,c
  4585  003DEC  C009  FFD9         	movff	strcpy@d,fsr2l
  4586  003DF0  C00A  FFDA         	movff	strcpy@d+1,fsr2h
  4587  003DF4  4A09               	infsnz	strcpy@d^0,f,c
  4588  003DF6  2A0A               	incf	(strcpy@d+1)^0,f,c
  4589  003DF8  0E07               	movlw	(high __ramtop+-1)
  4590  003DFA  64F7               	cpfsgt	tblptrh,c
  4591  003DFC  D003               	bra	u4237
  4592  003DFE  0008               	tblrd		*
  4593  003E00  50F5               	movf	tablat,w,c
  4594  003E02  D005               	bra	u4230
  4595  003E04                     u4237:
  4596  003E04  CFF6 FFE1          	movff	tblptrl,fsr1l
  4597  003E08  CFF7 FFE2          	movff	tblptrh,fsr1h
  4598  003E0C  50E7               	movf	indf1,w,c
  4599  003E0E                     u4230:
  4600  003E0E  6EDF               	movwf	indf2,c
  4601  003E10  50DF               	movf	indf2,w,c
  4602  003E12  A4D8               	btfss	status,2,c
  4603  003E14  EF0E  F01F         	goto	u4241
  4604  003E18  EF10  F01F         	goto	u4240
  4605  003E1C                     u4241:
  4606  003E1C  EFEB  F01E         	goto	l3733
  4607  003E20                     u4240:
  4608  003E20  0012               	return		;funcret
  4609  003E22                     __end_of_strcpy:
  4610                           	callstack 0
  4611                           
  4612 ;; *************** function _floorf *****************
  4613 ;; Defined at:
  4614 ;;		line 3 in file "C:\Program Files\Microchip\xc8\v2.20\pic\sources\c99\common\floorf.c"
  4615 ;; Parameters:    Size  Location     Type
  4616 ;;  x               4   45[COMRAM] float 
  4617 ;; Auto vars:     Size  Location     Type
  4618 ;;  u               4   61[COMRAM] struct .
  4619 ;;  m               4   55[COMRAM] unsigned long 
  4620 ;;  e               2   59[COMRAM] int 
  4621 ;; Return value:  Size  Location     Type
  4622 ;;                  4   45[COMRAM] float 
  4623 ;; Registers used:
  4624 ;;		wreg, status,2, status,0
  4625 ;; Tracked objects:
  4626 ;;		On entry : 0/0
  4627 ;;		On exit  : 0/0
  4628 ;;		Unchanged: 0/0
  4629 ;; Data sizes:     COMRAM   BANK0   BANK1   BANK2   BANK3   BANK4   BANK5   BANK6   BANK7
  4630 ;;      Params:         4       0       0       0       0       0       0       0       0
  4631 ;;      Locals:        10       0       0       0       0       0       0       0       0
  4632 ;;      Temps:          6       0       0       0       0       0       0       0       0
  4633 ;;      Totals:        20       0       0       0       0       0       0       0       0
  4634 ;;Total ram usage:       20 bytes
  4635 ;; Hardware stack levels used:    1
  4636 ;; Hardware stack levels required when called:    1
  4637 ;; This function calls:
  4638 ;;		Nothing
  4639 ;; This function is called by:
  4640 ;;		_efgtoa
  4641 ;; This function uses a non-reentrant model
  4642 ;;
  4643                           
  4644                           	psect	text9
  4645  002CD0                     __ptext9:
  4646                           	callstack 0
  4647  002CD0                     _floorf:
  4648                           	callstack 25
  4649  002CD0  C100  F03E         	movff	floorf@F524,floorf@u
  4650  002CD4  C101  F03F         	movff	floorf@F524+1,floorf@u+1
  4651  002CD8  C102  F040         	movff	floorf@F524+2,floorf@u+2
  4652  002CDC  C103  F041         	movff	floorf@F524+3,floorf@u+3
  4653  002CE0  C02E  F03E         	movff	floorf@x,floorf@u
  4654  002CE4  C02F  F03F         	movff	floorf@x+1,floorf@u+1
  4655  002CE8  C030  F040         	movff	floorf@x+2,floorf@u+2
  4656  002CEC  C031  F041         	movff	floorf@x+3,floorf@u+3
  4657  002CF0  0E81               	movlw	129
  4658  002CF2  6E32               	movwf	??_floorf^0,c
  4659  002CF4  0EFF               	movlw	255
  4660  002CF6  6E33               	movwf	(??_floorf+1)^0,c
  4661  002CF8  C03E  F034         	movff	floorf@u,??_floorf+2
  4662  002CFC  C03F  F035         	movff	floorf@u+1,??_floorf+3
  4663  002D00  C040  F036         	movff	floorf@u+2,??_floorf+4
  4664  002D04  C041  F037         	movff	floorf@u+3,??_floorf+5
  4665  002D08  0E18               	movlw	24
  4666  002D0A  EF8C  F016         	goto	u4280
  4667  002D0E                     u4285:
  4668  002D0E  90D8               	bcf	status,0,c
  4669  002D10  3237               	rrcf	(??_floorf+5)^0,f,c
  4670  002D12  3236               	rrcf	(??_floorf+4)^0,f,c
  4671  002D14  3235               	rrcf	(??_floorf+3)^0,f,c
  4672  002D16  3234               	rrcf	(??_floorf+2)^0,f,c
  4673  002D18                     u4280:
  4674  002D18  2EE8               	decfsz	wreg,f,c
  4675  002D1A  EF87  F016         	goto	u4285
  4676  002D1E  5034               	movf	(??_floorf+2)^0,w,c
  4677  002D20  2432               	addwf	??_floorf^0,w,c
  4678  002D22  6E3C               	movwf	floorf@e^0,c
  4679  002D24  0E00               	movlw	0
  4680  002D26  2033               	addwfc	(??_floorf+1)^0,w,c
  4681  002D28  6E3D               	movwf	(floorf@e+1)^0,c
  4682  002D2A  BE3D               	btfsc	(floorf@e+1)^0,7,c
  4683  002D2C  EFA1  F016         	goto	u4291
  4684  002D30  503D               	movf	(floorf@e+1)^0,w,c
  4685  002D32  E109               	bnz	u4290
  4686  002D34  0E17               	movlw	23
  4687  002D36  5C3C               	subwf	floorf@e^0,w,c
  4688  002D38  A0D8               	btfss	status,0,c
  4689  002D3A  EFA1  F016         	goto	u4291
  4690  002D3E  EFA3  F016         	goto	u4290
  4691  002D42                     u4291:
  4692  002D42  EFAD  F016         	goto	l3751
  4693  002D46                     u4290:
  4694  002D46                     l3749:
  4695  002D46  C02E  F02E         	movff	floorf@x,?_floorf
  4696  002D4A  C02F  F02F         	movff	floorf@x+1,?_floorf+1
  4697  002D4E  C030  F030         	movff	floorf@x+2,?_floorf+2
  4698  002D52  C031  F031         	movff	floorf@x+3,?_floorf+3
  4699  002D56  EF70  F017         	goto	l1073
  4700  002D5A                     l3751:
  4701  002D5A  BE3D               	btfsc	(floorf@e+1)^0,7,c
  4702  002D5C  EFB2  F016         	goto	u4301
  4703  002D60  EFB4  F016         	goto	u4300
  4704  002D64                     u4301:
  4705  002D64  EF24  F017         	goto	l3761
  4706  002D68                     u4300:
  4707  002D68  C03C  F032         	movff	floorf@e,??_floorf
  4708  002D6C  0EFF               	movlw	255
  4709  002D6E  6E33               	movwf	(??_floorf+1)^0,c
  4710  002D70  0EFF               	movlw	255
  4711  002D72  6E34               	movwf	(??_floorf+2)^0,c
  4712  002D74  0E7F               	movlw	127
  4713  002D76  6E35               	movwf	(??_floorf+3)^0,c
  4714  002D78  0E00               	movlw	0
  4715  002D7A  6E36               	movwf	(??_floorf+4)^0,c
  4716  002D7C                     u4315:
  4717  002D7C  6632               	tstfsz	??_floorf^0,c
  4718  002D7E  EFC3  F016         	goto	u4316
  4719  002D82  EFCB  F016         	goto	u4317
  4720  002D86                     u4316:
  4721  002D86  3436               	rlcf	(??_floorf+4)^0,w,c
  4722  002D88  3236               	rrcf	(??_floorf+4)^0,f,c
  4723  002D8A  3235               	rrcf	(??_floorf+3)^0,f,c
  4724  002D8C  3234               	rrcf	(??_floorf+2)^0,f,c
  4725  002D8E  3233               	rrcf	(??_floorf+1)^0,f,c
  4726  002D90  2E32               	decfsz	??_floorf^0,f,c
  4727  002D92  EFBE  F016         	goto	u4315
  4728  002D96                     u4317:
  4729  002D96  C033  F038         	movff	??_floorf+1,floorf@m
  4730  002D9A  C034  F039         	movff	??_floorf+2,floorf@m+1
  4731  002D9E  C035  F03A         	movff	??_floorf+3,floorf@m+2
  4732  002DA2  C036  F03B         	movff	??_floorf+4,floorf@m+3
  4733  002DA6  5038               	movf	floorf@m^0,w,c
  4734  002DA8  143E               	andwf	floorf@u^0,w,c
  4735  002DAA  6E32               	movwf	??_floorf^0,c
  4736  002DAC  5039               	movf	(floorf@m+1)^0,w,c
  4737  002DAE  143F               	andwf	(floorf@u+1)^0,w,c
  4738  002DB0  6E33               	movwf	(??_floorf+1)^0,c
  4739  002DB2  503A               	movf	(floorf@m+2)^0,w,c
  4740  002DB4  1440               	andwf	(floorf@u+2)^0,w,c
  4741  002DB6  6E34               	movwf	(??_floorf+2)^0,c
  4742  002DB8  503B               	movf	(floorf@m+3)^0,w,c
  4743  002DBA  1441               	andwf	(floorf@u+3)^0,w,c
  4744  002DBC  6E35               	movwf	(??_floorf+3)^0,c
  4745  002DBE  5032               	movf	??_floorf^0,w,c
  4746  002DC0  1033               	iorwf	(??_floorf+1)^0,w,c
  4747  002DC2  1034               	iorwf	(??_floorf+2)^0,w,c
  4748  002DC4  1035               	iorwf	(??_floorf+3)^0,w,c
  4749  002DC6  A4D8               	btfss	status,2,c
  4750  002DC8  EFE8  F016         	goto	u4321
  4751  002DCC  EFEA  F016         	goto	u4320
  4752  002DD0                     u4321:
  4753  002DD0  EFEC  F016         	goto	l3757
  4754  002DD4                     u4320:
  4755  002DD4  EFA3  F016         	goto	l3749
  4756  002DD8                     l3757:
  4757  002DD8  C03E  F032         	movff	floorf@u,??_floorf
  4758  002DDC  C03F  F033         	movff	floorf@u+1,??_floorf+1
  4759  002DE0  C040  F034         	movff	floorf@u+2,??_floorf+2
  4760  002DE4  C041  F035         	movff	floorf@u+3,??_floorf+3
  4761  002DE8  0E20               	movlw	32
  4762  002DEA  EFFC  F016         	goto	u4330
  4763  002DEE                     u4335:
  4764  002DEE  90D8               	bcf	status,0,c
  4765  002DF0  3235               	rrcf	(??_floorf+3)^0,f,c
  4766  002DF2  3234               	rrcf	(??_floorf+2)^0,f,c
  4767  002DF4  3233               	rrcf	(??_floorf+1)^0,f,c
  4768  002DF6  3232               	rrcf	??_floorf^0,f,c
  4769  002DF8                     u4330:
  4770  002DF8  2EE8               	decfsz	wreg,f,c
  4771  002DFA  EFF7  F016         	goto	u4335
  4772  002DFE  5032               	movf	??_floorf^0,w,c
  4773  002E00  1033               	iorwf	(??_floorf+1)^0,w,c
  4774  002E02  1034               	iorwf	(??_floorf+2)^0,w,c
  4775  002E04  1035               	iorwf	(??_floorf+3)^0,w,c
  4776  002E06  B4D8               	btfsc	status,2,c
  4777  002E08  EF08  F017         	goto	u4341
  4778  002E0C  EF0A  F017         	goto	u4340
  4779  002E10                     u4341:
  4780  002E10  EF12  F017         	goto	l1076
  4781  002E14                     u4340:
  4782  002E14  5038               	movf	floorf@m^0,w,c
  4783  002E16  263E               	addwf	floorf@u^0,f,c
  4784  002E18  5039               	movf	(floorf@m+1)^0,w,c
  4785  002E1A  223F               	addwfc	(floorf@u+1)^0,f,c
  4786  002E1C  503A               	movf	(floorf@m+2)^0,w,c
  4787  002E1E  2240               	addwfc	(floorf@u+2)^0,f,c
  4788  002E20  503B               	movf	(floorf@m+3)^0,w,c
  4789  002E22  2241               	addwfc	(floorf@u+3)^0,f,c
  4790  002E24                     l1076:
  4791  002E24  1C38               	comf	floorf@m^0,w,c
  4792  002E26  6E32               	movwf	??_floorf^0,c
  4793  002E28  1C39               	comf	(floorf@m+1)^0,w,c
  4794  002E2A  6E33               	movwf	(??_floorf+1)^0,c
  4795  002E2C  1C3A               	comf	(floorf@m+2)^0,w,c
  4796  002E2E  6E34               	movwf	(??_floorf+2)^0,c
  4797  002E30  1C3B               	comf	(floorf@m+3)^0,w,c
  4798  002E32  6E35               	movwf	(??_floorf+3)^0,c
  4799  002E34  5032               	movf	??_floorf^0,w,c
  4800  002E36  163E               	andwf	floorf@u^0,f,c
  4801  002E38  5033               	movf	(??_floorf+1)^0,w,c
  4802  002E3A  163F               	andwf	(floorf@u+1)^0,f,c
  4803  002E3C  5034               	movf	(??_floorf+2)^0,w,c
  4804  002E3E  1640               	andwf	(floorf@u+2)^0,f,c
  4805  002E40  5035               	movf	(??_floorf+3)^0,w,c
  4806  002E42  1641               	andwf	(floorf@u+3)^0,f,c
  4807  002E44  EF68  F017         	goto	l3769
  4808  002E48                     l3761:
  4809  002E48  C03E  F032         	movff	floorf@u,??_floorf
  4810  002E4C  C03F  F033         	movff	floorf@u+1,??_floorf+1
  4811  002E50  C040  F034         	movff	floorf@u+2,??_floorf+2
  4812  002E54  C041  F035         	movff	floorf@u+3,??_floorf+3
  4813  002E58  0E20               	movlw	32
  4814  002E5A  EF34  F017         	goto	u4350
  4815  002E5E                     u4355:
  4816  002E5E  90D8               	bcf	status,0,c
  4817  002E60  3235               	rrcf	(??_floorf+3)^0,f,c
  4818  002E62  3234               	rrcf	(??_floorf+2)^0,f,c
  4819  002E64  3233               	rrcf	(??_floorf+1)^0,f,c
  4820  002E66  3232               	rrcf	??_floorf^0,f,c
  4821  002E68                     u4350:
  4822  002E68  2EE8               	decfsz	wreg,f,c
  4823  002E6A  EF2F  F017         	goto	u4355
  4824  002E6E  5032               	movf	??_floorf^0,w,c
  4825  002E70  1033               	iorwf	(??_floorf+1)^0,w,c
  4826  002E72  1034               	iorwf	(??_floorf+2)^0,w,c
  4827  002E74  1035               	iorwf	(??_floorf+3)^0,w,c
  4828  002E76  A4D8               	btfss	status,2,c
  4829  002E78  EF40  F017         	goto	u4361
  4830  002E7C  EF42  F017         	goto	u4360
  4831  002E80                     u4361:
  4832  002E80  EF4C  F017         	goto	l3765
  4833  002E84                     u4360:
  4834  002E84  0E00               	movlw	0
  4835  002E86  6E3E               	movwf	floorf@u^0,c
  4836  002E88  0E00               	movlw	0
  4837  002E8A  6E3F               	movwf	(floorf@u+1)^0,c
  4838  002E8C  0E00               	movlw	0
  4839  002E8E  6E40               	movwf	(floorf@u+2)^0,c
  4840  002E90  0E00               	movlw	0
  4841  002E92  6E41               	movwf	(floorf@u+3)^0,c
  4842  002E94  EF68  F017         	goto	l3769
  4843  002E98                     l3765:
  4844  002E98  90D8               	bcf	status,0,c
  4845  002E9A  343E               	rlcf	floorf@u^0,w,c
  4846  002E9C  6E32               	movwf	??_floorf^0,c
  4847  002E9E  343F               	rlcf	(floorf@u+1)^0,w,c
  4848  002EA0  6E33               	movwf	(??_floorf+1)^0,c
  4849  002EA2  3440               	rlcf	(floorf@u+2)^0,w,c
  4850  002EA4  6E34               	movwf	(??_floorf+2)^0,c
  4851  002EA6  3441               	rlcf	(floorf@u+3)^0,w,c
  4852  002EA8  6E35               	movwf	(??_floorf+3)^0,c
  4853  002EAA  5032               	movf	??_floorf^0,w,c
  4854  002EAC  1033               	iorwf	(??_floorf+1)^0,w,c
  4855  002EAE  1034               	iorwf	(??_floorf+2)^0,w,c
  4856  002EB0  1035               	iorwf	(??_floorf+3)^0,w,c
  4857  002EB2  B4D8               	btfsc	status,2,c
  4858  002EB4  EF5E  F017         	goto	u4371
  4859  002EB8  EF60  F017         	goto	u4370
  4860  002EBC                     u4371:
  4861  002EBC  EF68  F017         	goto	l3769
  4862  002EC0                     u4370:
  4863  002EC0  0E00               	movlw	0
  4864  002EC2  6E3E               	movwf	floorf@u^0,c
  4865  002EC4  0E00               	movlw	0
  4866  002EC6  6E3F               	movwf	(floorf@u+1)^0,c
  4867  002EC8  0E80               	movlw	128
  4868  002ECA  6E40               	movwf	(floorf@u+2)^0,c
  4869  002ECC  0EBF               	movlw	191
  4870  002ECE  6E41               	movwf	(floorf@u+3)^0,c
  4871  002ED0                     l3769:
  4872  002ED0  C03E  F02E         	movff	floorf@u,?_floorf
  4873  002ED4  C03F  F02F         	movff	floorf@u+1,?_floorf+1
  4874  002ED8  C040  F030         	movff	floorf@u+2,?_floorf+2
  4875  002EDC  C041  F031         	movff	floorf@u+3,?_floorf+3
  4876  002EE0                     l1073:
  4877  002EE0  0012               	return		;funcret
  4878  002EE2                     __end_of_floorf:
  4879                           	callstack 0
  4880                           
  4881 ;; *************** function ___fpclassifyf *****************
  4882 ;; Defined at:
  4883 ;;		line 4 in file "C:\Program Files\Microchip\xc8\v2.20\pic\sources\c99\common\__fpclassifyf.c"
  4884 ;; Parameters:    Size  Location     Type
  4885 ;;  x               4    0[COMRAM] float 
  4886 ;; Auto vars:     Size  Location     Type
  4887 ;;  u               4   10[COMRAM] struct .
  4888 ;;  e               2    8[COMRAM] int 
  4889 ;; Return value:  Size  Location     Type
  4890 ;;                  2    0[COMRAM] int 
  4891 ;; Registers used:
  4892 ;;		wreg, status,2, status,0
  4893 ;; Tracked objects:
  4894 ;;		On entry : 0/0
  4895 ;;		On exit  : 0/0
  4896 ;;		Unchanged: 0/0
  4897 ;; Data sizes:     COMRAM   BANK0   BANK1   BANK2   BANK3   BANK4   BANK5   BANK6   BANK7
  4898 ;;      Params:         4       0       0       0       0       0       0       0       0
  4899 ;;      Locals:         6       0       0       0       0       0       0       0       0
  4900 ;;      Temps:          4       0       0       0       0       0       0       0       0
  4901 ;;      Totals:        14       0       0       0       0       0       0       0       0
  4902 ;;Total ram usage:       14 bytes
  4903 ;; Hardware stack levels used:    1
  4904 ;; Hardware stack levels required when called:    1
  4905 ;; This function calls:
  4906 ;;		Nothing
  4907 ;; This function is called by:
  4908 ;;		_efgtoa
  4909 ;; This function uses a non-reentrant model
  4910 ;;
  4911                           
  4912                           	psect	text10
  4913  00371C                     __ptext10:
  4914                           	callstack 0
  4915  00371C                     ___fpclassifyf:
  4916                           	callstack 25
  4917  00371C  C104  F00B         	movff	___fpclassifyf@F463,___fpclassifyf@u
  4918  003720  C105  F00C         	movff	___fpclassifyf@F463+1,___fpclassifyf@u+1
  4919  003724  C106  F00D         	movff	___fpclassifyf@F463+2,___fpclassifyf@u+2
  4920  003728  C107  F00E         	movff	___fpclassifyf@F463+3,___fpclassifyf@u+3
  4921  00372C  C001  F00B         	movff	___fpclassifyf@x,___fpclassifyf@u
  4922  003730  C002  F00C         	movff	___fpclassifyf@x+1,___fpclassifyf@u+1
  4923  003734  C003  F00D         	movff	___fpclassifyf@x+2,___fpclassifyf@u+2
  4924  003738  C004  F00E         	movff	___fpclassifyf@x+3,___fpclassifyf@u+3
  4925  00373C  C00B  F005         	movff	___fpclassifyf@u,??___fpclassifyf
  4926  003740  C00C  F006         	movff	___fpclassifyf@u+1,??___fpclassifyf+1
  4927  003744  C00D  F007         	movff	___fpclassifyf@u+2,??___fpclassifyf+2
  4928  003748  C00E  F008         	movff	___fpclassifyf@u+3,??___fpclassifyf+3
  4929  00374C  0E18               	movlw	24
  4930  00374E  EFAE  F01B         	goto	u4160
  4931  003752                     u4165:
  4932  003752  90D8               	bcf	status,0,c
  4933  003754  3208               	rrcf	(??___fpclassifyf+3)^0,f,c
  4934  003756  3207               	rrcf	(??___fpclassifyf+2)^0,f,c
  4935  003758  3206               	rrcf	(??___fpclassifyf+1)^0,f,c
  4936  00375A  3205               	rrcf	??___fpclassifyf^0,f,c
  4937  00375C                     u4160:
  4938  00375C  2EE8               	decfsz	wreg,f,c
  4939  00375E  EFA9  F01B         	goto	u4165
  4940  003762  5005               	movf	??___fpclassifyf^0,w,c
  4941  003764  6E09               	movwf	___fpclassifyf@e^0,c
  4942  003766  6A0A               	clrf	(___fpclassifyf@e+1)^0,c
  4943  003768  5009               	movf	___fpclassifyf@e^0,w,c
  4944  00376A  100A               	iorwf	(___fpclassifyf@e+1)^0,w,c
  4945  00376C  A4D8               	btfss	status,2,c
  4946  00376E  EFBB  F01B         	goto	u4171
  4947  003772  EFBD  F01B         	goto	u4170
  4948  003776                     u4171:
  4949  003776  EFDD  F01B         	goto	l3721
  4950  00377A                     u4170:
  4951  00377A  90D8               	bcf	status,0,c
  4952  00377C  340B               	rlcf	___fpclassifyf@u^0,w,c
  4953  00377E  6E05               	movwf	??___fpclassifyf^0,c
  4954  003780  340C               	rlcf	(___fpclassifyf@u+1)^0,w,c
  4955  003782  6E06               	movwf	(??___fpclassifyf+1)^0,c
  4956  003784  340D               	rlcf	(___fpclassifyf@u+2)^0,w,c
  4957  003786  6E07               	movwf	(??___fpclassifyf+2)^0,c
  4958  003788  340E               	rlcf	(___fpclassifyf@u+3)^0,w,c
  4959  00378A  6E08               	movwf	(??___fpclassifyf+3)^0,c
  4960  00378C  5005               	movf	??___fpclassifyf^0,w,c
  4961  00378E  1006               	iorwf	(??___fpclassifyf+1)^0,w,c
  4962  003790  1007               	iorwf	(??___fpclassifyf+2)^0,w,c
  4963  003792  1008               	iorwf	(??___fpclassifyf+3)^0,w,c
  4964  003794  A4D8               	btfss	status,2,c
  4965  003796  EFCF  F01B         	goto	u4181
  4966  00379A  EFD1  F01B         	goto	u4180
  4967  00379E                     u4181:
  4968  00379E  EFD7  F01B         	goto	l3717
  4969  0037A2                     u4180:
  4970  0037A2  0E00               	movlw	0
  4971  0037A4  6E02               	movwf	(?___fpclassifyf+1)^0,c
  4972  0037A6  0E02               	movlw	2
  4973  0037A8  6E01               	movwf	?___fpclassifyf^0,c
  4974  0037AA  EF0C  F01C         	goto	l1028
  4975  0037AE                     l3717:
  4976  0037AE  0E00               	movlw	0
  4977  0037B0  6E02               	movwf	(?___fpclassifyf+1)^0,c
  4978  0037B2  0E03               	movlw	3
  4979  0037B4  6E01               	movwf	?___fpclassifyf^0,c
  4980  0037B6  EF0C  F01C         	goto	l1028
  4981  0037BA                     l3721:
  4982  0037BA  2809               	incf	___fpclassifyf@e^0,w,c
  4983  0037BC  100A               	iorwf	(___fpclassifyf@e+1)^0,w,c
  4984  0037BE  A4D8               	btfss	status,2,c
  4985  0037C0  EFE4  F01B         	goto	u4191
  4986  0037C4  EFE6  F01B         	goto	u4190
  4987  0037C8                     u4191:
  4988  0037C8  EF08  F01C         	goto	l3727
  4989  0037CC                     u4190:
  4990  0037CC  C00B  F005         	movff	___fpclassifyf@u,??___fpclassifyf
  4991  0037D0  C00C  F006         	movff	___fpclassifyf@u+1,??___fpclassifyf+1
  4992  0037D4  C00D  F007         	movff	___fpclassifyf@u+2,??___fpclassifyf+2
  4993  0037D8  C00E  F008         	movff	___fpclassifyf@u+3,??___fpclassifyf+3
  4994  0037DC  0E09               	movlw	9
  4995  0037DE                     u4205:
  4996  0037DE  90D8               	bcf	status,0,c
  4997  0037E0  3605               	rlcf	??___fpclassifyf^0,f,c
  4998  0037E2  3606               	rlcf	(??___fpclassifyf+1)^0,f,c
  4999  0037E4  3607               	rlcf	(??___fpclassifyf+2)^0,f,c
  5000  0037E6  3608               	rlcf	(??___fpclassifyf+3)^0,f,c
  5001  0037E8  2EE8               	decfsz	wreg,f,c
  5002  0037EA  EFEF  F01B         	goto	u4205
  5003  0037EE  5005               	movf	??___fpclassifyf^0,w,c
  5004  0037F0  1006               	iorwf	(??___fpclassifyf+1)^0,w,c
  5005  0037F2  1007               	iorwf	(??___fpclassifyf+2)^0,w,c
  5006  0037F4  1008               	iorwf	(??___fpclassifyf+3)^0,w,c
  5007  0037F6  B4D8               	btfsc	status,2,c
  5008  0037F8  EF00  F01C         	goto	u4211
  5009  0037FC  EF03  F01C         	goto	u4210
  5010  003800                     u4211:
  5011  003800  0E01               	movlw	1
  5012  003802  EF04  F01C         	goto	u4220
  5013  003806                     u4210:
  5014  003806  0E00               	movlw	0
  5015  003808                     u4220:
  5016  003808  6E01               	movwf	?___fpclassifyf^0,c
  5017  00380A  6A02               	clrf	(?___fpclassifyf+1)^0,c
  5018  00380C  EF0C  F01C         	goto	l1028
  5019  003810                     l3727:
  5020  003810  0E00               	movlw	0
  5021  003812  6E02               	movwf	(?___fpclassifyf+1)^0,c
  5022  003814  0E04               	movlw	4
  5023  003816  6E01               	movwf	?___fpclassifyf^0,c
  5024  003818                     l1028:
  5025  003818  0012               	return		;funcret
  5026  00381A                     __end_of___fpclassifyf:
  5027                           	callstack 0
  5028                           
  5029 ;; *************** function ___fltol *****************
  5030 ;; Defined at:
  5031 ;;		line 43 in file "C:\Program Files\Microchip\xc8\v2.20\pic\sources\c99\common\fltol.c"
  5032 ;; Parameters:    Size  Location     Type
  5033 ;;  f1              4   70[COMRAM] int 
  5034 ;; Auto vars:     Size  Location     Type
  5035 ;;  exp1            1   79[COMRAM] unsigned char 
  5036 ;;  sign1           1   78[COMRAM] unsigned char 
  5037 ;; Return value:  Size  Location     Type
  5038 ;;                  4   70[COMRAM] long 
  5039 ;; Registers used:
  5040 ;;		wreg, status,2, status,0
  5041 ;; Tracked objects:
  5042 ;;		On entry : 0/0
  5043 ;;		On exit  : 0/0
  5044 ;;		Unchanged: 0/0
  5045 ;; Data sizes:     COMRAM   BANK0   BANK1   BANK2   BANK3   BANK4   BANK5   BANK6   BANK7
  5046 ;;      Params:         4       0       0       0       0       0       0       0       0
  5047 ;;      Locals:         2       0       0       0       0       0       0       0       0
  5048 ;;      Temps:          4       0       0       0       0       0       0       0       0
  5049 ;;      Totals:        10       0       0       0       0       0       0       0       0
  5050 ;;Total ram usage:       10 bytes
  5051 ;; Hardware stack levels used:    1
  5052 ;; Hardware stack levels required when called:    1
  5053 ;; This function calls:
  5054 ;;		Nothing
  5055 ;; This function is called by:
  5056 ;;		_main
  5057 ;;		_efgtoa
  5058 ;; This function uses a non-reentrant model
  5059 ;;
  5060                           
  5061                           	psect	text11
  5062  003512                     __ptext11:
  5063                           	callstack 0
  5064  003512                     ___fltol:
  5065                           	callstack 25
  5066  003512  3449               	rlcf	(___fltol@f1+2)^0,w,c
  5067  003514  344A               	rlcf	(___fltol@f1+3)^0,w,c
  5068  003516  6E50               	movwf	___fltol@exp1^0,c
  5069  003518  5050               	movf	___fltol@exp1^0,w,c
  5070  00351A  A4D8               	btfss	status,2,c
  5071  00351C  EF92  F01A         	goto	u4041
  5072  003520  EF94  F01A         	goto	u4040
  5073  003524                     u4041:
  5074  003524  EF9E  F01A         	goto	l3645
  5075  003528                     u4040:
  5076  003528                     l3641:
  5077  003528  0E00               	movlw	0
  5078  00352A  6E47               	movwf	?___fltol^0,c
  5079  00352C  0E00               	movlw	0
  5080  00352E  6E48               	movwf	(?___fltol+1)^0,c
  5081  003530  0E00               	movlw	0
  5082  003532  6E49               	movwf	(?___fltol+2)^0,c
  5083  003534  0E00               	movlw	0
  5084  003536  6E4A               	movwf	(?___fltol+3)^0,c
  5085  003538  EF0B  F01B         	goto	l428
  5086  00353C                     l3645:
  5087  00353C  C047  F04B         	movff	___fltol@f1,??___fltol
  5088  003540  C048  F04C         	movff	___fltol@f1+1,??___fltol+1
  5089  003544  C049  F04D         	movff	___fltol@f1+2,??___fltol+2
  5090  003548  C04A  F04E         	movff	___fltol@f1+3,??___fltol+3
  5091  00354C  0E20               	movlw	32
  5092  00354E  EFAE  F01A         	goto	u4050
  5093  003552                     u4055:
  5094  003552  90D8               	bcf	status,0,c
  5095  003554  324E               	rrcf	(??___fltol+3)^0,f,c
  5096  003556  324D               	rrcf	(??___fltol+2)^0,f,c
  5097  003558  324C               	rrcf	(??___fltol+1)^0,f,c
  5098  00355A  324B               	rrcf	??___fltol^0,f,c
  5099  00355C                     u4050:
  5100  00355C  2EE8               	decfsz	wreg,f,c
  5101  00355E  EFA9  F01A         	goto	u4055
  5102  003562  504B               	movf	??___fltol^0,w,c
  5103  003564  6E4F               	movwf	___fltol@sign1^0,c
  5104  003566  8E49               	bsf	(___fltol@f1+2)^0,7,c
  5105  003568  0EFF               	movlw	255
  5106  00356A  1647               	andwf	___fltol@f1^0,f,c
  5107  00356C  0EFF               	movlw	255
  5108  00356E  1648               	andwf	(___fltol@f1+1)^0,f,c
  5109  003570  0EFF               	movlw	255
  5110  003572  1649               	andwf	(___fltol@f1+2)^0,f,c
  5111  003574  0E00               	movlw	0
  5112  003576  164A               	andwf	(___fltol@f1+3)^0,f,c
  5113  003578  0E96               	movlw	150
  5114  00357A  5E50               	subwf	___fltol@exp1^0,f,c
  5115  00357C  BE50               	btfsc	___fltol@exp1^0,7,c
  5116  00357E  EFC5  F01A         	goto	u4060
  5117  003582  EFC3  F01A         	goto	u4061
  5118  003586                     u4061:
  5119  003586  EFDB  F01A         	goto	l3665
  5120  00358A                     u4060:
  5121  00358A  5050               	movf	___fltol@exp1^0,w,c
  5122  00358C  0A80               	xorlw	128
  5123  00358E  0F97               	addlw	151
  5124  003590  B0D8               	btfsc	status,0,c
  5125  003592  EFCD  F01A         	goto	u4071
  5126  003596  EFCF  F01A         	goto	u4070
  5127  00359A                     u4071:
  5128  00359A  EFD1  F01A         	goto	l3661
  5129  00359E                     u4070:
  5130  00359E  EF94  F01A         	goto	l3641
  5131  0035A2                     l3661:
  5132  0035A2  90D8               	bcf	status,0,c
  5133  0035A4  324A               	rrcf	(___fltol@f1+3)^0,f,c
  5134  0035A6  3249               	rrcf	(___fltol@f1+2)^0,f,c
  5135  0035A8  3248               	rrcf	(___fltol@f1+1)^0,f,c
  5136  0035AA  3247               	rrcf	___fltol@f1^0,f,c
  5137  0035AC  3E50               	incfsz	___fltol@exp1^0,f,c
  5138  0035AE  EFD1  F01A         	goto	l3661
  5139  0035B2  EFF3  F01A         	goto	l3675
  5140  0035B6                     l3665:
  5141  0035B6  0E1F               	movlw	31
  5142  0035B8  6450               	cpfsgt	___fltol@exp1^0,c
  5143  0035BA  EFE1  F01A         	goto	u4081
  5144  0035BE  EFE3  F01A         	goto	u4080
  5145  0035C2                     u4081:
  5146  0035C2  EFEB  F01A         	goto	l3673
  5147  0035C6                     u4080:
  5148  0035C6  EF94  F01A         	goto	l3641
  5149  0035CA                     l3671:
  5150  0035CA  90D8               	bcf	status,0,c
  5151  0035CC  3647               	rlcf	___fltol@f1^0,f,c
  5152  0035CE  3648               	rlcf	(___fltol@f1+1)^0,f,c
  5153  0035D0  3649               	rlcf	(___fltol@f1+2)^0,f,c
  5154  0035D2  364A               	rlcf	(___fltol@f1+3)^0,f,c
  5155  0035D4  0650               	decf	___fltol@exp1^0,f,c
  5156  0035D6                     l3673:
  5157  0035D6  5050               	movf	___fltol@exp1^0,w,c
  5158  0035D8  A4D8               	btfss	status,2,c
  5159  0035DA  EFF1  F01A         	goto	u4091
  5160  0035DE  EFF3  F01A         	goto	u4090
  5161  0035E2                     u4091:
  5162  0035E2  EFE5  F01A         	goto	l3671
  5163  0035E6                     u4090:
  5164  0035E6                     l3675:
  5165  0035E6  504F               	movf	___fltol@sign1^0,w,c
  5166  0035E8  B4D8               	btfsc	status,2,c
  5167  0035EA  EFF9  F01A         	goto	u4101
  5168  0035EE  EFFB  F01A         	goto	u4100
  5169  0035F2                     u4101:
  5170  0035F2  EF03  F01B         	goto	l3679
  5171  0035F6                     u4100:
  5172  0035F6  1E4A               	comf	(___fltol@f1+3)^0,f,c
  5173  0035F8  1E49               	comf	(___fltol@f1+2)^0,f,c
  5174  0035FA  1E48               	comf	(___fltol@f1+1)^0,f,c
  5175  0035FC  6C47               	negf	___fltol@f1^0,c
  5176  0035FE  0E00               	movlw	0
  5177  003600  2248               	addwfc	(___fltol@f1+1)^0,f,c
  5178  003602  2249               	addwfc	(___fltol@f1+2)^0,f,c
  5179  003604  224A               	addwfc	(___fltol@f1+3)^0,f,c
  5180  003606                     l3679:
  5181  003606  C047  F047         	movff	___fltol@f1,?___fltol
  5182  00360A  C048  F048         	movff	___fltol@f1+1,?___fltol+1
  5183  00360E  C049  F049         	movff	___fltol@f1+2,?___fltol+2
  5184  003612  C04A  F04A         	movff	___fltol@f1+3,?___fltol+3
  5185  003616                     l428:
  5186  003616  0012               	return		;funcret
  5187  003618                     __end_of___fltol:
  5188                           	callstack 0
  5189                           
  5190 ;; *************** function ___flsub *****************
  5191 ;; Defined at:
  5192 ;;		line 245 in file "C:\Program Files\Microchip\xc8\v2.20\pic\sources\c99\common\sprcadd.c"
  5193 ;; Parameters:    Size  Location     Type
  5194 ;;  b               4   86[COMRAM] long 
  5195 ;;  a               4   90[COMRAM] long 
  5196 ;; Auto vars:     Size  Location     Type
  5197 ;;		None
  5198 ;; Return value:  Size  Location     Type
  5199 ;;                  4   86[COMRAM] long 
  5200 ;; Registers used:
  5201 ;;		wreg, status,2, status,0, cstack
  5202 ;; Tracked objects:
  5203 ;;		On entry : 0/0
  5204 ;;		On exit  : 0/0
  5205 ;;		Unchanged: 0/0
  5206 ;; Data sizes:     COMRAM   BANK0   BANK1   BANK2   BANK3   BANK4   BANK5   BANK6   BANK7
  5207 ;;      Params:         8       0       0       0       0       0       0       0       0
  5208 ;;      Locals:         0       0       0       0       0       0       0       0       0
  5209 ;;      Temps:          0       0       0       0       0       0       0       0       0
  5210 ;;      Totals:         8       0       0       0       0       0       0       0       0
  5211 ;;Total ram usage:        8 bytes
  5212 ;; Hardware stack levels used:    1
  5213 ;; Hardware stack levels required when called:    2
  5214 ;; This function calls:
  5215 ;;		___fladd
  5216 ;; This function is called by:
  5217 ;;		_efgtoa
  5218 ;; This function uses a non-reentrant model
  5219 ;;
  5220                           
  5221                           	psect	text12
  5222  003FFA                     __ptext12:
  5223                           	callstack 0
  5224  003FFA                     ___flsub:
  5225                           	callstack 24
  5226  003FFA  0E00               	movlw	0
  5227  003FFC  1A5B               	xorwf	___flsub@a^0,f,c
  5228  003FFE  0E00               	movlw	0
  5229  004000  1A5C               	xorwf	(___flsub@a+1)^0,f,c
  5230  004002  0E00               	movlw	0
  5231  004004  1A5D               	xorwf	(___flsub@a+2)^0,f,c
  5232  004006  0E80               	movlw	128
  5233  004008  1A5E               	xorwf	(___flsub@a+3)^0,f,c
  5234  00400A  C057  F047         	movff	___flsub@b,___fladd@b
  5235  00400E  C058  F048         	movff	___flsub@b+1,___fladd@b+1
  5236  004012  C059  F049         	movff	___flsub@b+2,___fladd@b+2
  5237  004016  C05A  F04A         	movff	___flsub@b+3,___fladd@b+3
  5238  00401A  C05B  F04B         	movff	___flsub@a,___fladd@a
  5239  00401E  C05C  F04C         	movff	___flsub@a+1,___fladd@a+1
  5240  004022  C05D  F04D         	movff	___flsub@a+2,___fladd@a+2
  5241  004026  C05E  F04E         	movff	___flsub@a+3,___fladd@a+3
  5242  00402A  EC0F  F00D         	call	___fladd	;wreg free
  5243  00402E  C047  F057         	movff	?___fladd,?___flsub
  5244  004032  C048  F058         	movff	?___fladd+1,?___flsub+1
  5245  004036  C049  F059         	movff	?___fladd+2,?___flsub+2
  5246  00403A  C04A  F05A         	movff	?___fladd+3,?___flsub+3
  5247  00403E  0012               	return		;funcret
  5248  004040                     __end_of___flsub:
  5249                           	callstack 0
  5250                           
  5251 ;; *************** function ___fladd *****************
  5252 ;; Defined at:
  5253 ;;		line 10 in file "C:\Program Files\Microchip\xc8\v2.20\pic\sources\c99\common\sprcadd.c"
  5254 ;; Parameters:    Size  Location     Type
  5255 ;;  b               4   70[COMRAM] long 
  5256 ;;  a               4   74[COMRAM] long 
  5257 ;; Auto vars:     Size  Location     Type
  5258 ;;  grs             1   85[COMRAM] unsigned char 
  5259 ;;  bexp            1   84[COMRAM] unsigned char 
  5260 ;;  aexp            1   83[COMRAM] unsigned char 
  5261 ;;  signs           1   82[COMRAM] unsigned char 
  5262 ;; Return value:  Size  Location     Type
  5263 ;;                  4   70[COMRAM] unsigned char 
  5264 ;; Registers used:
  5265 ;;		wreg, status,2, status,0
  5266 ;; Tracked objects:
  5267 ;;		On entry : 0/0
  5268 ;;		On exit  : 0/0
  5269 ;;		Unchanged: 0/0
  5270 ;; Data sizes:     COMRAM   BANK0   BANK1   BANK2   BANK3   BANK4   BANK5   BANK6   BANK7
  5271 ;;      Params:         8       0       0       0       0       0       0       0       0
  5272 ;;      Locals:         4       0       0       0       0       0       0       0       0
  5273 ;;      Temps:          4       0       0       0       0       0       0       0       0
  5274 ;;      Totals:        16       0       0       0       0       0       0       0       0
  5275 ;;Total ram usage:       16 bytes
  5276 ;; Hardware stack levels used:    1
  5277 ;; Hardware stack levels required when called:    1
  5278 ;; This function calls:
  5279 ;;		Nothing
  5280 ;; This function is called by:
  5281 ;;		_main
  5282 ;;		___flsub
  5283 ;;		_efgtoa
  5284 ;; This function uses a non-reentrant model
  5285 ;;
  5286                           
  5287                           	psect	text13
  5288  001A1E                     __ptext13:
  5289                           	callstack 0
  5290  001A1E                     ___fladd:
  5291                           	callstack 24
  5292  001A1E  504A               	movf	(___fladd@b+3)^0,w,c
  5293  001A20  0B80               	andlw	128
  5294  001A22  6E53               	movwf	___fladd@signs^0,c
  5295  001A24  504A               	movf	(___fladd@b+3)^0,w,c
  5296  001A26  244A               	addwf	(___fladd@b+3)^0,w,c
  5297  001A28  6E55               	movwf	___fladd@bexp^0,c
  5298  001A2A  AE49               	btfss	(___fladd@b+2)^0,7,c
  5299  001A2C  EF1A  F00D         	goto	u2851
  5300  001A30  EF1C  F00D         	goto	u2850
  5301  001A34                     u2851:
  5302  001A34  EF1D  F00D         	goto	l2935
  5303  001A38                     u2850:
  5304  001A38  8055               	bsf	___fladd@bexp^0,0,c
  5305  001A3A                     l2935:
  5306  001A3A  5055               	movf	___fladd@bexp^0,w,c
  5307  001A3C  B4D8               	btfsc	status,2,c
  5308  001A3E  EF23  F00D         	goto	u2861
  5309  001A42  EF25  F00D         	goto	u2860
  5310  001A46                     u2861:
  5311  001A46  EF3A  F00D         	goto	l2945
  5312  001A4A                     u2860:
  5313  001A4A  2855               	incf	___fladd@bexp^0,w,c
  5314  001A4C  A4D8               	btfss	status,2,c
  5315  001A4E  EF2B  F00D         	goto	u2871
  5316  001A52  EF2D  F00D         	goto	u2870
  5317  001A56                     u2871:
  5318  001A56  EF35  F00D         	goto	l2941
  5319  001A5A                     u2870:
  5320  001A5A  0E00               	movlw	0
  5321  001A5C  6E47               	movwf	___fladd@b^0,c
  5322  001A5E  0E00               	movlw	0
  5323  001A60  6E48               	movwf	(___fladd@b+1)^0,c
  5324  001A62  0E00               	movlw	0
  5325  001A64  6E49               	movwf	(___fladd@b+2)^0,c
  5326  001A66  0E00               	movlw	0
  5327  001A68  6E4A               	movwf	(___fladd@b+3)^0,c
  5328  001A6A                     l2941:
  5329  001A6A  8E49               	bsf	(___fladd@b+2)^0,7,c
  5330  001A6C  0E00               	movlw	0
  5331  001A6E  6E4A               	movwf	(___fladd@b+3)^0,c
  5332  001A70  EF42  F00D         	goto	l2947
  5333  001A74                     l2945:
  5334  001A74  0E00               	movlw	0
  5335  001A76  6E47               	movwf	___fladd@b^0,c
  5336  001A78  0E00               	movlw	0
  5337  001A7A  6E48               	movwf	(___fladd@b+1)^0,c
  5338  001A7C  0E00               	movlw	0
  5339  001A7E  6E49               	movwf	(___fladd@b+2)^0,c
  5340  001A80  0E00               	movlw	0
  5341  001A82  6E4A               	movwf	(___fladd@b+3)^0,c
  5342  001A84                     l2947:
  5343  001A84  504E               	movf	(___fladd@a+3)^0,w,c
  5344  001A86  0B80               	andlw	128
  5345  001A88  6E54               	movwf	___fladd@aexp^0,c
  5346  001A8A  5053               	movf	___fladd@signs^0,w,c
  5347  001A8C  1854               	xorwf	___fladd@aexp^0,w,c
  5348  001A8E  B4D8               	btfsc	status,2,c
  5349  001A90  EF4C  F00D         	goto	u2881
  5350  001A94  EF4E  F00D         	goto	u2880
  5351  001A98                     u2881:
  5352  001A98  EF4F  F00D         	goto	l2953
  5353  001A9C                     u2880:
  5354  001A9C  8C53               	bsf	___fladd@signs^0,6,c
  5355  001A9E                     l2953:
  5356  001A9E  504E               	movf	(___fladd@a+3)^0,w,c
  5357  001AA0  244E               	addwf	(___fladd@a+3)^0,w,c
  5358  001AA2  6E54               	movwf	___fladd@aexp^0,c
  5359  001AA4  AE4D               	btfss	(___fladd@a+2)^0,7,c
  5360  001AA6  EF57  F00D         	goto	u2891
  5361  001AAA  EF59  F00D         	goto	u2890
  5362  001AAE                     u2891:
  5363  001AAE  EF5A  F00D         	goto	l2959
  5364  001AB2                     u2890:
  5365  001AB2  8054               	bsf	___fladd@aexp^0,0,c
  5366  001AB4                     l2959:
  5367  001AB4  5054               	movf	___fladd@aexp^0,w,c
  5368  001AB6  B4D8               	btfsc	status,2,c
  5369  001AB8  EF60  F00D         	goto	u2901
  5370  001ABC  EF62  F00D         	goto	u2900
  5371  001AC0                     u2901:
  5372  001AC0  EF77  F00D         	goto	l2969
  5373  001AC4                     u2900:
  5374  001AC4  2854               	incf	___fladd@aexp^0,w,c
  5375  001AC6  A4D8               	btfss	status,2,c
  5376  001AC8  EF68  F00D         	goto	u2911
  5377  001ACC  EF6A  F00D         	goto	u2910
  5378  001AD0                     u2911:
  5379  001AD0  EF72  F00D         	goto	l2965
  5380  001AD4                     u2910:
  5381  001AD4  0E00               	movlw	0
  5382  001AD6  6E4B               	movwf	___fladd@a^0,c
  5383  001AD8  0E00               	movlw	0
  5384  001ADA  6E4C               	movwf	(___fladd@a+1)^0,c
  5385  001ADC  0E00               	movlw	0
  5386  001ADE  6E4D               	movwf	(___fladd@a+2)^0,c
  5387  001AE0  0E00               	movlw	0
  5388  001AE2  6E4E               	movwf	(___fladd@a+3)^0,c
  5389  001AE4                     l2965:
  5390  001AE4  8E4D               	bsf	(___fladd@a+2)^0,7,c
  5391  001AE6  0E00               	movlw	0
  5392  001AE8  6E4E               	movwf	(___fladd@a+3)^0,c
  5393  001AEA  EF7F  F00D         	goto	l2971
  5394  001AEE                     l2969:
  5395  001AEE  0E00               	movlw	0
  5396  001AF0  6E4B               	movwf	___fladd@a^0,c
  5397  001AF2  0E00               	movlw	0
  5398  001AF4  6E4C               	movwf	(___fladd@a+1)^0,c
  5399  001AF6  0E00               	movlw	0
  5400  001AF8  6E4D               	movwf	(___fladd@a+2)^0,c
  5401  001AFA  0E00               	movlw	0
  5402  001AFC  6E4E               	movwf	(___fladd@a+3)^0,c
  5403  001AFE                     l2971:
  5404  001AFE  5055               	movf	___fladd@bexp^0,w,c
  5405  001B00  5C54               	subwf	___fladd@aexp^0,w,c
  5406  001B02  B0D8               	btfsc	status,0,c
  5407  001B04  EF86  F00D         	goto	u2921
  5408  001B08  EF88  F00D         	goto	u2920
  5409  001B0C                     u2921:
  5410  001B0C  EFAF  F00D         	goto	l3007
  5411  001B10                     u2920:
  5412  001B10  AC53               	btfss	___fladd@signs^0,6,c
  5413  001B12  EF8D  F00D         	goto	u2931
  5414  001B16  EF8F  F00D         	goto	u2930
  5415  001B1A                     u2931:
  5416  001B1A  EF91  F00D         	goto	l2977
  5417  001B1E                     u2930:
  5418  001B1E  0E80               	movlw	128
  5419  001B20  1A53               	xorwf	___fladd@signs^0,f,c
  5420  001B22                     l2977:
  5421  001B22  C055  F056         	movff	___fladd@bexp,___fladd@grs
  5422  001B26  C054  F055         	movff	___fladd@aexp,___fladd@bexp
  5423  001B2A  C056  F054         	movff	___fladd@grs,___fladd@aexp
  5424  001B2E  C047  F056         	movff	___fladd@b,___fladd@grs
  5425  001B32  C04B  F047         	movff	___fladd@a,___fladd@b
  5426  001B36  C056  F04B         	movff	___fladd@grs,___fladd@a
  5427  001B3A  C048  F056         	movff	___fladd@b+1,___fladd@grs
  5428  001B3E  C04C  F048         	movff	___fladd@a+1,___fladd@b+1
  5429  001B42  C056  F04C         	movff	___fladd@grs,___fladd@a+1
  5430  001B46  C049  F056         	movff	___fladd@b+2,___fladd@grs
  5431  001B4A  C04D  F049         	movff	___fladd@a+2,___fladd@b+2
  5432  001B4E  C056  F04D         	movff	___fladd@grs,___fladd@a+2
  5433  001B52  C04A  F056         	movff	___fladd@b+3,___fladd@grs
  5434  001B56  C04E  F04A         	movff	___fladd@a+3,___fladd@b+3
  5435  001B5A  C056  F04E         	movff	___fladd@grs,___fladd@a+3
  5436  001B5E                     l3007:
  5437  001B5E  0E00               	movlw	0
  5438  001B60  6E56               	movwf	___fladd@grs^0,c
  5439  001B62  5055               	movf	___fladd@bexp^0,w,c
  5440  001B64  C054  F04F         	movff	___fladd@aexp,??___fladd
  5441  001B68  6A50               	clrf	(??___fladd+1)^0,c
  5442  001B6A  5E4F               	subwf	??___fladd^0,f,c
  5443  001B6C  0E00               	movlw	0
  5444  001B6E  5A50               	subwfb	(??___fladd+1)^0,f,c
  5445  001B70  BE50               	btfsc	(??___fladd+1)^0,7,c
  5446  001B72  EFC4  F00D         	goto	u2941
  5447  001B76  5050               	movf	(??___fladd+1)^0,w,c
  5448  001B78  E109               	bnz	u2940
  5449  001B7A  0E1A               	movlw	26
  5450  001B7C  5C4F               	subwf	??___fladd^0,w,c
  5451  001B7E  A0D8               	btfss	status,0,c
  5452  001B80  EFC4  F00D         	goto	u2941
  5453  001B84  EFC6  F00D         	goto	u2940
  5454  001B88                     u2941:
  5455  001B88  EFFD  F00D         	goto	l660
  5456  001B8C                     u2940:
  5457  001B8C  5047               	movf	___fladd@b^0,w,c
  5458  001B8E  1048               	iorwf	(___fladd@b+1)^0,w,c
  5459  001B90  1049               	iorwf	(___fladd@b+2)^0,w,c
  5460  001B92  104A               	iorwf	(___fladd@b+3)^0,w,c
  5461  001B94  A4D8               	btfss	status,2,c
  5462  001B96  EFCF  F00D         	goto	u2951
  5463  001B9A  EFD2  F00D         	goto	u2950
  5464  001B9E                     u2951:
  5465  001B9E  0E01               	movlw	1
  5466  001BA0  EFD3  F00D         	goto	u2960
  5467  001BA4                     u2950:
  5468  001BA4  0E00               	movlw	0
  5469  001BA6                     u2960:
  5470  001BA6  6E56               	movwf	___fladd@grs^0,c
  5471  001BA8  0E00               	movlw	0
  5472  001BAA  6E47               	movwf	___fladd@b^0,c
  5473  001BAC  0E00               	movlw	0
  5474  001BAE  6E48               	movwf	(___fladd@b+1)^0,c
  5475  001BB0  0E00               	movlw	0
  5476  001BB2  6E49               	movwf	(___fladd@b+2)^0,c
  5477  001BB4  0E00               	movlw	0
  5478  001BB6  6E4A               	movwf	(___fladd@b+3)^0,c
  5479  001BB8  C054  F055         	movff	___fladd@aexp,___fladd@bexp
  5480  001BBC  EF06  F00E         	goto	l659
  5481  001BC0                     l661:
  5482  001BC0  A056               	btfss	___fladd@grs^0,0,c
  5483  001BC2  EFE5  F00D         	goto	u2971
  5484  001BC6  EFE7  F00D         	goto	u2970
  5485  001BCA                     u2971:
  5486  001BCA  EFED  F00D         	goto	l3019
  5487  001BCE                     u2970:
  5488  001BCE  90D8               	bcf	status,0,c
  5489  001BD0  3056               	rrcf	___fladd@grs^0,w,c
  5490  001BD2  0901               	iorlw	1
  5491  001BD4  6E56               	movwf	___fladd@grs^0,c
  5492  001BD6  EFEF  F00D         	goto	l3021
  5493  001BDA                     l3019:
  5494  001BDA  90D8               	bcf	status,0,c
  5495  001BDC  3256               	rrcf	___fladd@grs^0,f,c
  5496  001BDE                     l3021:
  5497  001BDE  A047               	btfss	___fladd@b^0,0,c
  5498  001BE0  EFF4  F00D         	goto	u2981
  5499  001BE4  EFF6  F00D         	goto	u2980
  5500  001BE8                     u2981:
  5501  001BE8  EFF7  F00D         	goto	l3025
  5502  001BEC                     u2980:
  5503  001BEC  8E56               	bsf	___fladd@grs^0,7,c
  5504  001BEE                     l3025:
  5505  001BEE  344A               	rlcf	(___fladd@b+3)^0,w,c
  5506  001BF0  324A               	rrcf	(___fladd@b+3)^0,f,c
  5507  001BF2  3249               	rrcf	(___fladd@b+2)^0,f,c
  5508  001BF4  3248               	rrcf	(___fladd@b+1)^0,f,c
  5509  001BF6  3247               	rrcf	___fladd@b^0,f,c
  5510  001BF8  2A55               	incf	___fladd@bexp^0,f,c
  5511  001BFA                     l660:
  5512  001BFA  5054               	movf	___fladd@aexp^0,w,c
  5513  001BFC  5C55               	subwf	___fladd@bexp^0,w,c
  5514  001BFE  A0D8               	btfss	status,0,c
  5515  001C00  EF04  F00E         	goto	u2991
  5516  001C04  EF06  F00E         	goto	u2990
  5517  001C08                     u2991:
  5518  001C08  EFE0  F00D         	goto	l661
  5519  001C0C                     u2990:
  5520  001C0C                     l659:
  5521  001C0C  BC53               	btfsc	___fladd@signs^0,6,c
  5522  001C0E  EF0B  F00E         	goto	u3001
  5523  001C12  EF0D  F00E         	goto	u3000
  5524  001C16                     u3001:
  5525  001C16  EF4D  F00E         	goto	l3053
  5526  001C1A                     u3000:
  5527  001C1A  5055               	movf	___fladd@bexp^0,w,c
  5528  001C1C  A4D8               	btfss	status,2,c
  5529  001C1E  EF13  F00E         	goto	u3011
  5530  001C22  EF15  F00E         	goto	u3010
  5531  001C26                     u3011:
  5532  001C26  EF1F  F00E         	goto	l3035
  5533  001C2A                     u3010:
  5534  001C2A  0E00               	movlw	0
  5535  001C2C  6E47               	movwf	?___fladd^0,c
  5536  001C2E  0E00               	movlw	0
  5537  001C30  6E48               	movwf	(?___fladd+1)^0,c
  5538  001C32  0E00               	movlw	0
  5539  001C34  6E49               	movwf	(?___fladd+2)^0,c
  5540  001C36  0E00               	movlw	0
  5541  001C38  6E4A               	movwf	(?___fladd+3)^0,c
  5542  001C3A  EF6E  F00F         	goto	l668
  5543  001C3E                     l3035:
  5544  001C3E  504B               	movf	___fladd@a^0,w,c
  5545  001C40  2647               	addwf	___fladd@b^0,f,c
  5546  001C42  504C               	movf	(___fladd@a+1)^0,w,c
  5547  001C44  2248               	addwfc	(___fladd@b+1)^0,f,c
  5548  001C46  504D               	movf	(___fladd@a+2)^0,w,c
  5549  001C48  2249               	addwfc	(___fladd@b+2)^0,f,c
  5550  001C4A  504E               	movf	(___fladd@a+3)^0,w,c
  5551  001C4C  224A               	addwfc	(___fladd@b+3)^0,f,c
  5552  001C4E  A04A               	btfss	(___fladd@b+3)^0,0,c
  5553  001C50  EF2C  F00E         	goto	u3021
  5554  001C54  EF2E  F00E         	goto	u3020
  5555  001C58                     u3021:
  5556  001C58  EFDA  F00E         	goto	l3089
  5557  001C5C                     u3020:
  5558  001C5C  A056               	btfss	___fladd@grs^0,0,c
  5559  001C5E  EF33  F00E         	goto	u3031
  5560  001C62  EF35  F00E         	goto	u3030
  5561  001C66                     u3031:
  5562  001C66  EF3B  F00E         	goto	l3043
  5563  001C6A                     u3030:
  5564  001C6A  90D8               	bcf	status,0,c
  5565  001C6C  3056               	rrcf	___fladd@grs^0,w,c
  5566  001C6E  0901               	iorlw	1
  5567  001C70  6E56               	movwf	___fladd@grs^0,c
  5568  001C72  EF3D  F00E         	goto	l3045
  5569  001C76                     l3043:
  5570  001C76  90D8               	bcf	status,0,c
  5571  001C78  3256               	rrcf	___fladd@grs^0,f,c
  5572  001C7A                     l3045:
  5573  001C7A  A047               	btfss	___fladd@b^0,0,c
  5574  001C7C  EF42  F00E         	goto	u3041
  5575  001C80  EF44  F00E         	goto	u3040
  5576  001C84                     u3041:
  5577  001C84  EF45  F00E         	goto	l3049
  5578  001C88                     u3040:
  5579  001C88  8E56               	bsf	___fladd@grs^0,7,c
  5580  001C8A                     l3049:
  5581  001C8A  344A               	rlcf	(___fladd@b+3)^0,w,c
  5582  001C8C  324A               	rrcf	(___fladd@b+3)^0,f,c
  5583  001C8E  3249               	rrcf	(___fladd@b+2)^0,f,c
  5584  001C90  3248               	rrcf	(___fladd@b+1)^0,f,c
  5585  001C92  3247               	rrcf	___fladd@b^0,f,c
  5586  001C94  2A55               	incf	___fladd@bexp^0,f,c
  5587  001C96  EFDA  F00E         	goto	l3089
  5588  001C9A                     l3053:
  5589  001C9A  504B               	movf	___fladd@a^0,w,c
  5590  001C9C  5C47               	subwf	___fladd@b^0,w,c
  5591  001C9E  504C               	movf	(___fladd@a+1)^0,w,c
  5592  001CA0  5848               	subwfb	(___fladd@b+1)^0,w,c
  5593  001CA2  504D               	movf	(___fladd@a+2)^0,w,c
  5594  001CA4  5849               	subwfb	(___fladd@b+2)^0,w,c
  5595  001CA6  504A               	movf	(___fladd@b+3)^0,w,c
  5596  001CA8  0A80               	xorlw	128
  5597  001CAA  6E4F               	movwf	??___fladd^0,c
  5598  001CAC  504E               	movf	(___fladd@a+3)^0,w,c
  5599  001CAE  0A80               	xorlw	128
  5600  001CB0  584F               	subwfb	??___fladd^0,w,c
  5601  001CB2  B0D8               	btfsc	status,0,c
  5602  001CB4  EF5E  F00E         	goto	u3051
  5603  001CB8  EF60  F00E         	goto	u3050
  5604  001CBC                     u3051:
  5605  001CBC  EF8B  F00E         	goto	l3063
  5606  001CC0                     u3050:
  5607  001CC0  5047               	movf	___fladd@b^0,w,c
  5608  001CC2  5C4B               	subwf	___fladd@a^0,w,c
  5609  001CC4  6E4F               	movwf	??___fladd^0,c
  5610  001CC6  5048               	movf	(___fladd@b+1)^0,w,c
  5611  001CC8  584C               	subwfb	(___fladd@a+1)^0,w,c
  5612  001CCA  6E50               	movwf	(??___fladd+1)^0,c
  5613  001CCC  5049               	movf	(___fladd@b+2)^0,w,c
  5614  001CCE  584D               	subwfb	(___fladd@a+2)^0,w,c
  5615  001CD0  6E51               	movwf	(??___fladd+2)^0,c
  5616  001CD2  504A               	movf	(___fladd@b+3)^0,w,c
  5617  001CD4  584E               	subwfb	(___fladd@a+3)^0,w,c
  5618  001CD6  6E52               	movwf	(??___fladd+3)^0,c
  5619  001CD8  0EFF               	movlw	255
  5620  001CDA  244F               	addwf	??___fladd^0,w,c
  5621  001CDC  6E47               	movwf	___fladd@b^0,c
  5622  001CDE  0EFF               	movlw	255
  5623  001CE0  2050               	addwfc	(??___fladd+1)^0,w,c
  5624  001CE2  6E48               	movwf	(___fladd@b+1)^0,c
  5625  001CE4  0EFF               	movlw	255
  5626  001CE6  2051               	addwfc	(??___fladd+2)^0,w,c
  5627  001CE8  6E49               	movwf	(___fladd@b+2)^0,c
  5628  001CEA  0EFF               	movlw	255
  5629  001CEC  2052               	addwfc	(??___fladd+3)^0,w,c
  5630  001CEE  6E4A               	movwf	(___fladd@b+3)^0,c
  5631  001CF0  0E80               	movlw	128
  5632  001CF2  1A53               	xorwf	___fladd@signs^0,f,c
  5633  001CF4  6C56               	negf	___fladd@grs^0,c
  5634  001CF6  5056               	movf	___fladd@grs^0,w,c
  5635  001CF8  A4D8               	btfss	status,2,c
  5636  001CFA  EF81  F00E         	goto	u3061
  5637  001CFE  EF83  F00E         	goto	u3060
  5638  001D02                     u3061:
  5639  001D02  EF93  F00E         	goto	l676
  5640  001D06                     u3060:
  5641  001D06  0E01               	movlw	1
  5642  001D08  2647               	addwf	___fladd@b^0,f,c
  5643  001D0A  0E00               	movlw	0
  5644  001D0C  2248               	addwfc	(___fladd@b+1)^0,f,c
  5645  001D0E  2249               	addwfc	(___fladd@b+2)^0,f,c
  5646  001D10  224A               	addwfc	(___fladd@b+3)^0,f,c
  5647  001D12  EF93  F00E         	goto	l676
  5648  001D16                     l3063:
  5649  001D16  504B               	movf	___fladd@a^0,w,c
  5650  001D18  5E47               	subwf	___fladd@b^0,f,c
  5651  001D1A  504C               	movf	(___fladd@a+1)^0,w,c
  5652  001D1C  5A48               	subwfb	(___fladd@b+1)^0,f,c
  5653  001D1E  504D               	movf	(___fladd@a+2)^0,w,c
  5654  001D20  5A49               	subwfb	(___fladd@b+2)^0,f,c
  5655  001D22  504E               	movf	(___fladd@a+3)^0,w,c
  5656  001D24  5A4A               	subwfb	(___fladd@b+3)^0,f,c
  5657  001D26                     l676:
  5658  001D26  5047               	movf	___fladd@b^0,w,c
  5659  001D28  1048               	iorwf	(___fladd@b+1)^0,w,c
  5660  001D2A  1049               	iorwf	(___fladd@b+2)^0,w,c
  5661  001D2C  104A               	iorwf	(___fladd@b+3)^0,w,c
  5662  001D2E  A4D8               	btfss	status,2,c
  5663  001D30  EF9C  F00E         	goto	u3071
  5664  001D34  EF9E  F00E         	goto	u3070
  5665  001D38                     u3071:
  5666  001D38  EFD3  F00E         	goto	l3087
  5667  001D3C                     u3070:
  5668  001D3C  5056               	movf	___fladd@grs^0,w,c
  5669  001D3E  A4D8               	btfss	status,2,c
  5670  001D40  EFA4  F00E         	goto	u3081
  5671  001D44  EFA6  F00E         	goto	u3080
  5672  001D48                     u3081:
  5673  001D48  EFD3  F00E         	goto	l3087
  5674  001D4C                     u3080:
  5675  001D4C  0E00               	movlw	0
  5676  001D4E  6E47               	movwf	?___fladd^0,c
  5677  001D50  0E00               	movlw	0
  5678  001D52  6E48               	movwf	(?___fladd+1)^0,c
  5679  001D54  0E00               	movlw	0
  5680  001D56  6E49               	movwf	(?___fladd+2)^0,c
  5681  001D58  0E00               	movlw	0
  5682  001D5A  6E4A               	movwf	(?___fladd+3)^0,c
  5683  001D5C  EF6E  F00F         	goto	l668
  5684  001D60                     l3071:
  5685  001D60  90D8               	bcf	status,0,c
  5686  001D62  3647               	rlcf	___fladd@b^0,f,c
  5687  001D64  3648               	rlcf	(___fladd@b+1)^0,f,c
  5688  001D66  3649               	rlcf	(___fladd@b+2)^0,f,c
  5689  001D68  364A               	rlcf	(___fladd@b+3)^0,f,c
  5690  001D6A  AE56               	btfss	___fladd@grs^0,7,c
  5691  001D6C  EFBA  F00E         	goto	u3091
  5692  001D70  EFBC  F00E         	goto	u3090
  5693  001D74                     u3091:
  5694  001D74  EFBD  F00E         	goto	l3077
  5695  001D78                     u3090:
  5696  001D78  8047               	bsf	___fladd@b^0,0,c
  5697  001D7A                     l3077:
  5698  001D7A  A056               	btfss	___fladd@grs^0,0,c
  5699  001D7C  EFC2  F00E         	goto	u3101
  5700  001D80  EFC4  F00E         	goto	u3100
  5701  001D84                     u3101:
  5702  001D84  EFC8  F00E         	goto	l3081
  5703  001D88                     u3100:
  5704  001D88  80D8               	bsf	status,0,c
  5705  001D8A  3656               	rlcf	___fladd@grs^0,f,c
  5706  001D8C  EFCA  F00E         	goto	l3083
  5707  001D90                     l3081:
  5708  001D90  90D8               	bcf	status,0,c
  5709  001D92  3656               	rlcf	___fladd@grs^0,f,c
  5710  001D94                     l3083:
  5711  001D94  5055               	movf	___fladd@bexp^0,w,c
  5712  001D96  B4D8               	btfsc	status,2,c
  5713  001D98  EFD0  F00E         	goto	u3111
  5714  001D9C  EFD2  F00E         	goto	u3110
  5715  001DA0                     u3111:
  5716  001DA0  EFD3  F00E         	goto	l3087
  5717  001DA4                     u3110:
  5718  001DA4  0655               	decf	___fladd@bexp^0,f,c
  5719  001DA6                     l3087:
  5720  001DA6  AE49               	btfss	(___fladd@b+2)^0,7,c
  5721  001DA8  EFD8  F00E         	goto	u3121
  5722  001DAC  EFDA  F00E         	goto	u3120
  5723  001DB0                     u3121:
  5724  001DB0  EFB0  F00E         	goto	l3071
  5725  001DB4                     u3120:
  5726  001DB4                     l3089:
  5727  001DB4  0E00               	movlw	0
  5728  001DB6  6E54               	movwf	___fladd@aexp^0,c
  5729  001DB8  AE56               	btfss	___fladd@grs^0,7,c
  5730  001DBA  EFE1  F00E         	goto	u3131
  5731  001DBE  EFE3  F00E         	goto	u3130
  5732  001DC2                     u3131:
  5733  001DC2  EFFB  F00E         	goto	l685
  5734  001DC6                     u3130:
  5735  001DC6  C056  F04F         	movff	___fladd@grs,??___fladd
  5736  001DCA  0E7F               	movlw	127
  5737  001DCC  164F               	andwf	??___fladd^0,f,c
  5738  001DCE  B4D8               	btfsc	status,2,c
  5739  001DD0  EFEC  F00E         	goto	u3141
  5740  001DD4  EFEE  F00E         	goto	u3140
  5741  001DD8                     u3141:
  5742  001DD8  EFF2  F00E         	goto	l686
  5743  001DDC                     u3140:
  5744  001DDC                     l3095:
  5745  001DDC  0E01               	movlw	1
  5746  001DDE  6E54               	movwf	___fladd@aexp^0,c
  5747  001DE0  EFFB  F00E         	goto	l685
  5748  001DE4                     l686:
  5749  001DE4  A047               	btfss	___fladd@b^0,0,c
  5750  001DE6  EFF7  F00E         	goto	u3151
  5751  001DEA  EFF9  F00E         	goto	u3150
  5752  001DEE                     u3151:
  5753  001DEE  EFFB  F00E         	goto	l685
  5754  001DF2                     u3150:
  5755  001DF2  EFEE  F00E         	goto	l3095
  5756  001DF6                     l685:
  5757  001DF6  5054               	movf	___fladd@aexp^0,w,c
  5758  001DF8  B4D8               	btfsc	status,2,c
  5759  001DFA  EF01  F00F         	goto	u3161
  5760  001DFE  EF03  F00F         	goto	u3160
  5761  001E02                     u3161:
  5762  001E02  EF2E  F00F         	goto	l3107
  5763  001E06                     u3160:
  5764  001E06  0E01               	movlw	1
  5765  001E08  2647               	addwf	___fladd@b^0,f,c
  5766  001E0A  0E00               	movlw	0
  5767  001E0C  2248               	addwfc	(___fladd@b+1)^0,f,c
  5768  001E0E  2249               	addwfc	(___fladd@b+2)^0,f,c
  5769  001E10  224A               	addwfc	(___fladd@b+3)^0,f,c
  5770  001E12  A04A               	btfss	(___fladd@b+3)^0,0,c
  5771  001E14  EF0E  F00F         	goto	u3171
  5772  001E18  EF10  F00F         	goto	u3170
  5773  001E1C                     u3171:
  5774  001E1C  EF2E  F00F         	goto	l3107
  5775  001E20                     u3170:
  5776  001E20  C047  F04F         	movff	___fladd@b,??___fladd
  5777  001E24  C048  F050         	movff	___fladd@b+1,??___fladd+1
  5778  001E28  C049  F051         	movff	___fladd@b+2,??___fladd+2
  5779  001E2C  C04A  F052         	movff	___fladd@b+3,??___fladd+3
  5780  001E30  3452               	rlcf	(??___fladd+3)^0,w,c
  5781  001E32  3252               	rrcf	(??___fladd+3)^0,f,c
  5782  001E34  3251               	rrcf	(??___fladd+2)^0,f,c
  5783  001E36  3250               	rrcf	(??___fladd+1)^0,f,c
  5784  001E38  324F               	rrcf	??___fladd^0,f,c
  5785  001E3A  C04F  F047         	movff	??___fladd,___fladd@b
  5786  001E3E  C050  F048         	movff	??___fladd+1,___fladd@b+1
  5787  001E42  C051  F049         	movff	??___fladd+2,___fladd@b+2
  5788  001E46  C052  F04A         	movff	??___fladd+3,___fladd@b+3
  5789  001E4A  2855               	incf	___fladd@bexp^0,w,c
  5790  001E4C  B4D8               	btfsc	status,2,c
  5791  001E4E  EF2B  F00F         	goto	u3181
  5792  001E52  EF2D  F00F         	goto	u3180
  5793  001E56                     u3181:
  5794  001E56  EF2E  F00F         	goto	l3107
  5795  001E5A                     u3180:
  5796  001E5A  2A55               	incf	___fladd@bexp^0,f,c
  5797  001E5C                     l3107:
  5798  001E5C  2855               	incf	___fladd@bexp^0,w,c
  5799  001E5E  B4D8               	btfsc	status,2,c
  5800  001E60  EF34  F00F         	goto	u3191
  5801  001E64  EF36  F00F         	goto	u3190
  5802  001E68                     u3191:
  5803  001E68  EF3E  F00F         	goto	l3111
  5804  001E6C                     u3190:
  5805  001E6C  5055               	movf	___fladd@bexp^0,w,c
  5806  001E6E  A4D8               	btfss	status,2,c
  5807  001E70  EF3C  F00F         	goto	u3201
  5808  001E74  EF3E  F00F         	goto	u3200
  5809  001E78                     u3201:
  5810  001E78  EF50  F00F         	goto	l3115
  5811  001E7C                     u3200:
  5812  001E7C                     l3111:
  5813  001E7C  0E00               	movlw	0
  5814  001E7E  6E47               	movwf	___fladd@b^0,c
  5815  001E80  0E00               	movlw	0
  5816  001E82  6E48               	movwf	(___fladd@b+1)^0,c
  5817  001E84  0E00               	movlw	0
  5818  001E86  6E49               	movwf	(___fladd@b+2)^0,c
  5819  001E88  0E00               	movlw	0
  5820  001E8A  6E4A               	movwf	(___fladd@b+3)^0,c
  5821  001E8C  5055               	movf	___fladd@bexp^0,w,c
  5822  001E8E  A4D8               	btfss	status,2,c
  5823  001E90  EF4C  F00F         	goto	u3211
  5824  001E94  EF4E  F00F         	goto	u3210
  5825  001E98                     u3211:
  5826  001E98  EF50  F00F         	goto	l3115
  5827  001E9C                     u3210:
  5828  001E9C  0E00               	movlw	0
  5829  001E9E  6E53               	movwf	___fladd@signs^0,c
  5830  001EA0                     l3115:
  5831  001EA0  A055               	btfss	___fladd@bexp^0,0,c
  5832  001EA2  EF55  F00F         	goto	u3221
  5833  001EA6  EF57  F00F         	goto	u3220
  5834  001EAA                     u3221:
  5835  001EAA  EF5A  F00F         	goto	l3119
  5836  001EAE                     u3220:
  5837  001EAE  8E49               	bsf	(___fladd@b+2)^0,7,c
  5838  001EB0  EF5B  F00F         	goto	l3121
  5839  001EB4                     l3119:
  5840  001EB4  9E49               	bcf	(___fladd@b+2)^0,7,c
  5841  001EB6                     l3121:
  5842  001EB6  90D8               	bcf	status,0,c
  5843  001EB8  3055               	rrcf	___fladd@bexp^0,w,c
  5844  001EBA  6E4A               	movwf	(___fladd@b+3)^0,c
  5845  001EBC  AE53               	btfss	___fladd@signs^0,7,c
  5846  001EBE  EF63  F00F         	goto	u3231
  5847  001EC2  EF65  F00F         	goto	u3230
  5848  001EC6                     u3231:
  5849  001EC6  EF66  F00F         	goto	l3127
  5850  001ECA                     u3230:
  5851  001ECA  8E4A               	bsf	(___fladd@b+3)^0,7,c
  5852  001ECC                     l3127:
  5853  001ECC  C047  F047         	movff	___fladd@b,?___fladd
  5854  001ED0  C048  F048         	movff	___fladd@b+1,?___fladd+1
  5855  001ED4  C049  F049         	movff	___fladd@b+2,?___fladd+2
  5856  001ED8  C04A  F04A         	movff	___fladd@b+3,?___fladd+3
  5857  001EDC                     l668:
  5858  001EDC  0012               	return		;funcret
  5859  001EDE                     __end_of___fladd:
  5860                           	callstack 0
  5861                           
  5862 ;; *************** function ___flneg *****************
  5863 ;; Defined at:
  5864 ;;		line 15 in file "C:\Program Files\Microchip\xc8\v2.20\pic\sources\c99\common\flneg.c"
  5865 ;; Parameters:    Size  Location     Type
  5866 ;;  f1              4    0[COMRAM] unsigned char 
  5867 ;; Auto vars:     Size  Location     Type
  5868 ;;		None
  5869 ;; Return value:  Size  Location     Type
  5870 ;;                  4    0[COMRAM] unsigned char 
  5871 ;; Registers used:
  5872 ;;		wreg, status,2, status,0
  5873 ;; Tracked objects:
  5874 ;;		On entry : 0/0
  5875 ;;		On exit  : 0/0
  5876 ;;		Unchanged: 0/0
  5877 ;; Data sizes:     COMRAM   BANK0   BANK1   BANK2   BANK3   BANK4   BANK5   BANK6   BANK7
  5878 ;;      Params:         4       0       0       0       0       0       0       0       0
  5879 ;;      Locals:         0       0       0       0       0       0       0       0       0
  5880 ;;      Temps:          0       0       0       0       0       0       0       0       0
  5881 ;;      Totals:         4       0       0       0       0       0       0       0       0
  5882 ;;Total ram usage:        4 bytes
  5883 ;; Hardware stack levels used:    1
  5884 ;; Hardware stack levels required when called:    1
  5885 ;; This function calls:
  5886 ;;		Nothing
  5887 ;; This function is called by:
  5888 ;;		_efgtoa
  5889 ;; This function uses a non-reentrant model
  5890 ;;
  5891                           
  5892                           	psect	text14
  5893  004140                     __ptext14:
  5894                           	callstack 0
  5895  004140                     ___flneg:
  5896                           	callstack 25
  5897  004140  5001               	movf	___flneg@f1^0,w,c
  5898  004142  1002               	iorwf	(___flneg@f1+1)^0,w,c
  5899  004144  1003               	iorwf	(___flneg@f1+2)^0,w,c
  5900  004146  1004               	iorwf	(___flneg@f1+3)^0,w,c
  5901  004148  B4D8               	btfsc	status,2,c
  5902  00414A  EFA9  F020         	goto	u4031
  5903  00414E  EFAB  F020         	goto	u4030
  5904  004152                     u4031:
  5905  004152  EFB3  F020         	goto	l3635
  5906  004156                     u4030:
  5907  004156  0E00               	movlw	0
  5908  004158  1A01               	xorwf	___flneg@f1^0,f,c
  5909  00415A  0E00               	movlw	0
  5910  00415C  1A02               	xorwf	(___flneg@f1+1)^0,f,c
  5911  00415E  0E00               	movlw	0
  5912  004160  1A03               	xorwf	(___flneg@f1+2)^0,f,c
  5913  004162  0E80               	movlw	128
  5914  004164  1A04               	xorwf	(___flneg@f1+3)^0,f,c
  5915  004166                     l3635:
  5916  004166  C001  F001         	movff	___flneg@f1,?___flneg
  5917  00416A  C002  F002         	movff	___flneg@f1+1,?___flneg+1
  5918  00416E  C003  F003         	movff	___flneg@f1+2,?___flneg+2
  5919  004172  C004  F004         	movff	___flneg@f1+3,?___flneg+3
  5920  004176  0012               	return		;funcret
  5921  004178                     __end_of___flneg:
  5922                           	callstack 0
  5923                           
  5924 ;; *************** function ___flmul *****************
  5925 ;; Defined at:
  5926 ;;		line 8 in file "C:\Program Files\Microchip\xc8\v2.20\pic\sources\c99\common\sprcmul.c"
  5927 ;; Parameters:    Size  Location     Type
  5928 ;;  b               4   45[COMRAM] unsigned char 
  5929 ;;  a               4   49[COMRAM] unsigned char 
  5930 ;; Auto vars:     Size  Location     Type
  5931 ;;  prod            4   64[COMRAM] struct .
  5932 ;;  grs             4   58[COMRAM] unsigned long 
  5933 ;;  temp            2   68[COMRAM] struct .
  5934 ;;  bexp            1   63[COMRAM] unsigned char 
  5935 ;;  aexp            1   62[COMRAM] unsigned char 
  5936 ;;  sign            1   57[COMRAM] unsigned char 
  5937 ;; Return value:  Size  Location     Type
  5938 ;;                  4   45[COMRAM] unsigned char 
  5939 ;; Registers used:
  5940 ;;		wreg, status,2, status,0, prodl, prodh
  5941 ;; Tracked objects:
  5942 ;;		On entry : 0/0
  5943 ;;		On exit  : 0/0
  5944 ;;		Unchanged: 0/0
  5945 ;; Data sizes:     COMRAM   BANK0   BANK1   BANK2   BANK3   BANK4   BANK5   BANK6   BANK7
  5946 ;;      Params:         8       0       0       0       0       0       0       0       0
  5947 ;;      Locals:        13       0       0       0       0       0       0       0       0
  5948 ;;      Temps:          4       0       0       0       0       0       0       0       0
  5949 ;;      Totals:        25       0       0       0       0       0       0       0       0
  5950 ;;Total ram usage:       25 bytes
  5951 ;; Hardware stack levels used:    1
  5952 ;; Hardware stack levels required when called:    1
  5953 ;; This function calls:
  5954 ;;		Nothing
  5955 ;; This function is called by:
  5956 ;;		_main
  5957 ;;		_efgtoa
  5958 ;; This function uses a non-reentrant model
  5959 ;;
  5960                           
  5961                           	psect	text15
  5962  001EDE                     __ptext15:
  5963                           	callstack 0
  5964  001EDE                     ___flmul:
  5965                           	callstack 25
  5966  001EDE  5031               	movf	(___flmul@b+3)^0,w,c
  5967  001EE0  0B80               	andlw	128
  5968  001EE2  6E3A               	movwf	___flmul@sign^0,c
  5969  001EE4  5031               	movf	(___flmul@b+3)^0,w,c
  5970  001EE6  2431               	addwf	(___flmul@b+3)^0,w,c
  5971  001EE8  6E40               	movwf	___flmul@bexp^0,c
  5972  001EEA  AE30               	btfss	(___flmul@b+2)^0,7,c
  5973  001EEC  EF7A  F00F         	goto	u3641
  5974  001EF0  EF7C  F00F         	goto	u3640
  5975  001EF4                     u3641:
  5976  001EF4  EF7D  F00F         	goto	l3383
  5977  001EF8                     u3640:
  5978  001EF8  8040               	bsf	___flmul@bexp^0,0,c
  5979  001EFA                     l3383:
  5980  001EFA  5040               	movf	___flmul@bexp^0,w,c
  5981  001EFC  B4D8               	btfsc	status,2,c
  5982  001EFE  EF83  F00F         	goto	u3651
  5983  001F02  EF85  F00F         	goto	u3650
  5984  001F06                     u3651:
  5985  001F06  EF98  F00F         	goto	l3391
  5986  001F0A                     u3650:
  5987  001F0A  2840               	incf	___flmul@bexp^0,w,c
  5988  001F0C  A4D8               	btfss	status,2,c
  5989  001F0E  EF8B  F00F         	goto	u3661
  5990  001F12  EF8D  F00F         	goto	u3660
  5991  001F16                     u3661:
  5992  001F16  EF95  F00F         	goto	l3389
  5993  001F1A                     u3660:
  5994  001F1A  0E00               	movlw	0
  5995  001F1C  6E2E               	movwf	___flmul@b^0,c
  5996  001F1E  0E00               	movlw	0
  5997  001F20  6E2F               	movwf	(___flmul@b+1)^0,c
  5998  001F22  0E00               	movlw	0
  5999  001F24  6E30               	movwf	(___flmul@b+2)^0,c
  6000  001F26  0E00               	movlw	0
  6001  001F28  6E31               	movwf	(___flmul@b+3)^0,c
  6002  001F2A                     l3389:
  6003  001F2A  8E30               	bsf	(___flmul@b+2)^0,7,c
  6004  001F2C  EFA0  F00F         	goto	l3393
  6005  001F30                     l3391:
  6006  001F30  0E00               	movlw	0
  6007  001F32  6E2E               	movwf	___flmul@b^0,c
  6008  001F34  0E00               	movlw	0
  6009  001F36  6E2F               	movwf	(___flmul@b+1)^0,c
  6010  001F38  0E00               	movlw	0
  6011  001F3A  6E30               	movwf	(___flmul@b+2)^0,c
  6012  001F3C  0E00               	movlw	0
  6013  001F3E  6E31               	movwf	(___flmul@b+3)^0,c
  6014  001F40                     l3393:
  6015  001F40  5035               	movf	(___flmul@a+3)^0,w,c
  6016  001F42  0B80               	andlw	128
  6017  001F44  1A3A               	xorwf	___flmul@sign^0,f,c
  6018  001F46  5035               	movf	(___flmul@a+3)^0,w,c
  6019  001F48  2435               	addwf	(___flmul@a+3)^0,w,c
  6020  001F4A  6E3F               	movwf	___flmul@aexp^0,c
  6021  001F4C  AE34               	btfss	(___flmul@a+2)^0,7,c
  6022  001F4E  EFAB  F00F         	goto	u3671
  6023  001F52  EFAD  F00F         	goto	u3670
  6024  001F56                     u3671:
  6025  001F56  EFAE  F00F         	goto	l3401
  6026  001F5A                     u3670:
  6027  001F5A  803F               	bsf	___flmul@aexp^0,0,c
  6028  001F5C                     l3401:
  6029  001F5C  503F               	movf	___flmul@aexp^0,w,c
  6030  001F5E  B4D8               	btfsc	status,2,c
  6031  001F60  EFB4  F00F         	goto	u3681
  6032  001F64  EFB6  F00F         	goto	u3680
  6033  001F68                     u3681:
  6034  001F68  EFC9  F00F         	goto	l3409
  6035  001F6C                     u3680:
  6036  001F6C  283F               	incf	___flmul@aexp^0,w,c
  6037  001F6E  A4D8               	btfss	status,2,c
  6038  001F70  EFBC  F00F         	goto	u3691
  6039  001F74  EFBE  F00F         	goto	u3690
  6040  001F78                     u3691:
  6041  001F78  EFC6  F00F         	goto	l3407
  6042  001F7C                     u3690:
  6043  001F7C  0E00               	movlw	0
  6044  001F7E  6E32               	movwf	___flmul@a^0,c
  6045  001F80  0E00               	movlw	0
  6046  001F82  6E33               	movwf	(___flmul@a+1)^0,c
  6047  001F84  0E00               	movlw	0
  6048  001F86  6E34               	movwf	(___flmul@a+2)^0,c
  6049  001F88  0E00               	movlw	0
  6050  001F8A  6E35               	movwf	(___flmul@a+3)^0,c
  6051  001F8C                     l3407:
  6052  001F8C  8E34               	bsf	(___flmul@a+2)^0,7,c
  6053  001F8E  EFD1  F00F         	goto	l745
  6054  001F92                     l3409:
  6055  001F92  0E00               	movlw	0
  6056  001F94  6E32               	movwf	___flmul@a^0,c
  6057  001F96  0E00               	movlw	0
  6058  001F98  6E33               	movwf	(___flmul@a+1)^0,c
  6059  001F9A  0E00               	movlw	0
  6060  001F9C  6E34               	movwf	(___flmul@a+2)^0,c
  6061  001F9E  0E00               	movlw	0
  6062  001FA0  6E35               	movwf	(___flmul@a+3)^0,c
  6063  001FA2                     l745:
  6064  001FA2  503F               	movf	___flmul@aexp^0,w,c
  6065  001FA4  B4D8               	btfsc	status,2,c
  6066  001FA6  EFD7  F00F         	goto	u3701
  6067  001FAA  EFD9  F00F         	goto	u3700
  6068  001FAE                     u3701:
  6069  001FAE  EFE1  F00F         	goto	l3413
  6070  001FB2                     u3700:
  6071  001FB2  5040               	movf	___flmul@bexp^0,w,c
  6072  001FB4  A4D8               	btfss	status,2,c
  6073  001FB6  EFDF  F00F         	goto	u3711
  6074  001FBA  EFE1  F00F         	goto	u3710
  6075  001FBE                     u3711:
  6076  001FBE  EFEB  F00F         	goto	l3417
  6077  001FC2                     u3710:
  6078  001FC2                     l3413:
  6079  001FC2  0E00               	movlw	0
  6080  001FC4  6E2E               	movwf	?___flmul^0,c
  6081  001FC6  0E00               	movlw	0
  6082  001FC8  6E2F               	movwf	(?___flmul+1)^0,c
  6083  001FCA  0E00               	movlw	0
  6084  001FCC  6E30               	movwf	(?___flmul+2)^0,c
  6085  001FCE  0E00               	movlw	0
  6086  001FD0  6E31               	movwf	(?___flmul+3)^0,c
  6087  001FD2  EF83  F011         	goto	l749
  6088  001FD6                     l3417:
  6089  001FD6  5034               	movf	(___flmul@a+2)^0,w,c
  6090  001FD8  022E               	mulwf	___flmul@b^0,c
  6091  001FDA  CFF3 F045          	movff	prodl,___flmul@temp
  6092  001FDE  CFF4 F046          	movff	prodh,___flmul@temp+1
  6093  001FE2  5045               	movf	___flmul@temp^0,w,c
  6094  001FE4  6E3B               	movwf	___flmul@grs^0,c
  6095  001FE6  6A3C               	clrf	(___flmul@grs+1)^0,c
  6096  001FE8  6A3D               	clrf	(___flmul@grs+2)^0,c
  6097  001FEA  6A3E               	clrf	(___flmul@grs+3)^0,c
  6098  001FEC  5046               	movf	(___flmul@temp+1)^0,w,c
  6099  001FEE  6E41               	movwf	___flmul@prod^0,c
  6100  001FF0  6A42               	clrf	(___flmul@prod+1)^0,c
  6101  001FF2  6A43               	clrf	(___flmul@prod+2)^0,c
  6102  001FF4  6A44               	clrf	(___flmul@prod+3)^0,c
  6103  001FF6  5033               	movf	(___flmul@a+1)^0,w,c
  6104  001FF8  022F               	mulwf	(___flmul@b+1)^0,c
  6105  001FFA  CFF3 F045          	movff	prodl,___flmul@temp
  6106  001FFE  CFF4 F046          	movff	prodh,___flmul@temp+1
  6107  002002  5045               	movf	___flmul@temp^0,w,c
  6108  002004  263B               	addwf	___flmul@grs^0,f,c
  6109  002006  0E00               	movlw	0
  6110  002008  223C               	addwfc	(___flmul@grs+1)^0,f,c
  6111  00200A  223D               	addwfc	(___flmul@grs+2)^0,f,c
  6112  00200C  223E               	addwfc	(___flmul@grs+3)^0,f,c
  6113  00200E  5046               	movf	(___flmul@temp+1)^0,w,c
  6114  002010  2641               	addwf	___flmul@prod^0,f,c
  6115  002012  0E00               	movlw	0
  6116  002014  2242               	addwfc	(___flmul@prod+1)^0,f,c
  6117  002016  2243               	addwfc	(___flmul@prod+2)^0,f,c
  6118  002018  2244               	addwfc	(___flmul@prod+3)^0,f,c
  6119  00201A  5032               	movf	___flmul@a^0,w,c
  6120  00201C  0230               	mulwf	(___flmul@b+2)^0,c
  6121  00201E  CFF3 F045          	movff	prodl,___flmul@temp
  6122  002022  CFF4 F046          	movff	prodh,___flmul@temp+1
  6123  002026  5045               	movf	___flmul@temp^0,w,c
  6124  002028  263B               	addwf	___flmul@grs^0,f,c
  6125  00202A  0E00               	movlw	0
  6126  00202C  223C               	addwfc	(___flmul@grs+1)^0,f,c
  6127  00202E  223D               	addwfc	(___flmul@grs+2)^0,f,c
  6128  002030  223E               	addwfc	(___flmul@grs+3)^0,f,c
  6129  002032  5046               	movf	(___flmul@temp+1)^0,w,c
  6130  002034  2641               	addwf	___flmul@prod^0,f,c
  6131  002036  0E00               	movlw	0
  6132  002038  2242               	addwfc	(___flmul@prod+1)^0,f,c
  6133  00203A  2243               	addwfc	(___flmul@prod+2)^0,f,c
  6134  00203C  2244               	addwfc	(___flmul@prod+3)^0,f,c
  6135  00203E  C03D  F03E         	movff	___flmul@grs+2,___flmul@grs+3
  6136  002042  C03C  F03D         	movff	___flmul@grs+1,___flmul@grs+2
  6137  002046  C03B  F03C         	movff	___flmul@grs,___flmul@grs+1
  6138  00204A  6A3B               	clrf	___flmul@grs^0,c
  6139  00204C  5032               	movf	___flmul@a^0,w,c
  6140  00204E  022F               	mulwf	(___flmul@b+1)^0,c
  6141  002050  CFF3 F045          	movff	prodl,___flmul@temp
  6142  002054  CFF4 F046          	movff	prodh,___flmul@temp+1
  6143  002058  5045               	movf	___flmul@temp^0,w,c
  6144  00205A  263B               	addwf	___flmul@grs^0,f,c
  6145  00205C  5046               	movf	(___flmul@temp+1)^0,w,c
  6146  00205E  223C               	addwfc	(___flmul@grs+1)^0,f,c
  6147  002060  0E00               	movlw	0
  6148  002062  223D               	addwfc	(___flmul@grs+2)^0,f,c
  6149  002064  0E00               	movlw	0
  6150  002066  223E               	addwfc	(___flmul@grs+3)^0,f,c
  6151  002068  5033               	movf	(___flmul@a+1)^0,w,c
  6152  00206A  022E               	mulwf	___flmul@b^0,c
  6153  00206C  CFF3 F045          	movff	prodl,___flmul@temp
  6154  002070  CFF4 F046          	movff	prodh,___flmul@temp+1
  6155  002074  5045               	movf	___flmul@temp^0,w,c
  6156  002076  263B               	addwf	___flmul@grs^0,f,c
  6157  002078  5046               	movf	(___flmul@temp+1)^0,w,c
  6158  00207A  223C               	addwfc	(___flmul@grs+1)^0,f,c
  6159  00207C  0E00               	movlw	0
  6160  00207E  223D               	addwfc	(___flmul@grs+2)^0,f,c
  6161  002080  0E00               	movlw	0
  6162  002082  223E               	addwfc	(___flmul@grs+3)^0,f,c
  6163  002084  C03D  F03E         	movff	___flmul@grs+2,___flmul@grs+3
  6164  002088  C03C  F03D         	movff	___flmul@grs+1,___flmul@grs+2
  6165  00208C  C03B  F03C         	movff	___flmul@grs,___flmul@grs+1
  6166  002090  6A3B               	clrf	___flmul@grs^0,c
  6167  002092  5032               	movf	___flmul@a^0,w,c
  6168  002094  022E               	mulwf	___flmul@b^0,c
  6169  002096  CFF3 F045          	movff	prodl,___flmul@temp
  6170  00209A  CFF4 F046          	movff	prodh,___flmul@temp+1
  6171  00209E  5045               	movf	___flmul@temp^0,w,c
  6172  0020A0  263B               	addwf	___flmul@grs^0,f,c
  6173  0020A2  5046               	movf	(___flmul@temp+1)^0,w,c
  6174  0020A4  223C               	addwfc	(___flmul@grs+1)^0,f,c
  6175  0020A6  0E00               	movlw	0
  6176  0020A8  223D               	addwfc	(___flmul@grs+2)^0,f,c
  6177  0020AA  0E00               	movlw	0
  6178  0020AC  223E               	addwfc	(___flmul@grs+3)^0,f,c
  6179  0020AE  5034               	movf	(___flmul@a+2)^0,w,c
  6180  0020B0  022F               	mulwf	(___flmul@b+1)^0,c
  6181  0020B2  CFF3 F045          	movff	prodl,___flmul@temp
  6182  0020B6  CFF4 F046          	movff	prodh,___flmul@temp+1
  6183  0020BA  5045               	movf	___flmul@temp^0,w,c
  6184  0020BC  2641               	addwf	___flmul@prod^0,f,c
  6185  0020BE  5046               	movf	(___flmul@temp+1)^0,w,c
  6186  0020C0  2242               	addwfc	(___flmul@prod+1)^0,f,c
  6187  0020C2  0E00               	movlw	0
  6188  0020C4  2243               	addwfc	(___flmul@prod+2)^0,f,c
  6189  0020C6  0E00               	movlw	0
  6190  0020C8  2244               	addwfc	(___flmul@prod+3)^0,f,c
  6191  0020CA  5033               	movf	(___flmul@a+1)^0,w,c
  6192  0020CC  0230               	mulwf	(___flmul@b+2)^0,c
  6193  0020CE  CFF3 F045          	movff	prodl,___flmul@temp
  6194  0020D2  CFF4 F046          	movff	prodh,___flmul@temp+1
  6195  0020D6  5045               	movf	___flmul@temp^0,w,c
  6196  0020D8  2641               	addwf	___flmul@prod^0,f,c
  6197  0020DA  5046               	movf	(___flmul@temp+1)^0,w,c
  6198  0020DC  2242               	addwfc	(___flmul@prod+1)^0,f,c
  6199  0020DE  0E00               	movlw	0
  6200  0020E0  2243               	addwfc	(___flmul@prod+2)^0,f,c
  6201  0020E2  0E00               	movlw	0
  6202  0020E4  2244               	addwfc	(___flmul@prod+3)^0,f,c
  6203  0020E6  5034               	movf	(___flmul@a+2)^0,w,c
  6204  0020E8  0230               	mulwf	(___flmul@b+2)^0,c
  6205  0020EA  CFF3 F045          	movff	prodl,___flmul@temp
  6206  0020EE  CFF4 F046          	movff	prodh,___flmul@temp+1
  6207  0020F2  5045               	movf	___flmul@temp^0,w,c
  6208  0020F4  6E36               	movwf	??___flmul^0,c
  6209  0020F6  5046               	movf	(___flmul@temp+1)^0,w,c
  6210  0020F8  6E37               	movwf	(??___flmul+1)^0,c
  6211  0020FA  6A38               	clrf	(??___flmul+2)^0,c
  6212  0020FC  6A39               	clrf	(??___flmul+3)^0,c
  6213  0020FE  C038  F039         	movff	??___flmul+2,??___flmul+3
  6214  002102  C037  F038         	movff	??___flmul+1,??___flmul+2
  6215  002106  C036  F037         	movff	??___flmul,??___flmul+1
  6216  00210A  6A36               	clrf	??___flmul^0,c
  6217  00210C  5036               	movf	??___flmul^0,w,c
  6218  00210E  2641               	addwf	___flmul@prod^0,f,c
  6219  002110  5037               	movf	(??___flmul+1)^0,w,c
  6220  002112  2242               	addwfc	(___flmul@prod+1)^0,f,c
  6221  002114  5038               	movf	(??___flmul+2)^0,w,c
  6222  002116  2243               	addwfc	(___flmul@prod+2)^0,f,c
  6223  002118  5039               	movf	(??___flmul+3)^0,w,c
  6224  00211A  2244               	addwfc	(___flmul@prod+3)^0,f,c
  6225  00211C  C03B  F036         	movff	___flmul@grs,??___flmul
  6226  002120  C03C  F037         	movff	___flmul@grs+1,??___flmul+1
  6227  002124  C03D  F038         	movff	___flmul@grs+2,??___flmul+2
  6228  002128  C03E  F039         	movff	___flmul@grs+3,??___flmul+3
  6229  00212C  0E19               	movlw	25
  6230  00212E  EF9E  F010         	goto	u3720
  6231  002132                     u3725:
  6232  002132  90D8               	bcf	status,0,c
  6233  002134  3239               	rrcf	(??___flmul+3)^0,f,c
  6234  002136  3238               	rrcf	(??___flmul+2)^0,f,c
  6235  002138  3237               	rrcf	(??___flmul+1)^0,f,c
  6236  00213A  3236               	rrcf	??___flmul^0,f,c
  6237  00213C                     u3720:
  6238  00213C  2EE8               	decfsz	wreg,f,c
  6239  00213E  EF99  F010         	goto	u3725
  6240  002142  5036               	movf	??___flmul^0,w,c
  6241  002144  2641               	addwf	___flmul@prod^0,f,c
  6242  002146  5037               	movf	(??___flmul+1)^0,w,c
  6243  002148  2242               	addwfc	(___flmul@prod+1)^0,f,c
  6244  00214A  5038               	movf	(??___flmul+2)^0,w,c
  6245  00214C  2243               	addwfc	(___flmul@prod+2)^0,f,c
  6246  00214E  5039               	movf	(??___flmul+3)^0,w,c
  6247  002150  2244               	addwfc	(___flmul@prod+3)^0,f,c
  6248  002152  C03D  F03E         	movff	___flmul@grs+2,___flmul@grs+3
  6249  002156  C03C  F03D         	movff	___flmul@grs+1,___flmul@grs+2
  6250  00215A  C03B  F03C         	movff	___flmul@grs,___flmul@grs+1
  6251  00215E  6A3B               	clrf	___flmul@grs^0,c
  6252  002160  503F               	movf	___flmul@aexp^0,w,c
  6253  002162  C040  F036         	movff	___flmul@bexp,??___flmul
  6254  002166  6A37               	clrf	(??___flmul+1)^0,c
  6255  002168  2636               	addwf	??___flmul^0,f,c
  6256  00216A  0E00               	movlw	0
  6257  00216C  2237               	addwfc	(??___flmul+1)^0,f,c
  6258  00216E  0E82               	movlw	130
  6259  002170  2436               	addwf	??___flmul^0,w,c
  6260  002172  6E45               	movwf	___flmul@temp^0,c
  6261  002174  0EFF               	movlw	255
  6262  002176  2037               	addwfc	(??___flmul+1)^0,w,c
  6263  002178  6E46               	movwf	(___flmul@temp+1)^0,c
  6264  00217A  EFD4  F010         	goto	l3465
  6265  00217E                     l3459:
  6266  00217E  90D8               	bcf	status,0,c
  6267  002180  3641               	rlcf	___flmul@prod^0,f,c
  6268  002182  3642               	rlcf	(___flmul@prod+1)^0,f,c
  6269  002184  3643               	rlcf	(___flmul@prod+2)^0,f,c
  6270  002186  3644               	rlcf	(___flmul@prod+3)^0,f,c
  6271  002188  AE3E               	btfss	(___flmul@grs+3)^0,7,c
  6272  00218A  EFC9  F010         	goto	u3731
  6273  00218E  EFCB  F010         	goto	u3730
  6274  002192                     u3731:
  6275  002192  EFCC  F010         	goto	l752
  6276  002196                     u3730:
  6277  002196  8041               	bsf	___flmul@prod^0,0,c
  6278  002198                     l752:
  6279  002198  90D8               	bcf	status,0,c
  6280  00219A  363B               	rlcf	___flmul@grs^0,f,c
  6281  00219C  363C               	rlcf	(___flmul@grs+1)^0,f,c
  6282  00219E  363D               	rlcf	(___flmul@grs+2)^0,f,c
  6283  0021A0  363E               	rlcf	(___flmul@grs+3)^0,f,c
  6284  0021A2  0645               	decf	___flmul@temp^0,f,c
  6285  0021A4  A0D8               	btfss	status,0,c
  6286  0021A6  0646               	decf	(___flmul@temp+1)^0,f,c
  6287  0021A8                     l3465:
  6288  0021A8  AE43               	btfss	(___flmul@prod+2)^0,7,c
  6289  0021AA  EFD9  F010         	goto	u3741
  6290  0021AE  EFDB  F010         	goto	u3740
  6291  0021B2                     u3741:
  6292  0021B2  EFBF  F010         	goto	l3459
  6293  0021B6                     u3740:
  6294  0021B6  0E00               	movlw	0
  6295  0021B8  6E3F               	movwf	___flmul@aexp^0,c
  6296  0021BA  AE3E               	btfss	(___flmul@grs+3)^0,7,c
  6297  0021BC  EFE2  F010         	goto	u3751
  6298  0021C0  EFE4  F010         	goto	u3750
  6299  0021C4                     u3751:
  6300  0021C4  EF08  F011         	goto	l754
  6301  0021C8                     u3750:
  6302  0021C8  0EFF               	movlw	255
  6303  0021CA  143B               	andwf	___flmul@grs^0,w,c
  6304  0021CC  6E36               	movwf	??___flmul^0,c
  6305  0021CE  0EFF               	movlw	255
  6306  0021D0  143C               	andwf	(___flmul@grs+1)^0,w,c
  6307  0021D2  6E37               	movwf	(??___flmul+1)^0,c
  6308  0021D4  0EFF               	movlw	255
  6309  0021D6  143D               	andwf	(___flmul@grs+2)^0,w,c
  6310  0021D8  6E38               	movwf	(??___flmul+2)^0,c
  6311  0021DA  0E7F               	movlw	127
  6312  0021DC  143E               	andwf	(___flmul@grs+3)^0,w,c
  6313  0021DE  6E39               	movwf	(??___flmul+3)^0,c
  6314  0021E0  5036               	movf	??___flmul^0,w,c
  6315  0021E2  1037               	iorwf	(??___flmul+1)^0,w,c
  6316  0021E4  1038               	iorwf	(??___flmul+2)^0,w,c
  6317  0021E6  1039               	iorwf	(??___flmul+3)^0,w,c
  6318  0021E8  B4D8               	btfsc	status,2,c
  6319  0021EA  EFF9  F010         	goto	u3761
  6320  0021EE  EFFB  F010         	goto	u3760
  6321  0021F2                     u3761:
  6322  0021F2  EFFF  F010         	goto	l755
  6323  0021F6                     u3760:
  6324  0021F6                     l3473:
  6325  0021F6  0E01               	movlw	1
  6326  0021F8  6E3F               	movwf	___flmul@aexp^0,c
  6327  0021FA  EF08  F011         	goto	l754
  6328  0021FE                     l755:
  6329  0021FE  A041               	btfss	___flmul@prod^0,0,c
  6330  002200  EF04  F011         	goto	u3771
  6331  002204  EF06  F011         	goto	u3770
  6332  002208                     u3771:
  6333  002208  EF08  F011         	goto	l754
  6334  00220C                     u3770:
  6335  00220C  EFFB  F010         	goto	l3473
  6336  002210                     l754:
  6337  002210  503F               	movf	___flmul@aexp^0,w,c
  6338  002212  B4D8               	btfsc	status,2,c
  6339  002214  EF0E  F011         	goto	u3781
  6340  002218  EF10  F011         	goto	u3780
  6341  00221C                     u3781:
  6342  00221C  EF34  F011         	goto	l3485
  6343  002220                     u3780:
  6344  002220  0E01               	movlw	1
  6345  002222  2641               	addwf	___flmul@prod^0,f,c
  6346  002224  0E00               	movlw	0
  6347  002226  2242               	addwfc	(___flmul@prod+1)^0,f,c
  6348  002228  2243               	addwfc	(___flmul@prod+2)^0,f,c
  6349  00222A  2244               	addwfc	(___flmul@prod+3)^0,f,c
  6350  00222C  A044               	btfss	(___flmul@prod+3)^0,0,c
  6351  00222E  EF1B  F011         	goto	u3791
  6352  002232  EF1D  F011         	goto	u3790
  6353  002236                     u3791:
  6354  002236  EF34  F011         	goto	l3485
  6355  00223A                     u3790:
  6356  00223A  C041  F036         	movff	___flmul@prod,??___flmul
  6357  00223E  C042  F037         	movff	___flmul@prod+1,??___flmul+1
  6358  002242  C043  F038         	movff	___flmul@prod+2,??___flmul+2
  6359  002246  C044  F039         	movff	___flmul@prod+3,??___flmul+3
  6360  00224A  3439               	rlcf	(??___flmul+3)^0,w,c
  6361  00224C  3239               	rrcf	(??___flmul+3)^0,f,c
  6362  00224E  3238               	rrcf	(??___flmul+2)^0,f,c
  6363  002250  3237               	rrcf	(??___flmul+1)^0,f,c
  6364  002252  3236               	rrcf	??___flmul^0,f,c
  6365  002254  C036  F041         	movff	??___flmul,___flmul@prod
  6366  002258  C037  F042         	movff	??___flmul+1,___flmul@prod+1
  6367  00225C  C038  F043         	movff	??___flmul+2,___flmul@prod+2
  6368  002260  C039  F044         	movff	??___flmul+3,___flmul@prod+3
  6369  002264  4A45               	infsnz	___flmul@temp^0,f,c
  6370  002266  2A46               	incf	(___flmul@temp+1)^0,f,c
  6371  002268                     l3485:
  6372  002268  BE46               	btfsc	(___flmul@temp+1)^0,7,c
  6373  00226A  EF3F  F011         	goto	u3801
  6374  00226E  5046               	movf	(___flmul@temp+1)^0,w,c
  6375  002270  E108               	bnz	u3800
  6376  002272  2845               	incf	___flmul@temp^0,w,c
  6377  002274  A0D8               	btfss	status,0,c
  6378  002276  EF3F  F011         	goto	u3801
  6379  00227A  EF41  F011         	goto	u3800
  6380  00227E                     u3801:
  6381  00227E  EF4B  F011         	goto	l3489
  6382  002282                     u3800:
  6383  002282  0E00               	movlw	0
  6384  002284  6E41               	movwf	___flmul@prod^0,c
  6385  002286  0E00               	movlw	0
  6386  002288  6E42               	movwf	(___flmul@prod+1)^0,c
  6387  00228A  0E80               	movlw	128
  6388  00228C  6E43               	movwf	(___flmul@prod+2)^0,c
  6389  00228E  0E7F               	movlw	127
  6390  002290  6E44               	movwf	(___flmul@prod+3)^0,c
  6391  002292  EF79  F011         	goto	l3501
  6392  002296                     l3489:
  6393  002296  BE46               	btfsc	(___flmul@temp+1)^0,7,c
  6394  002298  EF58  F011         	goto	u3810
  6395  00229C  5046               	movf	(___flmul@temp+1)^0,w,c
  6396  00229E  E106               	bnz	u3811
  6397  0022A0  0445               	decf	___flmul@temp^0,w,c
  6398  0022A2  B0D8               	btfsc	status,0,c
  6399  0022A4  EF56  F011         	goto	u3811
  6400  0022A8  EF58  F011         	goto	u3810
  6401  0022AC                     u3811:
  6402  0022AC  EF64  F011         	goto	l762
  6403  0022B0                     u3810:
  6404  0022B0  0E00               	movlw	0
  6405  0022B2  6E41               	movwf	___flmul@prod^0,c
  6406  0022B4  0E00               	movlw	0
  6407  0022B6  6E42               	movwf	(___flmul@prod+1)^0,c
  6408  0022B8  0E00               	movlw	0
  6409  0022BA  6E43               	movwf	(___flmul@prod+2)^0,c
  6410  0022BC  0E00               	movlw	0
  6411  0022BE  6E44               	movwf	(___flmul@prod+3)^0,c
  6412  0022C0  0E00               	movlw	0
  6413  0022C2  6E3A               	movwf	___flmul@sign^0,c
  6414  0022C4  EF79  F011         	goto	l3501
  6415  0022C8                     l762:
  6416  0022C8  C045  F040         	movff	___flmul@temp,___flmul@bexp
  6417  0022CC  0EFF               	movlw	255
  6418  0022CE  1641               	andwf	___flmul@prod^0,f,c
  6419  0022D0  0EFF               	movlw	255
  6420  0022D2  1642               	andwf	(___flmul@prod+1)^0,f,c
  6421  0022D4  0E7F               	movlw	127
  6422  0022D6  1643               	andwf	(___flmul@prod+2)^0,f,c
  6423  0022D8  0E00               	movlw	0
  6424  0022DA  1644               	andwf	(___flmul@prod+3)^0,f,c
  6425  0022DC  A040               	btfss	___flmul@bexp^0,0,c
  6426  0022DE  EF73  F011         	goto	u3821
  6427  0022E2  EF75  F011         	goto	u3820
  6428  0022E6                     u3821:
  6429  0022E6  EF76  F011         	goto	l3499
  6430  0022EA                     u3820:
  6431  0022EA  8E43               	bsf	(___flmul@prod+2)^0,7,c
  6432  0022EC                     l3499:
  6433  0022EC  90D8               	bcf	status,0,c
  6434  0022EE  3040               	rrcf	___flmul@bexp^0,w,c
  6435  0022F0  6E44               	movwf	(___flmul@prod+3)^0,c
  6436  0022F2                     l3501:
  6437  0022F2  503A               	movf	___flmul@sign^0,w,c
  6438  0022F4  1244               	iorwf	(___flmul@prod+3)^0,f,c
  6439  0022F6  C041  F02E         	movff	___flmul@prod,?___flmul
  6440  0022FA  C042  F02F         	movff	___flmul@prod+1,?___flmul+1
  6441  0022FE  C043  F030         	movff	___flmul@prod+2,?___flmul+2
  6442  002302  C044  F031         	movff	___flmul@prod+3,?___flmul+3
  6443  002306                     l749:
  6444  002306  0012               	return		;funcret
  6445  002308                     __end_of___flmul:
  6446                           	callstack 0
  6447                           
  6448 ;; *************** function ___flge *****************
  6449 ;; Defined at:
  6450 ;;		line 4 in file "C:\Program Files\Microchip\xc8\v2.20\pic\sources\c99\common\flge.c"
  6451 ;; Parameters:    Size  Location     Type
  6452 ;;  ff1             4   70[COMRAM] unsigned char 
  6453 ;;  ff2             4   74[COMRAM] unsigned char 
  6454 ;; Auto vars:     Size  Location     Type
  6455 ;;		None
  6456 ;; Return value:  Size  Location     Type
  6457 ;;		None               void
  6458 ;; Registers used:
  6459 ;;		wreg, status,2, status,0
  6460 ;; Tracked objects:
  6461 ;;		On entry : 0/0
  6462 ;;		On exit  : 0/0
  6463 ;;		Unchanged: 0/0
  6464 ;; Data sizes:     COMRAM   BANK0   BANK1   BANK2   BANK3   BANK4   BANK5   BANK6   BANK7
  6465 ;;      Params:         8       0       0       0       0       0       0       0       0
  6466 ;;      Locals:         0       0       0       0       0       0       0       0       0
  6467 ;;      Temps:          4       0       0       0       0       0       0       0       0
  6468 ;;      Totals:        12       0       0       0       0       0       0       0       0
  6469 ;;Total ram usage:       12 bytes
  6470 ;; Hardware stack levels used:    1
  6471 ;; Hardware stack levels required when called:    1
  6472 ;; This function calls:
  6473 ;;		Nothing
  6474 ;; This function is called by:
  6475 ;;		_efgtoa
  6476 ;; This function uses a non-reentrant model
  6477 ;;
  6478                           
  6479                           	psect	text16
  6480  003618                     __ptext16:
  6481                           	callstack 0
  6482  003618                     ___flge:
  6483                           	callstack 25
  6484  003618  0E00               	movlw	0
  6485  00361A  1447               	andwf	___flge@ff1^0,w,c
  6486  00361C  6E4F               	movwf	??___flge^0,c
  6487  00361E  0E00               	movlw	0
  6488  003620  1448               	andwf	(___flge@ff1+1)^0,w,c
  6489  003622  6E50               	movwf	(??___flge+1)^0,c
  6490  003624  0E80               	movlw	128
  6491  003626  1449               	andwf	(___flge@ff1+2)^0,w,c
  6492  003628  6E51               	movwf	(??___flge+2)^0,c
  6493  00362A  0E7F               	movlw	127
  6494  00362C  144A               	andwf	(___flge@ff1+3)^0,w,c
  6495  00362E  6E52               	movwf	(??___flge+3)^0,c
  6496  003630  504F               	movf	??___flge^0,w,c
  6497  003632  1050               	iorwf	(??___flge+1)^0,w,c
  6498  003634  1051               	iorwf	(??___flge+2)^0,w,c
  6499  003636  1052               	iorwf	(??___flge+3)^0,w,c
  6500  003638  A4D8               	btfss	status,2,c
  6501  00363A  EF21  F01B         	goto	u3981
  6502  00363E  EF23  F01B         	goto	u3980
  6503  003642                     u3981:
  6504  003642  EF2B  F01B         	goto	l3613
  6505  003646                     u3980:
  6506  003646  0E00               	movlw	0
  6507  003648  6E47               	movwf	___flge@ff1^0,c
  6508  00364A  0E00               	movlw	0
  6509  00364C  6E48               	movwf	(___flge@ff1+1)^0,c
  6510  00364E  0E00               	movlw	0
  6511  003650  6E49               	movwf	(___flge@ff1+2)^0,c
  6512  003652  0E00               	movlw	0
  6513  003654  6E4A               	movwf	(___flge@ff1+3)^0,c
  6514  003656                     l3613:
  6515  003656  0E00               	movlw	0
  6516  003658  144B               	andwf	___flge@ff2^0,w,c
  6517  00365A  6E4F               	movwf	??___flge^0,c
  6518  00365C  0E00               	movlw	0
  6519  00365E  144C               	andwf	(___flge@ff2+1)^0,w,c
  6520  003660  6E50               	movwf	(??___flge+1)^0,c
  6521  003662  0E80               	movlw	128
  6522  003664  144D               	andwf	(___flge@ff2+2)^0,w,c
  6523  003666  6E51               	movwf	(??___flge+2)^0,c
  6524  003668  0E7F               	movlw	127
  6525  00366A  144E               	andwf	(___flge@ff2+3)^0,w,c
  6526  00366C  6E52               	movwf	(??___flge+3)^0,c
  6527  00366E  504F               	movf	??___flge^0,w,c
  6528  003670  1050               	iorwf	(??___flge+1)^0,w,c
  6529  003672  1051               	iorwf	(??___flge+2)^0,w,c
  6530  003674  1052               	iorwf	(??___flge+3)^0,w,c
  6531  003676  A4D8               	btfss	status,2,c
  6532  003678  EF40  F01B         	goto	u3991
  6533  00367C  EF42  F01B         	goto	u3990
  6534  003680                     u3991:
  6535  003680  EF4A  F01B         	goto	l3617
  6536  003684                     u3990:
  6537  003684  0E00               	movlw	0
  6538  003686  6E4B               	movwf	___flge@ff2^0,c
  6539  003688  0E00               	movlw	0
  6540  00368A  6E4C               	movwf	(___flge@ff2+1)^0,c
  6541  00368C  0E00               	movlw	0
  6542  00368E  6E4D               	movwf	(___flge@ff2+2)^0,c
  6543  003690  0E00               	movlw	0
  6544  003692  6E4E               	movwf	(___flge@ff2+3)^0,c
  6545  003694                     l3617:
  6546  003694  AE4A               	btfss	(___flge@ff1+3)^0,7,c
  6547  003696  EF4F  F01B         	goto	u4001
  6548  00369A  EF51  F01B         	goto	u4000
  6549  00369E                     u4001:
  6550  00369E  EF5A  F01B         	goto	l3621
  6551  0036A2                     u4000:
  6552  0036A2  6C47               	negf	___flge@ff1^0,c
  6553  0036A4  1E48               	comf	(___flge@ff1+1)^0,f,c
  6554  0036A6  B0D8               	btfsc	status,0,c
  6555  0036A8  2A48               	incf	(___flge@ff1+1)^0,f,c
  6556  0036AA  1E49               	comf	(___flge@ff1+2)^0,f,c
  6557  0036AC  B0D8               	btfsc	status,0,c
  6558  0036AE  2A49               	incf	(___flge@ff1+2)^0,f,c
  6559  0036B0  0E80               	movlw	128
  6560  0036B2  564A               	subfwb	(___flge@ff1+3)^0,f,c
  6561  0036B4                     l3621:
  6562  0036B4  AE4E               	btfss	(___flge@ff2+3)^0,7,c
  6563  0036B6  EF5F  F01B         	goto	u4011
  6564  0036BA  EF61  F01B         	goto	u4010
  6565  0036BE                     u4011:
  6566  0036BE  EF6A  F01B         	goto	l396
  6567  0036C2                     u4010:
  6568  0036C2  6C4B               	negf	___flge@ff2^0,c
  6569  0036C4  1E4C               	comf	(___flge@ff2+1)^0,f,c
  6570  0036C6  B0D8               	btfsc	status,0,c
  6571  0036C8  2A4C               	incf	(___flge@ff2+1)^0,f,c
  6572  0036CA  1E4D               	comf	(___flge@ff2+2)^0,f,c
  6573  0036CC  B0D8               	btfsc	status,0,c
  6574  0036CE  2A4D               	incf	(___flge@ff2+2)^0,f,c
  6575  0036D0  0E80               	movlw	128
  6576  0036D2  564E               	subfwb	(___flge@ff2+3)^0,f,c
  6577  0036D4                     l396:
  6578  0036D4  0E00               	movlw	0
  6579  0036D6  1A47               	xorwf	___flge@ff1^0,f,c
  6580  0036D8  0E00               	movlw	0
  6581  0036DA  1A48               	xorwf	(___flge@ff1+1)^0,f,c
  6582  0036DC  0E00               	movlw	0
  6583  0036DE  1A49               	xorwf	(___flge@ff1+2)^0,f,c
  6584  0036E0  0E80               	movlw	128
  6585  0036E2  1A4A               	xorwf	(___flge@ff1+3)^0,f,c
  6586  0036E4  0E00               	movlw	0
  6587  0036E6  1A4B               	xorwf	___flge@ff2^0,f,c
  6588  0036E8  0E00               	movlw	0
  6589  0036EA  1A4C               	xorwf	(___flge@ff2+1)^0,f,c
  6590  0036EC  0E00               	movlw	0
  6591  0036EE  1A4D               	xorwf	(___flge@ff2+2)^0,f,c
  6592  0036F0  0E80               	movlw	128
  6593  0036F2  1A4E               	xorwf	(___flge@ff2+3)^0,f,c
  6594  0036F4  504B               	movf	___flge@ff2^0,w,c
  6595  0036F6  5C47               	subwf	___flge@ff1^0,w,c
  6596  0036F8  504C               	movf	(___flge@ff2+1)^0,w,c
  6597  0036FA  5848               	subwfb	(___flge@ff1+1)^0,w,c
  6598  0036FC  504D               	movf	(___flge@ff2+2)^0,w,c
  6599  0036FE  5849               	subwfb	(___flge@ff1+2)^0,w,c
  6600  003700  504E               	movf	(___flge@ff2+3)^0,w,c
  6601  003702  584A               	subwfb	(___flge@ff1+3)^0,w,c
  6602  003704  B0D8               	btfsc	status,0,c
  6603  003706  EF87  F01B         	goto	u4021
  6604  00370A  EF89  F01B         	goto	u4020
  6605  00370E                     u4021:
  6606  00370E  EF8C  F01B         	goto	l3627
  6607  003712                     u4020:
  6608  003712  90D8               	bcf	status,0,c
  6609  003714  EF8D  F01B         	goto	l401
  6610  003718                     l3627:
  6611  003718  80D8               	bsf	status,0,c
  6612  00371A                     l401:
  6613  00371A  0012               	return		;funcret
  6614  00371C                     __end_of___flge:
  6615                           	callstack 0
  6616                           
  6617 ;; *************** function ___fleq *****************
  6618 ;; Defined at:
  6619 ;;		line 4 in file "C:\Program Files\Microchip\xc8\v2.20\pic\sources\c99\common\fleq.c"
  6620 ;; Parameters:    Size  Location     Type
  6621 ;;  ff1             4    0[COMRAM] unsigned char 
  6622 ;;  ff2             4    4[COMRAM] unsigned char 
  6623 ;; Auto vars:     Size  Location     Type
  6624 ;;		None
  6625 ;; Return value:  Size  Location     Type
  6626 ;;		None               void
  6627 ;; Registers used:
  6628 ;;		wreg, status,2, status,0
  6629 ;; Tracked objects:
  6630 ;;		On entry : 0/0
  6631 ;;		On exit  : 0/0
  6632 ;;		Unchanged: 0/0
  6633 ;; Data sizes:     COMRAM   BANK0   BANK1   BANK2   BANK3   BANK4   BANK5   BANK6   BANK7
  6634 ;;      Params:         8       0       0       0       0       0       0       0       0
  6635 ;;      Locals:         0       0       0       0       0       0       0       0       0
  6636 ;;      Temps:          4       0       0       0       0       0       0       0       0
  6637 ;;      Totals:        12       0       0       0       0       0       0       0       0
  6638 ;;Total ram usage:       12 bytes
  6639 ;; Hardware stack levels used:    1
  6640 ;; Hardware stack levels required when called:    1
  6641 ;; This function calls:
  6642 ;;		Nothing
  6643 ;; This function is called by:
  6644 ;;		_efgtoa
  6645 ;; This function uses a non-reentrant model
  6646 ;;
  6647                           
  6648                           	psect	text17
  6649  003BF4                     __ptext17:
  6650                           	callstack 0
  6651  003BF4                     ___fleq:
  6652                           	callstack 25
  6653  003BF4  0E00               	movlw	0
  6654  003BF6  1401               	andwf	___fleq@ff1^0,w,c
  6655  003BF8  6E09               	movwf	??___fleq^0,c
  6656  003BFA  0E00               	movlw	0
  6657  003BFC  1402               	andwf	(___fleq@ff1+1)^0,w,c
  6658  003BFE  6E0A               	movwf	(??___fleq+1)^0,c
  6659  003C00  0E80               	movlw	128
  6660  003C02  1403               	andwf	(___fleq@ff1+2)^0,w,c
  6661  003C04  6E0B               	movwf	(??___fleq+2)^0,c
  6662  003C06  0E7F               	movlw	127
  6663  003C08  1404               	andwf	(___fleq@ff1+3)^0,w,c
  6664  003C0A  6E0C               	movwf	(??___fleq+3)^0,c
  6665  003C0C  5009               	movf	??___fleq^0,w,c
  6666  003C0E  100A               	iorwf	(??___fleq+1)^0,w,c
  6667  003C10  100B               	iorwf	(??___fleq+2)^0,w,c
  6668  003C12  100C               	iorwf	(??___fleq+3)^0,w,c
  6669  003C14  A4D8               	btfss	status,2,c
  6670  003C16  EF0F  F01E         	goto	u3951
  6671  003C1A  EF11  F01E         	goto	u3950
  6672  003C1E                     u3951:
  6673  003C1E  EF19  F01E         	goto	l3597
  6674  003C22                     u3950:
  6675  003C22  0E00               	movlw	0
  6676  003C24  6E01               	movwf	___fleq@ff1^0,c
  6677  003C26  0E00               	movlw	0
  6678  003C28  6E02               	movwf	(___fleq@ff1+1)^0,c
  6679  003C2A  0E00               	movlw	0
  6680  003C2C  6E03               	movwf	(___fleq@ff1+2)^0,c
  6681  003C2E  0E00               	movlw	0
  6682  003C30  6E04               	movwf	(___fleq@ff1+3)^0,c
  6683  003C32                     l3597:
  6684  003C32  0E00               	movlw	0
  6685  003C34  1405               	andwf	___fleq@ff2^0,w,c
  6686  003C36  6E09               	movwf	??___fleq^0,c
  6687  003C38  0E00               	movlw	0
  6688  003C3A  1406               	andwf	(___fleq@ff2+1)^0,w,c
  6689  003C3C  6E0A               	movwf	(??___fleq+1)^0,c
  6690  003C3E  0E80               	movlw	128
  6691  003C40  1407               	andwf	(___fleq@ff2+2)^0,w,c
  6692  003C42  6E0B               	movwf	(??___fleq+2)^0,c
  6693  003C44  0E7F               	movlw	127
  6694  003C46  1408               	andwf	(___fleq@ff2+3)^0,w,c
  6695  003C48  6E0C               	movwf	(??___fleq+3)^0,c
  6696  003C4A  5009               	movf	??___fleq^0,w,c
  6697  003C4C  100A               	iorwf	(??___fleq+1)^0,w,c
  6698  003C4E  100B               	iorwf	(??___fleq+2)^0,w,c
  6699  003C50  100C               	iorwf	(??___fleq+3)^0,w,c
  6700  003C52  A4D8               	btfss	status,2,c
  6701  003C54  EF2E  F01E         	goto	u3961
  6702  003C58  EF30  F01E         	goto	u3960
  6703  003C5C                     u3961:
  6704  003C5C  EF38  F01E         	goto	l3601
  6705  003C60                     u3960:
  6706  003C60  0E00               	movlw	0
  6707  003C62  6E05               	movwf	___fleq@ff2^0,c
  6708  003C64  0E00               	movlw	0
  6709  003C66  6E06               	movwf	(___fleq@ff2+1)^0,c
  6710  003C68  0E00               	movlw	0
  6711  003C6A  6E07               	movwf	(___fleq@ff2+2)^0,c
  6712  003C6C  0E00               	movlw	0
  6713  003C6E  6E08               	movwf	(___fleq@ff2+3)^0,c
  6714  003C70                     l3601:
  6715  003C70  5005               	movf	___fleq@ff2^0,w,c
  6716  003C72  1801               	xorwf	___fleq@ff1^0,w,c
  6717  003C74  E10F               	bnz	u3970
  6718  003C76  5006               	movf	(___fleq@ff2+1)^0,w,c
  6719  003C78  1802               	xorwf	(___fleq@ff1+1)^0,w,c
  6720  003C7A  E10C               	bnz	u3970
  6721  003C7C  5007               	movf	(___fleq@ff2+2)^0,w,c
  6722  003C7E  1803               	xorwf	(___fleq@ff1+2)^0,w,c
  6723  003C80  E109               	bnz	u3970
  6724  003C82  5008               	movf	(___fleq@ff2+3)^0,w,c
  6725  003C84  1804               	xorwf	(___fleq@ff1+3)^0,w,c
  6726  003C86  B4D8               	btfsc	status,2,c
  6727  003C88  EF48  F01E         	goto	u3971
  6728  003C8C  EF4A  F01E         	goto	u3970
  6729  003C90                     u3971:
  6730  003C90  EF4D  F01E         	goto	l3605
  6731  003C94                     u3970:
  6732  003C94  90D8               	bcf	status,0,c
  6733  003C96  EF4E  F01E         	goto	l390
  6734  003C9A                     l3605:
  6735  003C9A  80D8               	bsf	status,0,c
  6736  003C9C                     l390:
  6737  003C9C  0012               	return		;funcret
  6738  003C9E                     __end_of___fleq:
  6739                           	callstack 0
  6740                           
  6741 ;; *************** function ___fldiv *****************
  6742 ;; Defined at:
  6743 ;;		line 11 in file "C:\Program Files\Microchip\xc8\v2.20\pic\sources\c99\common\sprcdiv.c"
  6744 ;; Parameters:    Size  Location     Type
  6745 ;;  b               4   20[COMRAM] unsigned char 
  6746 ;;  a               4   24[COMRAM] unsigned char 
  6747 ;; Auto vars:     Size  Location     Type
  6748 ;;  grs             4   39[COMRAM] unsigned long 
  6749 ;;  rem             4   32[COMRAM] unsigned long 
  6750 ;;  new_exp         2   37[COMRAM] short 
  6751 ;;  aexp            1   44[COMRAM] unsigned char 
  6752 ;;  bexp            1   43[COMRAM] unsigned char 
  6753 ;;  sign            1   36[COMRAM] unsigned char 
  6754 ;; Return value:  Size  Location     Type
  6755 ;;                  4   20[COMRAM] unsigned char 
  6756 ;; Registers used:
  6757 ;;		wreg, status,2, status,0
  6758 ;; Tracked objects:
  6759 ;;		On entry : 0/0
  6760 ;;		On exit  : 0/0
  6761 ;;		Unchanged: 0/0
  6762 ;; Data sizes:     COMRAM   BANK0   BANK1   BANK2   BANK3   BANK4   BANK5   BANK6   BANK7
  6763 ;;      Params:         8       0       0       0       0       0       0       0       0
  6764 ;;      Locals:        13       0       0       0       0       0       0       0       0
  6765 ;;      Temps:          4       0       0       0       0       0       0       0       0
  6766 ;;      Totals:        25       0       0       0       0       0       0       0       0
  6767 ;;Total ram usage:       25 bytes
  6768 ;; Hardware stack levels used:    1
  6769 ;; Hardware stack levels required when called:    1
  6770 ;; This function calls:
  6771 ;;		Nothing
  6772 ;; This function is called by:
  6773 ;;		_main
  6774 ;;		_efgtoa
  6775 ;; This function uses a non-reentrant model
  6776 ;;
  6777                           
  6778                           	psect	text18
  6779  002308                     __ptext18:
  6780                           	callstack 0
  6781  002308                     ___fldiv:
  6782                           	callstack 25
  6783  002308  5018               	movf	(___fldiv@b+3)^0,w,c
  6784  00230A  0B80               	andlw	128
  6785  00230C  6E25               	movwf	___fldiv@sign^0,c
  6786  00230E  5018               	movf	(___fldiv@b+3)^0,w,c
  6787  002310  2418               	addwf	(___fldiv@b+3)^0,w,c
  6788  002312  6E2C               	movwf	___fldiv@bexp^0,c
  6789  002314  AE17               	btfss	(___fldiv@b+2)^0,7,c
  6790  002316  EF8F  F011         	goto	u3411
  6791  00231A  EF91  F011         	goto	u3410
  6792  00231E                     u3411:
  6793  00231E  EF92  F011         	goto	l3245
  6794  002322                     u3410:
  6795  002322  802C               	bsf	___fldiv@bexp^0,0,c
  6796  002324                     l3245:
  6797  002324  502C               	movf	___fldiv@bexp^0,w,c
  6798  002326  B4D8               	btfsc	status,2,c
  6799  002328  EF98  F011         	goto	u3421
  6800  00232C  EF9A  F011         	goto	u3420
  6801  002330                     u3421:
  6802  002330  EFAF  F011         	goto	l3255
  6803  002334                     u3420:
  6804  002334  282C               	incf	___fldiv@bexp^0,w,c
  6805  002336  A4D8               	btfss	status,2,c
  6806  002338  EFA0  F011         	goto	u3431
  6807  00233C  EFA2  F011         	goto	u3430
  6808  002340                     u3431:
  6809  002340  EFAA  F011         	goto	l3251
  6810  002344                     u3430:
  6811  002344  0E00               	movlw	0
  6812  002346  6E15               	movwf	___fldiv@b^0,c
  6813  002348  0E00               	movlw	0
  6814  00234A  6E16               	movwf	(___fldiv@b+1)^0,c
  6815  00234C  0E00               	movlw	0
  6816  00234E  6E17               	movwf	(___fldiv@b+2)^0,c
  6817  002350  0E00               	movlw	0
  6818  002352  6E18               	movwf	(___fldiv@b+3)^0,c
  6819  002354                     l3251:
  6820  002354  8E17               	bsf	(___fldiv@b+2)^0,7,c
  6821  002356  0E00               	movlw	0
  6822  002358  6E18               	movwf	(___fldiv@b+3)^0,c
  6823  00235A  EFB7  F011         	goto	l3257
  6824  00235E                     l3255:
  6825  00235E  0E00               	movlw	0
  6826  002360  6E15               	movwf	___fldiv@b^0,c
  6827  002362  0E00               	movlw	0
  6828  002364  6E16               	movwf	(___fldiv@b+1)^0,c
  6829  002366  0E00               	movlw	0
  6830  002368  6E17               	movwf	(___fldiv@b+2)^0,c
  6831  00236A  0E00               	movlw	0
  6832  00236C  6E18               	movwf	(___fldiv@b+3)^0,c
  6833  00236E                     l3257:
  6834  00236E  501C               	movf	(___fldiv@a+3)^0,w,c
  6835  002370  0B80               	andlw	128
  6836  002372  1A25               	xorwf	___fldiv@sign^0,f,c
  6837  002374  501C               	movf	(___fldiv@a+3)^0,w,c
  6838  002376  241C               	addwf	(___fldiv@a+3)^0,w,c
  6839  002378  6E2D               	movwf	___fldiv@aexp^0,c
  6840  00237A  AE1B               	btfss	(___fldiv@a+2)^0,7,c
  6841  00237C  EFC2  F011         	goto	u3441
  6842  002380  EFC4  F011         	goto	u3440
  6843  002384                     u3441:
  6844  002384  EFC5  F011         	goto	l3265
  6845  002388                     u3440:
  6846  002388  802D               	bsf	___fldiv@aexp^0,0,c
  6847  00238A                     l3265:
  6848  00238A  502D               	movf	___fldiv@aexp^0,w,c
  6849  00238C  B4D8               	btfsc	status,2,c
  6850  00238E  EFCB  F011         	goto	u3451
  6851  002392  EFCD  F011         	goto	u3450
  6852  002396                     u3451:
  6853  002396  EFE2  F011         	goto	l3275
  6854  00239A                     u3450:
  6855  00239A  282D               	incf	___fldiv@aexp^0,w,c
  6856  00239C  A4D8               	btfss	status,2,c
  6857  00239E  EFD3  F011         	goto	u3461
  6858  0023A2  EFD5  F011         	goto	u3460
  6859  0023A6                     u3461:
  6860  0023A6  EFDD  F011         	goto	l3271
  6861  0023AA                     u3460:
  6862  0023AA  0E00               	movlw	0
  6863  0023AC  6E19               	movwf	___fldiv@a^0,c
  6864  0023AE  0E00               	movlw	0
  6865  0023B0  6E1A               	movwf	(___fldiv@a+1)^0,c
  6866  0023B2  0E00               	movlw	0
  6867  0023B4  6E1B               	movwf	(___fldiv@a+2)^0,c
  6868  0023B6  0E00               	movlw	0
  6869  0023B8  6E1C               	movwf	(___fldiv@a+3)^0,c
  6870  0023BA                     l3271:
  6871  0023BA  8E1B               	bsf	(___fldiv@a+2)^0,7,c
  6872  0023BC  0E00               	movlw	0
  6873  0023BE  6E1C               	movwf	(___fldiv@a+3)^0,c
  6874  0023C0  EFEA  F011         	goto	l3277
  6875  0023C4                     l3275:
  6876  0023C4  0E00               	movlw	0
  6877  0023C6  6E19               	movwf	___fldiv@a^0,c
  6878  0023C8  0E00               	movlw	0
  6879  0023CA  6E1A               	movwf	(___fldiv@a+1)^0,c
  6880  0023CC  0E00               	movlw	0
  6881  0023CE  6E1B               	movwf	(___fldiv@a+2)^0,c
  6882  0023D0  0E00               	movlw	0
  6883  0023D2  6E1C               	movwf	(___fldiv@a+3)^0,c
  6884  0023D4                     l3277:
  6885  0023D4  5019               	movf	___fldiv@a^0,w,c
  6886  0023D6  101A               	iorwf	(___fldiv@a+1)^0,w,c
  6887  0023D8  101B               	iorwf	(___fldiv@a+2)^0,w,c
  6888  0023DA  101C               	iorwf	(___fldiv@a+3)^0,w,c
  6889  0023DC  A4D8               	btfss	status,2,c
  6890  0023DE  EFF3  F011         	goto	u3471
  6891  0023E2  EFF5  F011         	goto	u3470
  6892  0023E6                     u3471:
  6893  0023E6  EF0D  F012         	goto	l3289
  6894  0023EA                     u3470:
  6895  0023EA  0E00               	movlw	0
  6896  0023EC  6E15               	movwf	___fldiv@b^0,c
  6897  0023EE  0E00               	movlw	0
  6898  0023F0  6E16               	movwf	(___fldiv@b+1)^0,c
  6899  0023F2  0E00               	movlw	0
  6900  0023F4  6E17               	movwf	(___fldiv@b+2)^0,c
  6901  0023F6  0E00               	movlw	0
  6902  0023F8  6E18               	movwf	(___fldiv@b+3)^0,c
  6903  0023FA  0E80               	movlw	128
  6904  0023FC  1217               	iorwf	(___fldiv@b+2)^0,f,c
  6905  0023FE  0E7F               	movlw	127
  6906  002400  1218               	iorwf	(___fldiv@b+3)^0,f,c
  6907  002402                     l3283:
  6908  002402  5025               	movf	___fldiv@sign^0,w,c
  6909  002404  1218               	iorwf	(___fldiv@b+3)^0,f,c
  6910  002406  C015  F015         	movff	___fldiv@b,?___fldiv
  6911  00240A  C016  F016         	movff	___fldiv@b+1,?___fldiv+1
  6912  00240E  C017  F017         	movff	___fldiv@b+2,?___fldiv+2
  6913  002412  C018  F018         	movff	___fldiv@b+3,?___fldiv+3
  6914  002416  EF50  F013         	goto	l713
  6915  00241A                     l3289:
  6916  00241A  502C               	movf	___fldiv@bexp^0,w,c
  6917  00241C  A4D8               	btfss	status,2,c
  6918  00241E  EF13  F012         	goto	u3481
  6919  002422  EF15  F012         	goto	u3480
  6920  002426                     u3481:
  6921  002426  EF1F  F012         	goto	l3297
  6922  00242A                     u3480:
  6923  00242A  0E00               	movlw	0
  6924  00242C  6E15               	movwf	?___fldiv^0,c
  6925  00242E  0E00               	movlw	0
  6926  002430  6E16               	movwf	(?___fldiv+1)^0,c
  6927  002432  0E00               	movlw	0
  6928  002434  6E17               	movwf	(?___fldiv+2)^0,c
  6929  002436  0E00               	movlw	0
  6930  002438  6E18               	movwf	(?___fldiv+3)^0,c
  6931  00243A  EF50  F013         	goto	l713
  6932  00243E                     l3297:
  6933  00243E  502D               	movf	___fldiv@aexp^0,w,c
  6934  002440  C02C  F01D         	movff	___fldiv@bexp,??___fldiv
  6935  002444  6A1E               	clrf	(??___fldiv+1)^0,c
  6936  002446  5E1D               	subwf	??___fldiv^0,f,c
  6937  002448  0E00               	movlw	0
  6938  00244A  5A1E               	subwfb	(??___fldiv+1)^0,f,c
  6939  00244C  0E7F               	movlw	127
  6940  00244E  241D               	addwf	??___fldiv^0,w,c
  6941  002450  6E26               	movwf	___fldiv@new_exp^0,c
  6942  002452  0E00               	movlw	0
  6943  002454  201E               	addwfc	(??___fldiv+1)^0,w,c
  6944  002456  6E27               	movwf	(___fldiv@new_exp+1)^0,c
  6945  002458  C015  F021         	movff	___fldiv@b,___fldiv@rem
  6946  00245C  C016  F022         	movff	___fldiv@b+1,___fldiv@rem+1
  6947  002460  C017  F023         	movff	___fldiv@b+2,___fldiv@rem+2
  6948  002464  C018  F024         	movff	___fldiv@b+3,___fldiv@rem+3
  6949  002468  0E00               	movlw	0
  6950  00246A  6E15               	movwf	___fldiv@b^0,c
  6951  00246C  0E00               	movlw	0
  6952  00246E  6E16               	movwf	(___fldiv@b+1)^0,c
  6953  002470  0E00               	movlw	0
  6954  002472  6E17               	movwf	(___fldiv@b+2)^0,c
  6955  002474  0E00               	movlw	0
  6956  002476  6E18               	movwf	(___fldiv@b+3)^0,c
  6957  002478  0E00               	movlw	0
  6958  00247A  6E28               	movwf	___fldiv@grs^0,c
  6959  00247C  0E00               	movlw	0
  6960  00247E  6E29               	movwf	(___fldiv@grs+1)^0,c
  6961  002480  0E00               	movlw	0
  6962  002482  6E2A               	movwf	(___fldiv@grs+2)^0,c
  6963  002484  0E00               	movlw	0
  6964  002486  6E2B               	movwf	(___fldiv@grs+3)^0,c
  6965  002488  0E00               	movlw	0
  6966  00248A  6E2D               	movwf	___fldiv@aexp^0,c
  6967  00248C  EF80  F012         	goto	l715
  6968  002490                     l3307:
  6969  002490  502D               	movf	___fldiv@aexp^0,w,c
  6970  002492  B4D8               	btfsc	status,2,c
  6971  002494  EF4E  F012         	goto	u3491
  6972  002498  EF50  F012         	goto	u3490
  6973  00249C                     u3491:
  6974  00249C  EF67  F012         	goto	l3315
  6975  0024A0                     u3490:
  6976  0024A0  90D8               	bcf	status,0,c
  6977  0024A2  3621               	rlcf	___fldiv@rem^0,f,c
  6978  0024A4  3622               	rlcf	(___fldiv@rem+1)^0,f,c
  6979  0024A6  3623               	rlcf	(___fldiv@rem+2)^0,f,c
  6980  0024A8  3624               	rlcf	(___fldiv@rem+3)^0,f,c
  6981  0024AA  90D8               	bcf	status,0,c
  6982  0024AC  3615               	rlcf	___fldiv@b^0,f,c
  6983  0024AE  3616               	rlcf	(___fldiv@b+1)^0,f,c
  6984  0024B0  3617               	rlcf	(___fldiv@b+2)^0,f,c
  6985  0024B2  3618               	rlcf	(___fldiv@b+3)^0,f,c
  6986  0024B4  AE2B               	btfss	(___fldiv@grs+3)^0,7,c
  6987  0024B6  EF5F  F012         	goto	u3501
  6988  0024BA  EF61  F012         	goto	u3500
  6989  0024BE                     u3501:
  6990  0024BE  EF62  F012         	goto	l718
  6991  0024C2                     u3500:
  6992  0024C2  8015               	bsf	___fldiv@b^0,0,c
  6993  0024C4                     l718:
  6994  0024C4  90D8               	bcf	status,0,c
  6995  0024C6  3628               	rlcf	___fldiv@grs^0,f,c
  6996  0024C8  3629               	rlcf	(___fldiv@grs+1)^0,f,c
  6997  0024CA  362A               	rlcf	(___fldiv@grs+2)^0,f,c
  6998  0024CC  362B               	rlcf	(___fldiv@grs+3)^0,f,c
  6999  0024CE                     l3315:
  7000  0024CE  5019               	movf	___fldiv@a^0,w,c
  7001  0024D0  5C21               	subwf	___fldiv@rem^0,w,c
  7002  0024D2  501A               	movf	(___fldiv@a+1)^0,w,c
  7003  0024D4  5822               	subwfb	(___fldiv@rem+1)^0,w,c
  7004  0024D6  501B               	movf	(___fldiv@a+2)^0,w,c
  7005  0024D8  5823               	subwfb	(___fldiv@rem+2)^0,w,c
  7006  0024DA  501C               	movf	(___fldiv@a+3)^0,w,c
  7007  0024DC  5824               	subwfb	(___fldiv@rem+3)^0,w,c
  7008  0024DE  A0D8               	btfss	status,0,c
  7009  0024E0  EF74  F012         	goto	u3511
  7010  0024E4  EF76  F012         	goto	u3510
  7011  0024E8                     u3511:
  7012  0024E8  EF7F  F012         	goto	l3321
  7013  0024EC                     u3510:
  7014  0024EC  8C2B               	bsf	(___fldiv@grs+3)^0,6,c
  7015  0024EE  5019               	movf	___fldiv@a^0,w,c
  7016  0024F0  5E21               	subwf	___fldiv@rem^0,f,c
  7017  0024F2  501A               	movf	(___fldiv@a+1)^0,w,c
  7018  0024F4  5A22               	subwfb	(___fldiv@rem+1)^0,f,c
  7019  0024F6  501B               	movf	(___fldiv@a+2)^0,w,c
  7020  0024F8  5A23               	subwfb	(___fldiv@rem+2)^0,f,c
  7021  0024FA  501C               	movf	(___fldiv@a+3)^0,w,c
  7022  0024FC  5A24               	subwfb	(___fldiv@rem+3)^0,f,c
  7023  0024FE                     l3321:
  7024  0024FE  2A2D               	incf	___fldiv@aexp^0,f,c
  7025  002500                     l715:
  7026  002500  0E19               	movlw	25
  7027  002502  642D               	cpfsgt	___fldiv@aexp^0,c
  7028  002504  EF86  F012         	goto	u3521
  7029  002508  EF88  F012         	goto	u3520
  7030  00250C                     u3521:
  7031  00250C  EF48  F012         	goto	l3307
  7032  002510                     u3520:
  7033  002510  5021               	movf	___fldiv@rem^0,w,c
  7034  002512  1022               	iorwf	(___fldiv@rem+1)^0,w,c
  7035  002514  1023               	iorwf	(___fldiv@rem+2)^0,w,c
  7036  002516  1024               	iorwf	(___fldiv@rem+3)^0,w,c
  7037  002518  B4D8               	btfsc	status,2,c
  7038  00251A  EF91  F012         	goto	u3531
  7039  00251E  EF93  F012         	goto	u3530
  7040  002522                     u3531:
  7041  002522  EFAB  F012         	goto	l3333
  7042  002526                     u3530:
  7043  002526  8028               	bsf	___fldiv@grs^0,0,c
  7044  002528  EFAB  F012         	goto	l3333
  7045  00252C                     l3327:
  7046  00252C  90D8               	bcf	status,0,c
  7047  00252E  3615               	rlcf	___fldiv@b^0,f,c
  7048  002530  3616               	rlcf	(___fldiv@b+1)^0,f,c
  7049  002532  3617               	rlcf	(___fldiv@b+2)^0,f,c
  7050  002534  3618               	rlcf	(___fldiv@b+3)^0,f,c
  7051  002536  AE2B               	btfss	(___fldiv@grs+3)^0,7,c
  7052  002538  EFA0  F012         	goto	u3541
  7053  00253C  EFA2  F012         	goto	u3540
  7054  002540                     u3541:
  7055  002540  EFA3  F012         	goto	l724
  7056  002544                     u3540:
  7057  002544  8015               	bsf	___fldiv@b^0,0,c
  7058  002546                     l724:
  7059  002546  90D8               	bcf	status,0,c
  7060  002548  3628               	rlcf	___fldiv@grs^0,f,c
  7061  00254A  3629               	rlcf	(___fldiv@grs+1)^0,f,c
  7062  00254C  362A               	rlcf	(___fldiv@grs+2)^0,f,c
  7063  00254E  362B               	rlcf	(___fldiv@grs+3)^0,f,c
  7064  002550  0626               	decf	___fldiv@new_exp^0,f,c
  7065  002552  A0D8               	btfss	status,0,c
  7066  002554  0627               	decf	(___fldiv@new_exp+1)^0,f,c
  7067  002556                     l3333:
  7068  002556  AE17               	btfss	(___fldiv@b+2)^0,7,c
  7069  002558  EFB0  F012         	goto	u3551
  7070  00255C  EFB2  F012         	goto	u3550
  7071  002560                     u3551:
  7072  002560  EF96  F012         	goto	l3327
  7073  002564                     u3550:
  7074  002564  0E00               	movlw	0
  7075  002566  6E2D               	movwf	___fldiv@aexp^0,c
  7076  002568  AE2B               	btfss	(___fldiv@grs+3)^0,7,c
  7077  00256A  EFB9  F012         	goto	u3561
  7078  00256E  EFBB  F012         	goto	u3560
  7079  002572                     u3561:
  7080  002572  EFDF  F012         	goto	l726
  7081  002576                     u3560:
  7082  002576  0EFF               	movlw	255
  7083  002578  1428               	andwf	___fldiv@grs^0,w,c
  7084  00257A  6E1D               	movwf	??___fldiv^0,c
  7085  00257C  0EFF               	movlw	255
  7086  00257E  1429               	andwf	(___fldiv@grs+1)^0,w,c
  7087  002580  6E1E               	movwf	(??___fldiv+1)^0,c
  7088  002582  0EFF               	movlw	255
  7089  002584  142A               	andwf	(___fldiv@grs+2)^0,w,c
  7090  002586  6E1F               	movwf	(??___fldiv+2)^0,c
  7091  002588  0E7F               	movlw	127
  7092  00258A  142B               	andwf	(___fldiv@grs+3)^0,w,c
  7093  00258C  6E20               	movwf	(??___fldiv+3)^0,c
  7094  00258E  501D               	movf	??___fldiv^0,w,c
  7095  002590  101E               	iorwf	(??___fldiv+1)^0,w,c
  7096  002592  101F               	iorwf	(??___fldiv+2)^0,w,c
  7097  002594  1020               	iorwf	(??___fldiv+3)^0,w,c
  7098  002596  B4D8               	btfsc	status,2,c
  7099  002598  EFD0  F012         	goto	u3571
  7100  00259C  EFD2  F012         	goto	u3570
  7101  0025A0                     u3571:
  7102  0025A0  EFD6  F012         	goto	l727
  7103  0025A4                     u3570:
  7104  0025A4                     l3341:
  7105  0025A4  0E01               	movlw	1
  7106  0025A6  6E2D               	movwf	___fldiv@aexp^0,c
  7107  0025A8  EFDF  F012         	goto	l726
  7108  0025AC                     l727:
  7109  0025AC  A015               	btfss	___fldiv@b^0,0,c
  7110  0025AE  EFDB  F012         	goto	u3581
  7111  0025B2  EFDD  F012         	goto	u3580
  7112  0025B6                     u3581:
  7113  0025B6  EFDF  F012         	goto	l726
  7114  0025BA                     u3580:
  7115  0025BA  EFD2  F012         	goto	l3341
  7116  0025BE                     l726:
  7117  0025BE  502D               	movf	___fldiv@aexp^0,w,c
  7118  0025C0  B4D8               	btfsc	status,2,c
  7119  0025C2  EFE5  F012         	goto	u3591
  7120  0025C6  EFE7  F012         	goto	u3590
  7121  0025CA                     u3591:
  7122  0025CA  EF0B  F013         	goto	l3353
  7123  0025CE                     u3590:
  7124  0025CE  0E01               	movlw	1
  7125  0025D0  2615               	addwf	___fldiv@b^0,f,c
  7126  0025D2  0E00               	movlw	0
  7127  0025D4  2216               	addwfc	(___fldiv@b+1)^0,f,c
  7128  0025D6  2217               	addwfc	(___fldiv@b+2)^0,f,c
  7129  0025D8  2218               	addwfc	(___fldiv@b+3)^0,f,c
  7130  0025DA  A018               	btfss	(___fldiv@b+3)^0,0,c
  7131  0025DC  EFF2  F012         	goto	u3601
  7132  0025E0  EFF4  F012         	goto	u3600
  7133  0025E4                     u3601:
  7134  0025E4  EF0B  F013         	goto	l3353
  7135  0025E8                     u3600:
  7136  0025E8  C015  F01D         	movff	___fldiv@b,??___fldiv
  7137  0025EC  C016  F01E         	movff	___fldiv@b+1,??___fldiv+1
  7138  0025F0  C017  F01F         	movff	___fldiv@b+2,??___fldiv+2
  7139  0025F4  C018  F020         	movff	___fldiv@b+3,??___fldiv+3
  7140  0025F8  3420               	rlcf	(??___fldiv+3)^0,w,c
  7141  0025FA  3220               	rrcf	(??___fldiv+3)^0,f,c
  7142  0025FC  321F               	rrcf	(??___fldiv+2)^0,f,c
  7143  0025FE  321E               	rrcf	(??___fldiv+1)^0,f,c
  7144  002600  321D               	rrcf	??___fldiv^0,f,c
  7145  002602  C01D  F015         	movff	??___fldiv,___fldiv@b
  7146  002606  C01E  F016         	movff	??___fldiv+1,___fldiv@b+1
  7147  00260A  C01F  F017         	movff	??___fldiv+2,___fldiv@b+2
  7148  00260E  C020  F018         	movff	??___fldiv+3,___fldiv@b+3
  7149  002612  4A26               	infsnz	___fldiv@new_exp^0,f,c
  7150  002614  2A27               	incf	(___fldiv@new_exp+1)^0,f,c
  7151  002616                     l3353:
  7152  002616  BE27               	btfsc	(___fldiv@new_exp+1)^0,7,c
  7153  002618  EF16  F013         	goto	u3611
  7154  00261C  5027               	movf	(___fldiv@new_exp+1)^0,w,c
  7155  00261E  E108               	bnz	u3610
  7156  002620  2826               	incf	___fldiv@new_exp^0,w,c
  7157  002622  A0D8               	btfss	status,0,c
  7158  002624  EF16  F013         	goto	u3611
  7159  002628  EF18  F013         	goto	u3610
  7160  00262C                     u3611:
  7161  00262C  EF23  F013         	goto	l3357
  7162  002630                     u3610:
  7163  002630  0E00               	movlw	0
  7164  002632  6E27               	movwf	(___fldiv@new_exp+1)^0,c
  7165  002634  6826               	setf	___fldiv@new_exp^0,c
  7166  002636  0E00               	movlw	0
  7167  002638  6E15               	movwf	___fldiv@b^0,c
  7168  00263A  0E00               	movlw	0
  7169  00263C  6E16               	movwf	(___fldiv@b+1)^0,c
  7170  00263E  0E00               	movlw	0
  7171  002640  6E17               	movwf	(___fldiv@b+2)^0,c
  7172  002642  0E00               	movlw	0
  7173  002644  6E18               	movwf	(___fldiv@b+3)^0,c
  7174  002646                     l3357:
  7175  002646  BE27               	btfsc	(___fldiv@new_exp+1)^0,7,c
  7176  002648  EF30  F013         	goto	u3620
  7177  00264C  5027               	movf	(___fldiv@new_exp+1)^0,w,c
  7178  00264E  E106               	bnz	u3621
  7179  002650  0426               	decf	___fldiv@new_exp^0,w,c
  7180  002652  B0D8               	btfsc	status,0,c
  7181  002654  EF2E  F013         	goto	u3621
  7182  002658  EF30  F013         	goto	u3620
  7183  00265C                     u3621:
  7184  00265C  EF3E  F013         	goto	l3361
  7185  002660                     u3620:
  7186  002660  0E00               	movlw	0
  7187  002662  6E27               	movwf	(___fldiv@new_exp+1)^0,c
  7188  002664  0E00               	movlw	0
  7189  002666  6E26               	movwf	___fldiv@new_exp^0,c
  7190  002668  0E00               	movlw	0
  7191  00266A  6E15               	movwf	___fldiv@b^0,c
  7192  00266C  0E00               	movlw	0
  7193  00266E  6E16               	movwf	(___fldiv@b+1)^0,c
  7194  002670  0E00               	movlw	0
  7195  002672  6E17               	movwf	(___fldiv@b+2)^0,c
  7196  002674  0E00               	movlw	0
  7197  002676  6E18               	movwf	(___fldiv@b+3)^0,c
  7198  002678  0E00               	movlw	0
  7199  00267A  6E25               	movwf	___fldiv@sign^0,c
  7200  00267C                     l3361:
  7201  00267C  C026  F02C         	movff	___fldiv@new_exp,___fldiv@bexp
  7202  002680  A02C               	btfss	___fldiv@bexp^0,0,c
  7203  002682  EF45  F013         	goto	u3631
  7204  002686  EF47  F013         	goto	u3630
  7205  00268A                     u3631:
  7206  00268A  EF4A  F013         	goto	l3367
  7207  00268E                     u3630:
  7208  00268E  8E17               	bsf	(___fldiv@b+2)^0,7,c
  7209  002690  EF4B  F013         	goto	l3369
  7210  002694                     l3367:
  7211  002694  9E17               	bcf	(___fldiv@b+2)^0,7,c
  7212  002696                     l3369:
  7213  002696  90D8               	bcf	status,0,c
  7214  002698  302C               	rrcf	___fldiv@bexp^0,w,c
  7215  00269A  6E18               	movwf	(___fldiv@b+3)^0,c
  7216  00269C  EF01  F012         	goto	l3283
  7217  0026A0                     l713:
  7218  0026A0  0012               	return		;funcret
  7219  0026A2                     __end_of___fldiv:
  7220                           	callstack 0
  7221                           
  7222 ;; *************** function ___awmod *****************
  7223 ;; Defined at:
  7224 ;;		line 7 in file "C:\Program Files\Microchip\xc8\v2.20\pic\sources\c99\common\awmod.c"
  7225 ;; Parameters:    Size  Location     Type
  7226 ;;  dividend        2    0[COMRAM] int 
  7227 ;;  divisor         2    2[COMRAM] int 
  7228 ;; Auto vars:     Size  Location     Type
  7229 ;;  sign            1    5[COMRAM] unsigned char 
  7230 ;;  counter         1    4[COMRAM] unsigned char 
  7231 ;; Return value:  Size  Location     Type
  7232 ;;                  2    0[COMRAM] int 
  7233 ;; Registers used:
  7234 ;;		wreg, status,2, status,0
  7235 ;; Tracked objects:
  7236 ;;		On entry : 0/0
  7237 ;;		On exit  : 0/0
  7238 ;;		Unchanged: 0/0
  7239 ;; Data sizes:     COMRAM   BANK0   BANK1   BANK2   BANK3   BANK4   BANK5   BANK6   BANK7
  7240 ;;      Params:         4       0       0       0       0       0       0       0       0
  7241 ;;      Locals:         2       0       0       0       0       0       0       0       0
  7242 ;;      Temps:          0       0       0       0       0       0       0       0       0
  7243 ;;      Totals:         6       0       0       0       0       0       0       0       0
  7244 ;;Total ram usage:        6 bytes
  7245 ;; Hardware stack levels used:    1
  7246 ;; Hardware stack levels required when called:    1
  7247 ;; This function calls:
  7248 ;;		Nothing
  7249 ;; This function is called by:
  7250 ;;		_efgtoa
  7251 ;; This function uses a non-reentrant model
  7252 ;;
  7253                           
  7254                           	psect	text19
  7255  003B44                     __ptext19:
  7256                           	callstack 0
  7257  003B44                     ___awmod:
  7258                           	callstack 25
  7259  003B44  0E00               	movlw	0
  7260  003B46  6E06               	movwf	___awmod@sign^0,c
  7261  003B48  BE02               	btfsc	(___awmod@dividend+1)^0,7,c
  7262  003B4A  EFAB  F01D         	goto	u3890
  7263  003B4E  EFA9  F01D         	goto	u3891
  7264  003B52                     u3891:
  7265  003B52  EFB1  F01D         	goto	l3565
  7266  003B56                     u3890:
  7267  003B56  6C01               	negf	___awmod@dividend^0,c
  7268  003B58  1E02               	comf	(___awmod@dividend+1)^0,f,c
  7269  003B5A  B0D8               	btfsc	status,0,c
  7270  003B5C  2A02               	incf	(___awmod@dividend+1)^0,f,c
  7271  003B5E  0E01               	movlw	1
  7272  003B60  6E06               	movwf	___awmod@sign^0,c
  7273  003B62                     l3565:
  7274  003B62  BE04               	btfsc	(___awmod@divisor+1)^0,7,c
  7275  003B64  EFB8  F01D         	goto	u3900
  7276  003B68  EFB6  F01D         	goto	u3901
  7277  003B6C                     u3901:
  7278  003B6C  EFBC  F01D         	goto	l3569
  7279  003B70                     u3900:
  7280  003B70  6C03               	negf	___awmod@divisor^0,c
  7281  003B72  1E04               	comf	(___awmod@divisor+1)^0,f,c
  7282  003B74  B0D8               	btfsc	status,0,c
  7283  003B76  2A04               	incf	(___awmod@divisor+1)^0,f,c
  7284  003B78                     l3569:
  7285  003B78  5003               	movf	___awmod@divisor^0,w,c
  7286  003B7A  1004               	iorwf	(___awmod@divisor+1)^0,w,c
  7287  003B7C  B4D8               	btfsc	status,2,c
  7288  003B7E  EFC3  F01D         	goto	u3911
  7289  003B82  EFC5  F01D         	goto	u3910
  7290  003B86                     u3911:
  7291  003B86  EFE9  F01D         	goto	l3585
  7292  003B8A                     u3910:
  7293  003B8A  0E01               	movlw	1
  7294  003B8C  6E05               	movwf	___awmod@counter^0,c
  7295  003B8E  EFCD  F01D         	goto	l3575
  7296  003B92                     l3573:
  7297  003B92  90D8               	bcf	status,0,c
  7298  003B94  3603               	rlcf	___awmod@divisor^0,f,c
  7299  003B96  3604               	rlcf	(___awmod@divisor+1)^0,f,c
  7300  003B98  2A05               	incf	___awmod@counter^0,f,c
  7301  003B9A                     l3575:
  7302  003B9A  AE04               	btfss	(___awmod@divisor+1)^0,7,c
  7303  003B9C  EFD2  F01D         	goto	u3921
  7304  003BA0  EFD4  F01D         	goto	u3920
  7305  003BA4                     u3921:
  7306  003BA4  EFC9  F01D         	goto	l3573
  7307  003BA8                     u3920:
  7308  003BA8                     l3577:
  7309  003BA8  5003               	movf	___awmod@divisor^0,w,c
  7310  003BAA  5C01               	subwf	___awmod@dividend^0,w,c
  7311  003BAC  5004               	movf	(___awmod@divisor+1)^0,w,c
  7312  003BAE  5802               	subwfb	(___awmod@dividend+1)^0,w,c
  7313  003BB0  A0D8               	btfss	status,0,c
  7314  003BB2  EFDD  F01D         	goto	u3931
  7315  003BB6  EFDF  F01D         	goto	u3930
  7316  003BBA                     u3931:
  7317  003BBA  EFE3  F01D         	goto	l3581
  7318  003BBE                     u3930:
  7319  003BBE  5003               	movf	___awmod@divisor^0,w,c
  7320  003BC0  5E01               	subwf	___awmod@dividend^0,f,c
  7321  003BC2  5004               	movf	(___awmod@divisor+1)^0,w,c
  7322  003BC4  5A02               	subwfb	(___awmod@dividend+1)^0,f,c
  7323  003BC6                     l3581:
  7324  003BC6  90D8               	bcf	status,0,c
  7325  003BC8  3204               	rrcf	(___awmod@divisor+1)^0,f,c
  7326  003BCA  3203               	rrcf	___awmod@divisor^0,f,c
  7327  003BCC  2E05               	decfsz	___awmod@counter^0,f,c
  7328  003BCE  EFD4  F01D         	goto	l3577
  7329  003BD2                     l3585:
  7330  003BD2  5006               	movf	___awmod@sign^0,w,c
  7331  003BD4  B4D8               	btfsc	status,2,c
  7332  003BD6  EFEF  F01D         	goto	u3941
  7333  003BDA  EFF1  F01D         	goto	u3940
  7334  003BDE                     u3941:
  7335  003BDE  EFF5  F01D         	goto	l3589
  7336  003BE2                     u3940:
  7337  003BE2  6C01               	negf	___awmod@dividend^0,c
  7338  003BE4  1E02               	comf	(___awmod@dividend+1)^0,f,c
  7339  003BE6  B0D8               	btfsc	status,0,c
  7340  003BE8  2A02               	incf	(___awmod@dividend+1)^0,f,c
  7341  003BEA                     l3589:
  7342  003BEA  C001  F001         	movff	___awmod@dividend,?___awmod
  7343  003BEE  C002  F002         	movff	___awmod@dividend+1,?___awmod+1
  7344  003BF2  0012               	return		;funcret
  7345  003BF4                     __end_of___awmod:
  7346                           	callstack 0
  7347                           
  7348 ;; *************** function ___awdiv *****************
  7349 ;; Defined at:
  7350 ;;		line 7 in file "C:\Program Files\Microchip\xc8\v2.20\pic\sources\c99\common\awdiv.c"
  7351 ;; Parameters:    Size  Location     Type
  7352 ;;  dividend        2    0[COMRAM] int 
  7353 ;;  divisor         2    2[COMRAM] int 
  7354 ;; Auto vars:     Size  Location     Type
  7355 ;;  quotient        2    6[COMRAM] int 
  7356 ;;  sign            1    5[COMRAM] unsigned char 
  7357 ;;  counter         1    4[COMRAM] unsigned char 
  7358 ;; Return value:  Size  Location     Type
  7359 ;;                  2    0[COMRAM] int 
  7360 ;; Registers used:
  7361 ;;		wreg, status,2, status,0
  7362 ;; Tracked objects:
  7363 ;;		On entry : 0/0
  7364 ;;		On exit  : 0/0
  7365 ;;		Unchanged: 0/0
  7366 ;; Data sizes:     COMRAM   BANK0   BANK1   BANK2   BANK3   BANK4   BANK5   BANK6   BANK7
  7367 ;;      Params:         4       0       0       0       0       0       0       0       0
  7368 ;;      Locals:         4       0       0       0       0       0       0       0       0
  7369 ;;      Temps:          0       0       0       0       0       0       0       0       0
  7370 ;;      Totals:         8       0       0       0       0       0       0       0       0
  7371 ;;Total ram usage:        8 bytes
  7372 ;; Hardware stack levels used:    1
  7373 ;; Hardware stack levels required when called:    1
  7374 ;; This function calls:
  7375 ;;		Nothing
  7376 ;; This function is called by:
  7377 ;;		_efgtoa
  7378 ;; This function uses a non-reentrant model
  7379 ;;
  7380                           
  7381                           	psect	text20
  7382  003A80                     __ptext20:
  7383                           	callstack 0
  7384  003A80                     ___awdiv:
  7385                           	callstack 25
  7386  003A80  0E00               	movlw	0
  7387  003A82  6E06               	movwf	___awdiv@sign^0,c
  7388  003A84  BE04               	btfsc	(___awdiv@divisor+1)^0,7,c
  7389  003A86  EF49  F01D         	goto	u3830
  7390  003A8A  EF47  F01D         	goto	u3831
  7391  003A8E                     u3831:
  7392  003A8E  EF4F  F01D         	goto	l3521
  7393  003A92                     u3830:
  7394  003A92  6C03               	negf	___awdiv@divisor^0,c
  7395  003A94  1E04               	comf	(___awdiv@divisor+1)^0,f,c
  7396  003A96  B0D8               	btfsc	status,0,c
  7397  003A98  2A04               	incf	(___awdiv@divisor+1)^0,f,c
  7398  003A9A  0E01               	movlw	1
  7399  003A9C  6E06               	movwf	___awdiv@sign^0,c
  7400  003A9E                     l3521:
  7401  003A9E  BE02               	btfsc	(___awdiv@dividend+1)^0,7,c
  7402  003AA0  EF56  F01D         	goto	u3840
  7403  003AA4  EF54  F01D         	goto	u3841
  7404  003AA8                     u3841:
  7405  003AA8  EF5C  F01D         	goto	l3527
  7406  003AAC                     u3840:
  7407  003AAC  6C01               	negf	___awdiv@dividend^0,c
  7408  003AAE  1E02               	comf	(___awdiv@dividend+1)^0,f,c
  7409  003AB0  B0D8               	btfsc	status,0,c
  7410  003AB2  2A02               	incf	(___awdiv@dividend+1)^0,f,c
  7411  003AB4  0E01               	movlw	1
  7412  003AB6  1A06               	xorwf	___awdiv@sign^0,f,c
  7413  003AB8                     l3527:
  7414  003AB8  0E00               	movlw	0
  7415  003ABA  6E08               	movwf	(___awdiv@quotient+1)^0,c
  7416  003ABC  0E00               	movlw	0
  7417  003ABE  6E07               	movwf	___awdiv@quotient^0,c
  7418  003AC0  5003               	movf	___awdiv@divisor^0,w,c
  7419  003AC2  1004               	iorwf	(___awdiv@divisor+1)^0,w,c
  7420  003AC4  B4D8               	btfsc	status,2,c
  7421  003AC6  EF67  F01D         	goto	u3851
  7422  003ACA  EF69  F01D         	goto	u3850
  7423  003ACE                     u3851:
  7424  003ACE  EF91  F01D         	goto	l3549
  7425  003AD2                     u3850:
  7426  003AD2  0E01               	movlw	1
  7427  003AD4  6E05               	movwf	___awdiv@counter^0,c
  7428  003AD6  EF71  F01D         	goto	l3535
  7429  003ADA                     l3533:
  7430  003ADA  90D8               	bcf	status,0,c
  7431  003ADC  3603               	rlcf	___awdiv@divisor^0,f,c
  7432  003ADE  3604               	rlcf	(___awdiv@divisor+1)^0,f,c
  7433  003AE0  2A05               	incf	___awdiv@counter^0,f,c
  7434  003AE2                     l3535:
  7435  003AE2  AE04               	btfss	(___awdiv@divisor+1)^0,7,c
  7436  003AE4  EF76  F01D         	goto	u3861
  7437  003AE8  EF78  F01D         	goto	u3860
  7438  003AEC                     u3861:
  7439  003AEC  EF6D  F01D         	goto	l3533
  7440  003AF0                     u3860:
  7441  003AF0                     l3537:
  7442  003AF0  90D8               	bcf	status,0,c
  7443  003AF2  3607               	rlcf	___awdiv@quotient^0,f,c
  7444  003AF4  3608               	rlcf	(___awdiv@quotient+1)^0,f,c
  7445  003AF6  5003               	movf	___awdiv@divisor^0,w,c
  7446  003AF8  5C01               	subwf	___awdiv@dividend^0,w,c
  7447  003AFA  5004               	movf	(___awdiv@divisor+1)^0,w,c
  7448  003AFC  5802               	subwfb	(___awdiv@dividend+1)^0,w,c
  7449  003AFE  A0D8               	btfss	status,0,c
  7450  003B00  EF84  F01D         	goto	u3871
  7451  003B04  EF86  F01D         	goto	u3870
  7452  003B08                     u3871:
  7453  003B08  EF8B  F01D         	goto	l3545
  7454  003B0C                     u3870:
  7455  003B0C  5003               	movf	___awdiv@divisor^0,w,c
  7456  003B0E  5E01               	subwf	___awdiv@dividend^0,f,c
  7457  003B10  5004               	movf	(___awdiv@divisor+1)^0,w,c
  7458  003B12  5A02               	subwfb	(___awdiv@dividend+1)^0,f,c
  7459  003B14  8007               	bsf	___awdiv@quotient^0,0,c
  7460  003B16                     l3545:
  7461  003B16  90D8               	bcf	status,0,c
  7462  003B18  3204               	rrcf	(___awdiv@divisor+1)^0,f,c
  7463  003B1A  3203               	rrcf	___awdiv@divisor^0,f,c
  7464  003B1C  2E05               	decfsz	___awdiv@counter^0,f,c
  7465  003B1E  EF78  F01D         	goto	l3537
  7466  003B22                     l3549:
  7467  003B22  5006               	movf	___awdiv@sign^0,w,c
  7468  003B24  B4D8               	btfsc	status,2,c
  7469  003B26  EF97  F01D         	goto	u3881
  7470  003B2A  EF99  F01D         	goto	u3880
  7471  003B2E                     u3881:
  7472  003B2E  EF9D  F01D         	goto	l3553
  7473  003B32                     u3880:
  7474  003B32  6C07               	negf	___awdiv@quotient^0,c
  7475  003B34  1E08               	comf	(___awdiv@quotient+1)^0,f,c
  7476  003B36  B0D8               	btfsc	status,0,c
  7477  003B38  2A08               	incf	(___awdiv@quotient+1)^0,f,c
  7478  003B3A                     l3553:
  7479  003B3A  C007  F001         	movff	___awdiv@quotient,?___awdiv
  7480  003B3E  C008  F002         	movff	___awdiv@quotient+1,?___awdiv+1
  7481  003B42  0012               	return		;funcret
  7482  003B44                     __end_of___awdiv:
  7483                           	callstack 0
  7484                           
  7485 ;; *************** function _dtoa *****************
  7486 ;; Defined at:
  7487 ;;		line 274 in file "C:\Program Files\Microchip\xc8\v2.20\pic\sources\c99\common\doprnt.c"
  7488 ;; Parameters:    Size  Location     Type
  7489 ;;  fp              2   27[COMRAM] PTR struct _IO_FILE
  7490 ;;		 -> sprintf@f(6), 
  7491 ;;  d               8   29[COMRAM] long long 
  7492 ;; Auto vars:     Size  Location     Type
  7493 ;;  n               8   53[COMRAM] long long 
  7494 ;;  i               2   61[COMRAM] int 
  7495 ;;  s               2   51[COMRAM] int 
  7496 ;;  w               2   49[COMRAM] int 
  7497 ;;  p               2   47[COMRAM] int 
  7498 ;; Return value:  Size  Location     Type
  7499 ;;                  2   27[COMRAM] int 
  7500 ;; Registers used:
  7501 ;;		wreg, fsr1l, fsr1h, fsr2l, fsr2h, status,2, status,0, cstack
  7502 ;; Tracked objects:
  7503 ;;		On entry : 0/0
  7504 ;;		On exit  : 0/0
  7505 ;;		Unchanged: 0/0
  7506 ;; Data sizes:     COMRAM   BANK0   BANK1   BANK2   BANK3   BANK4   BANK5   BANK6   BANK7
  7507 ;;      Params:        10       0       0       0       0       0       0       0       0
  7508 ;;      Locals:        18       0       0       0       0       0       0       0       0
  7509 ;;      Temps:          8       0       0       0       0       0       0       0       0
  7510 ;;      Totals:        36       0       0       0       0       0       0       0       0
  7511 ;;Total ram usage:       36 bytes
  7512 ;; Hardware stack levels used:    1
  7513 ;; Hardware stack levels required when called:    5
  7514 ;; This function calls:
  7515 ;;		___aodiv
  7516 ;;		___aomod
  7517 ;;		_abs
  7518 ;;		_pad
  7519 ;; This function is called by:
  7520 ;;		_vfpfcnvrt
  7521 ;; This function uses a non-reentrant model
  7522 ;;
  7523                           
  7524                           	psect	text21
  7525  0029EC                     __ptext21:
  7526                           	callstack 0
  7527  0029EC                     _dtoa:
  7528                           	callstack 22
  7529  0029EC                     
  7530                           ;C:\Program Files\Microchip\xc8\v2.20\pic\sources\c99\common\doprnt.c: 274: static int d
      +                          toa(FILE *fp, long long d);C:\Program Files\Microchip\xc8\v2.20\pic\sources\c99\common\d
      +                          oprnt.c: 275: {;C:\Program Files\Microchip\xc8\v2.20\pic\sources\c99\common\doprnt.c: 27
      +                          6:     int i, p, s, w;;C:\Program Files\Microchip\xc8\v2.20\pic\sources\c99\common\doprn
      +                          t.c: 277:     long long n;;C:\Program Files\Microchip\xc8\v2.20\pic\sources\c99\common\d
      +                          oprnt.c: 280:     n = d;
  7531  0029EC  C01E  F036         	movff	dtoa@d,dtoa@n
  7532  0029F0  C01F  F037         	movff	dtoa@d+1,dtoa@n+1
  7533  0029F4  C020  F038         	movff	dtoa@d+2,dtoa@n+2
  7534  0029F8  C021  F039         	movff	dtoa@d+3,dtoa@n+3
  7535  0029FC  C022  F03A         	movff	dtoa@d+4,dtoa@n+4
  7536  002A00  C023  F03B         	movff	dtoa@d+5,dtoa@n+5
  7537  002A04  C024  F03C         	movff	dtoa@d+6,dtoa@n+6
  7538  002A08  C025  F03D         	movff	dtoa@d+7,dtoa@n+7
  7539  002A0C                     
  7540                           ;C:\Program Files\Microchip\xc8\v2.20\pic\sources\c99\common\doprnt.c: 281:     s = n < 
      +                          0 ? 1 : 0;
  7541  002A0C  BE3D               	btfsc	(dtoa@n+7)^0,7,c
  7542  002A0E  EF0B  F015         	goto	u4421
  7543  002A12  EF0E  F015         	goto	u4420
  7544  002A16                     u4421:
  7545  002A16  0E01               	movlw	1
  7546  002A18  EF0F  F015         	goto	u4430
  7547  002A1C                     u4420:
  7548  002A1C  0E00               	movlw	0
  7549  002A1E                     u4430:
  7550  002A1E  6E34               	movwf	dtoa@s^0,c
  7551  002A20  6A35               	clrf	(dtoa@s+1)^0,c
  7552                           
  7553                           ;C:\Program Files\Microchip\xc8\v2.20\pic\sources\c99\common\doprnt.c: 282:     if (s) {
  7554  002A22  5034               	movf	dtoa@s^0,w,c
  7555  002A24  1035               	iorwf	(dtoa@s+1)^0,w,c
  7556  002A26  B4D8               	btfsc	status,2,c
  7557  002A28  EF18  F015         	goto	u4441
  7558  002A2C  EF1A  F015         	goto	u4440
  7559  002A30                     u4441:
  7560  002A30  EF2A  F015         	goto	l3801
  7561  002A34                     u4440:
  7562  002A34                     
  7563                           ;C:\Program Files\Microchip\xc8\v2.20\pic\sources\c99\common\doprnt.c: 283:         n = 
      +                          -n;
  7564  002A34  1E3D               	comf	(dtoa@n+7)^0,f,c
  7565  002A36  1E3C               	comf	(dtoa@n+6)^0,f,c
  7566  002A38  1E3B               	comf	(dtoa@n+5)^0,f,c
  7567  002A3A  1E3A               	comf	(dtoa@n+4)^0,f,c
  7568  002A3C  1E39               	comf	(dtoa@n+3)^0,f,c
  7569  002A3E  1E38               	comf	(dtoa@n+2)^0,f,c
  7570  002A40  1E37               	comf	(dtoa@n+1)^0,f,c
  7571  002A42  6C36               	negf	dtoa@n^0,c
  7572  002A44  0E00               	movlw	0
  7573  002A46  2237               	addwfc	(dtoa@n+1)^0,f,c
  7574  002A48  2238               	addwfc	(dtoa@n+2)^0,f,c
  7575  002A4A  2239               	addwfc	(dtoa@n+3)^0,f,c
  7576  002A4C  223A               	addwfc	(dtoa@n+4)^0,f,c
  7577  002A4E  223B               	addwfc	(dtoa@n+5)^0,f,c
  7578  002A50  223C               	addwfc	(dtoa@n+6)^0,f,c
  7579  002A52  223D               	addwfc	(dtoa@n+7)^0,f,c
  7580  002A54                     l3801:
  7581                           
  7582                           ;C:\Program Files\Microchip\xc8\v2.20\pic\sources\c99\common\doprnt.c: 287:     if (!(pr
      +                          ec < 0)) {
  7583  002A54  0100               	movlb	0	; () banked
  7584  002A56  BFFA               	btfsc	(_prec+1)& (0+255),7,b
  7585  002A58  EF30  F015         	goto	u4451
  7586  002A5C  EF32  F015         	goto	u4450
  7587  002A60                     u4451:
  7588  002A60  EF33  F015         	goto	l3805
  7589  002A64                     u4450:
  7590  002A64                     
  7591                           ; BSR set to: 0
  7592                           ;C:\Program Files\Microchip\xc8\v2.20\pic\sources\c99\common\doprnt.c: 288:         flag
      +                          s &= ~(1 << 1);
  7593  002A64  93FB               	bcf	_flags& (0+255),1,b
  7594  002A66                     l3805:
  7595                           
  7596                           ; BSR set to: 0
  7597                           ;C:\Program Files\Microchip\xc8\v2.20\pic\sources\c99\common\doprnt.c: 290:     p = (0 <
      +                           prec) ? prec : 1;
  7598  002A66  BFFA               	btfsc	(_prec+1)& (0+255),7,b
  7599  002A68  EF40  F015         	goto	u4460
  7600  002A6C  51FA               	movf	(_prec+1)& (0+255),w,b
  7601  002A6E  E106               	bnz	u4461
  7602  002A70  05F9               	decf	_prec& (0+255),w,b
  7603  002A72  B0D8               	btfsc	status,0,c
  7604  002A74  EF3E  F015         	goto	u4461
  7605  002A78  EF40  F015         	goto	u4460
  7606  002A7C                     u4461:
  7607  002A7C  EF46  F015         	goto	l863
  7608  002A80                     u4460:
  7609  002A80                     
  7610                           ; BSR set to: 0
  7611  002A80  0E00               	movlw	0
  7612  002A82  6E31               	movwf	(dtoa@p+1)^0,c
  7613  002A84  0E01               	movlw	1
  7614  002A86  6E30               	movwf	dtoa@p^0,c
  7615  002A88  EF4A  F015         	goto	l865
  7616  002A8C                     l863:
  7617                           
  7618                           ; BSR set to: 0
  7619  002A8C  C0F9  F030         	movff	_prec,dtoa@p
  7620  002A90  C0FA  F031         	movff	_prec+1,dtoa@p+1
  7621  002A94                     l865:
  7622                           
  7623                           ; BSR set to: 0
  7624                           ;C:\Program Files\Microchip\xc8\v2.20\pic\sources\c99\common\doprnt.c: 291:     w = widt
      +                          h;
  7625  002A94  C0F7  F032         	movff	_width,dtoa@w
  7626  002A98  C0F8  F033         	movff	_width+1,dtoa@w+1
  7627  002A9C                     
  7628                           ; BSR set to: 0
  7629                           ;C:\Program Files\Microchip\xc8\v2.20\pic\sources\c99\common\doprnt.c: 292:     if (s ||
      +                           (flags & (1 << 2))) {
  7630  002A9C  5034               	movf	dtoa@s^0,w,c
  7631  002A9E  1035               	iorwf	(dtoa@s+1)^0,w,c
  7632  002AA0  A4D8               	btfss	status,2,c
  7633  002AA2  EF55  F015         	goto	u4471
  7634  002AA6  EF57  F015         	goto	u4470
  7635  002AAA                     u4471:
  7636  002AAA  EF5E  F015         	goto	l3813
  7637  002AAE                     u4470:
  7638  002AAE                     
  7639                           ; BSR set to: 0
  7640  002AAE  A5FB               	btfss	_flags& (0+255),2,b
  7641  002AB0  EF5C  F015         	goto	u4481
  7642  002AB4  EF5E  F015         	goto	u4480
  7643  002AB8                     u4481:
  7644  002AB8  EF61  F015         	goto	l3815
  7645  002ABC                     u4480:
  7646  002ABC                     l3813:
  7647                           
  7648                           ; BSR set to: 0
  7649                           ;C:\Program Files\Microchip\xc8\v2.20\pic\sources\c99\common\doprnt.c: 293:         --w;
  7650  002ABC  0632               	decf	dtoa@w^0,f,c
  7651  002ABE  A0D8               	btfss	status,0,c
  7652  002AC0  0633               	decf	(dtoa@w+1)^0,f,c
  7653  002AC2                     l3815:
  7654                           
  7655                           ; BSR set to: 0
  7656                           ;C:\Program Files\Microchip\xc8\v2.20\pic\sources\c99\common\doprnt.c: 297:     i = size
      +                          of(dbuf) - 1;
  7657  002AC2  0E00               	movlw	0
  7658  002AC4  6E3F               	movwf	(dtoa@i+1)^0,c
  7659  002AC6  0E4F               	movlw	79
  7660  002AC8  6E3E               	movwf	dtoa@i^0,c
  7661  002ACA                     
  7662                           ; BSR set to: 0
  7663                           ;C:\Program Files\Microchip\xc8\v2.20\pic\sources\c99\common\doprnt.c: 298:     dbuf[i] 
      +                          = '\0';
  7664  002ACA  0E00               	movlw	0
  7665  002ACC  0101               	movlb	1	; () banked
  7666  002ACE  6F59               	movwf	(_dbuf+79)& (0+255),b
  7667                           
  7668                           ;C:\Program Files\Microchip\xc8\v2.20\pic\sources\c99\common\doprnt.c: 299:     while (!
      +                          (i < 1) && (n || (0 < p) || ((0 < w) && (flags & (1 << 1))))) {
  7669  002AD0  EFE6  F015         	goto	l3829
  7670  002AD4                     l3819:
  7671                           
  7672                           ;C:\Program Files\Microchip\xc8\v2.20\pic\sources\c99\common\doprnt.c: 300:         --i;
  7673  002AD4  063E               	decf	dtoa@i^0,f,c
  7674  002AD6  A0D8               	btfss	status,0,c
  7675  002AD8  063F               	decf	(dtoa@i+1)^0,f,c
  7676  002ADA                     
  7677                           ;C:\Program Files\Microchip\xc8\v2.20\pic\sources\c99\common\doprnt.c: 301:         dbuf
      +                          [i] = '0' + abs(n % 10);
  7678  002ADA  0E0A               	movlw	low _dbuf
  7679  002ADC  243E               	addwf	dtoa@i^0,w,c
  7680  002ADE  6ED9               	movwf	fsr2l,c
  7681  002AE0  0E01               	movlw	high _dbuf
  7682  002AE2  203F               	addwfc	(dtoa@i+1)^0,w,c
  7683  002AE4  6EDA               	movwf	fsr2h,c
  7684  002AE6  C036  F001         	movff	dtoa@n,___aomod@dividend
  7685  002AEA  C037  F002         	movff	dtoa@n+1,___aomod@dividend+1
  7686  002AEE  C038  F003         	movff	dtoa@n+2,___aomod@dividend+2
  7687  002AF2  C039  F004         	movff	dtoa@n+3,___aomod@dividend+3
  7688  002AF6  C03A  F005         	movff	dtoa@n+4,___aomod@dividend+4
  7689  002AFA  C03B  F006         	movff	dtoa@n+5,___aomod@dividend+5
  7690  002AFE  C03C  F007         	movff	dtoa@n+6,___aomod@dividend+6
  7691  002B02  C03D  F008         	movff	dtoa@n+7,___aomod@dividend+7
  7692  002B06  0E0A               	movlw	10
  7693  002B08  6E09               	movwf	___aomod@divisor^0,c
  7694  002B0A  0E00               	movlw	0
  7695  002B0C  6E0A               	movwf	(___aomod@divisor+1)^0,c
  7696  002B0E  0E00               	movlw	0
  7697  002B10  6E0B               	movwf	(___aomod@divisor+2)^0,c
  7698  002B12  0E00               	movlw	0
  7699  002B14  6E0C               	movwf	(___aomod@divisor+3)^0,c
  7700  002B16  0E00               	movlw	0
  7701  002B18  6E0D               	movwf	(___aomod@divisor+4)^0,c
  7702  002B1A  0E00               	movlw	0
  7703  002B1C  6E0E               	movwf	(___aomod@divisor+5)^0,c
  7704  002B1E  0E00               	movlw	0
  7705  002B20  6E0F               	movwf	(___aomod@divisor+6)^0,c
  7706  002B22  0E00               	movlw	0
  7707  002B24  6E10               	movwf	(___aomod@divisor+7)^0,c
  7708  002B26  ECD7  F019         	call	___aomod	;wreg free
  7709  002B2A  C001  F026         	movff	?___aomod,??_dtoa
  7710  002B2E  C002  F027         	movff	?___aomod+1,??_dtoa+1
  7711  002B32  C003  F028         	movff	?___aomod+2,??_dtoa+2
  7712  002B36  C004  F029         	movff	?___aomod+3,??_dtoa+3
  7713  002B3A  C005  F02A         	movff	?___aomod+4,??_dtoa+4
  7714  002B3E  C006  F02B         	movff	?___aomod+5,??_dtoa+5
  7715  002B42  C007  F02C         	movff	?___aomod+6,??_dtoa+6
  7716  002B46  C008  F02D         	movff	?___aomod+7,??_dtoa+7
  7717  002B4A  C026  F013         	movff	??_dtoa,abs@a
  7718  002B4E  C028  F014         	movff	??_dtoa+2,abs@a+1
  7719  002B52  EC64  F020         	call	_abs	;wreg free
  7720  002B56  5013               	movf	?_abs^0,w,c
  7721  002B58  0F30               	addlw	48
  7722  002B5A  6EDF               	movwf	indf2,c
  7723  002B5C                     
  7724                           ;C:\Program Files\Microchip\xc8\v2.20\pic\sources\c99\common\doprnt.c: 302:         --p;
  7725  002B5C  0630               	decf	dtoa@p^0,f,c
  7726  002B5E  A0D8               	btfss	status,0,c
  7727  002B60  0631               	decf	(dtoa@p+1)^0,f,c
  7728  002B62                     
  7729                           ;C:\Program Files\Microchip\xc8\v2.20\pic\sources\c99\common\doprnt.c: 303:         --w;
  7730  002B62  0632               	decf	dtoa@w^0,f,c
  7731  002B64  A0D8               	btfss	status,0,c
  7732  002B66  0633               	decf	(dtoa@w+1)^0,f,c
  7733  002B68                     
  7734                           ;C:\Program Files\Microchip\xc8\v2.20\pic\sources\c99\common\doprnt.c: 304:         n = 
      +                          n / 10;
  7735  002B68  C036  F001         	movff	dtoa@n,___aodiv@dividend
  7736  002B6C  C037  F002         	movff	dtoa@n+1,___aodiv@dividend+1
  7737  002B70  C038  F003         	movff	dtoa@n+2,___aodiv@dividend+2
  7738  002B74  C039  F004         	movff	dtoa@n+3,___aodiv@dividend+3
  7739  002B78  C03A  F005         	movff	dtoa@n+4,___aodiv@dividend+4
  7740  002B7C  C03B  F006         	movff	dtoa@n+5,___aodiv@dividend+5
  7741  002B80  C03C  F007         	movff	dtoa@n+6,___aodiv@dividend+6
  7742  002B84  C03D  F008         	movff	dtoa@n+7,___aodiv@dividend+7
  7743  002B88  0E0A               	movlw	10
  7744  002B8A  6E09               	movwf	___aodiv@divisor^0,c
  7745  002B8C  0E00               	movlw	0
  7746  002B8E  6E0A               	movwf	(___aodiv@divisor+1)^0,c
  7747  002B90  0E00               	movlw	0
  7748  002B92  6E0B               	movwf	(___aodiv@divisor+2)^0,c
  7749  002B94  0E00               	movlw	0
  7750  002B96  6E0C               	movwf	(___aodiv@divisor+3)^0,c
  7751  002B98  0E00               	movlw	0
  7752  002B9A  6E0D               	movwf	(___aodiv@divisor+4)^0,c
  7753  002B9C  0E00               	movlw	0
  7754  002B9E  6E0E               	movwf	(___aodiv@divisor+5)^0,c
  7755  002BA0  0E00               	movlw	0
  7756  002BA2  6E0F               	movwf	(___aodiv@divisor+6)^0,c
  7757  002BA4  0E00               	movlw	0
  7758  002BA6  6E10               	movwf	(___aodiv@divisor+7)^0,c
  7759  002BA8  EC13  F019         	call	___aodiv	;wreg free
  7760  002BAC  C001  F036         	movff	?___aodiv,dtoa@n
  7761  002BB0  C002  F037         	movff	?___aodiv+1,dtoa@n+1
  7762  002BB4  C003  F038         	movff	?___aodiv+2,dtoa@n+2
  7763  002BB8  C004  F039         	movff	?___aodiv+3,dtoa@n+3
  7764  002BBC  C005  F03A         	movff	?___aodiv+4,dtoa@n+4
  7765  002BC0  C006  F03B         	movff	?___aodiv+5,dtoa@n+5
  7766  002BC4  C007  F03C         	movff	?___aodiv+6,dtoa@n+6
  7767  002BC8  C008  F03D         	movff	?___aodiv+7,dtoa@n+7
  7768  002BCC                     l3829:
  7769                           
  7770                           ;C:\Program Files\Microchip\xc8\v2.20\pic\sources\c99\common\doprnt.c: 299:     while (!
      +                          (i < 1) && (n || (0 < p) || ((0 < w) && (flags & (1 << 1))))) {
  7771  002BCC  BE3F               	btfsc	(dtoa@i+1)^0,7,c
  7772  002BCE  EFF1  F015         	goto	u4491
  7773  002BD2  503F               	movf	(dtoa@i+1)^0,w,c
  7774  002BD4  E108               	bnz	u4490
  7775  002BD6  043E               	decf	dtoa@i^0,w,c
  7776  002BD8  A0D8               	btfss	status,0,c
  7777  002BDA  EFF1  F015         	goto	u4491
  7778  002BDE  EFF3  F015         	goto	u4490
  7779  002BE2                     u4491:
  7780  002BE2  EF24  F016         	goto	l3839
  7781  002BE6                     u4490:
  7782  002BE6  5036               	movf	dtoa@n^0,w,c
  7783  002BE8  1037               	iorwf	(dtoa@n+1)^0,w,c
  7784  002BEA  1038               	iorwf	(dtoa@n+2)^0,w,c
  7785  002BEC  1039               	iorwf	(dtoa@n+3)^0,w,c
  7786  002BEE  103A               	iorwf	(dtoa@n+4)^0,w,c
  7787  002BF0  103B               	iorwf	(dtoa@n+5)^0,w,c
  7788  002BF2  103C               	iorwf	(dtoa@n+6)^0,w,c
  7789  002BF4  103D               	iorwf	(dtoa@n+7)^0,w,c
  7790  002BF6  A4D8               	btfss	status,2,c
  7791  002BF8  EF00  F016         	goto	u4501
  7792  002BFC  EF02  F016         	goto	u4500
  7793  002C00                     u4501:
  7794  002C00  EF6A  F015         	goto	l3819
  7795  002C04                     u4500:
  7796  002C04  BE31               	btfsc	(dtoa@p+1)^0,7,c
  7797  002C06  EF0F  F016         	goto	u4510
  7798  002C0A  5031               	movf	(dtoa@p+1)^0,w,c
  7799  002C0C  E106               	bnz	u4511
  7800  002C0E  0430               	decf	dtoa@p^0,w,c
  7801  002C10  B0D8               	btfsc	status,0,c
  7802  002C12  EF0D  F016         	goto	u4511
  7803  002C16  EF0F  F016         	goto	u4510
  7804  002C1A                     u4511:
  7805  002C1A  EF6A  F015         	goto	l3819
  7806  002C1E                     u4510:
  7807  002C1E  BE33               	btfsc	(dtoa@w+1)^0,7,c
  7808  002C20  EF1A  F016         	goto	u4521
  7809  002C24  5033               	movf	(dtoa@w+1)^0,w,c
  7810  002C26  E108               	bnz	u4520
  7811  002C28  0432               	decf	dtoa@w^0,w,c
  7812  002C2A  A0D8               	btfss	status,0,c
  7813  002C2C  EF1A  F016         	goto	u4521
  7814  002C30  EF1C  F016         	goto	u4520
  7815  002C34                     u4521:
  7816  002C34  EF24  F016         	goto	l3839
  7817  002C38                     u4520:
  7818  002C38  0100               	movlb	0	; () banked
  7819  002C3A  B3FB               	btfsc	_flags& (0+255),1,b
  7820  002C3C  EF22  F016         	goto	u4531
  7821  002C40  EF24  F016         	goto	u4530
  7822  002C44                     u4531:
  7823  002C44  EF6A  F015         	goto	l3819
  7824  002C48                     u4530:
  7825  002C48                     l3839:
  7826                           
  7827                           ;C:\Program Files\Microchip\xc8\v2.20\pic\sources\c99\common\doprnt.c: 308:     if (s ||
      +                           (flags & (1 << 2))) {
  7828  002C48  5034               	movf	dtoa@s^0,w,c
  7829  002C4A  1035               	iorwf	(dtoa@s+1)^0,w,c
  7830  002C4C  A4D8               	btfss	status,2,c
  7831  002C4E  EF2B  F016         	goto	u4541
  7832  002C52  EF2D  F016         	goto	u4540
  7833  002C56                     u4541:
  7834  002C56  EF35  F016         	goto	l3843
  7835  002C5A                     u4540:
  7836  002C5A  0100               	movlb	0	; () banked
  7837  002C5C  A5FB               	btfss	_flags& (0+255),2,b
  7838  002C5E  EF33  F016         	goto	u4551
  7839  002C62  EF35  F016         	goto	u4550
  7840  002C66                     u4551:
  7841  002C66  EF53  F016         	goto	l3853
  7842  002C6A                     u4550:
  7843  002C6A                     l3843:
  7844                           
  7845                           ;C:\Program Files\Microchip\xc8\v2.20\pic\sources\c99\common\doprnt.c: 309:         --i;
  7846  002C6A  063E               	decf	dtoa@i^0,f,c
  7847  002C6C  A0D8               	btfss	status,0,c
  7848  002C6E  063F               	decf	(dtoa@i+1)^0,f,c
  7849  002C70                     
  7850                           ;C:\Program Files\Microchip\xc8\v2.20\pic\sources\c99\common\doprnt.c: 310:         dbuf
      +                          [i] = s ? '-' : '+';
  7851  002C70  5034               	movf	dtoa@s^0,w,c
  7852  002C72  1035               	iorwf	(dtoa@s+1)^0,w,c
  7853  002C74  A4D8               	btfss	status,2,c
  7854  002C76  EF3F  F016         	goto	u4561
  7855  002C7A  EF41  F016         	goto	u4560
  7856  002C7E                     u4561:
  7857  002C7E  EF47  F016         	goto	l3849
  7858  002C82                     u4560:
  7859  002C82  0E00               	movlw	0
  7860  002C84  6E2F               	movwf	(_dtoa$977+1)^0,c
  7861  002C86  0E2B               	movlw	43
  7862  002C88  6E2E               	movwf	_dtoa$977^0,c
  7863  002C8A  EF4B  F016         	goto	l3851
  7864  002C8E                     l3849:
  7865  002C8E  0E00               	movlw	0
  7866  002C90  6E2F               	movwf	(_dtoa$977+1)^0,c
  7867  002C92  0E2D               	movlw	45
  7868  002C94  6E2E               	movwf	_dtoa$977^0,c
  7869  002C96                     l3851:
  7870  002C96  0E0A               	movlw	low _dbuf
  7871  002C98  243E               	addwf	dtoa@i^0,w,c
  7872  002C9A  6ED9               	movwf	fsr2l,c
  7873  002C9C  0E01               	movlw	high _dbuf
  7874  002C9E  203F               	addwfc	(dtoa@i+1)^0,w,c
  7875  002CA0  6EDA               	movwf	fsr2h,c
  7876  002CA2  C02E  FFDF         	movff	_dtoa$977,indf2
  7877  002CA6                     l3853:
  7878                           
  7879                           ;C:\Program Files\Microchip\xc8\v2.20\pic\sources\c99\common\doprnt.c: 314:     return p
      +                          ad(fp, &dbuf[i], w);
  7880  002CA6  C01C  F011         	movff	dtoa@fp,pad@fp
  7881  002CAA  C01D  F012         	movff	dtoa@fp+1,pad@fp+1
  7882  002CAE  0E0A               	movlw	low _dbuf
  7883  002CB0  243E               	addwf	dtoa@i^0,w,c
  7884  002CB2  6E13               	movwf	pad@buf^0,c
  7885  002CB4  0E01               	movlw	high _dbuf
  7886  002CB6  203F               	addwfc	(dtoa@i+1)^0,w,c
  7887  002CB8  6E14               	movwf	(pad@buf+1)^0,c
  7888  002CBA  C032  F015         	movff	dtoa@w,pad@p
  7889  002CBE  C033  F016         	movff	dtoa@w+1,pad@p+1
  7890  002CC2  ECDD  F01C         	call	_pad	;wreg free
  7891  002CC6  C011  F01C         	movff	?_pad,?_dtoa
  7892  002CCA  C012  F01D         	movff	?_pad+1,?_dtoa+1
  7893  002CCE  0012               	return		;funcret
  7894  002CD0                     __end_of_dtoa:
  7895                           	callstack 0
  7896                           
  7897 ;; *************** function _pad *****************
  7898 ;; Defined at:
  7899 ;;		line 72 in file "C:\Program Files\Microchip\xc8\v2.20\pic\sources\c99\common\doprnt.c"
  7900 ;; Parameters:    Size  Location     Type
  7901 ;;  fp              2   16[COMRAM] PTR struct _IO_FILE
  7902 ;;		 -> sprintf@f(6), 
  7903 ;;  buf             2   18[COMRAM] PTR unsigned char 
  7904 ;;		 -> dbuf(80), 
  7905 ;;  p               2   20[COMRAM] int 
  7906 ;; Auto vars:     Size  Location     Type
  7907 ;;  w               2   25[COMRAM] int 
  7908 ;;  i               2   23[COMRAM] int 
  7909 ;; Return value:  Size  Location     Type
  7910 ;;                  2   16[COMRAM] int 
  7911 ;; Registers used:
  7912 ;;		wreg, fsr1l, fsr1h, fsr2l, fsr2h, status,2, status,0, cstack
  7913 ;; Tracked objects:
  7914 ;;		On entry : 0/0
  7915 ;;		On exit  : 0/0
  7916 ;;		Unchanged: 0/0
  7917 ;; Data sizes:     COMRAM   BANK0   BANK1   BANK2   BANK3   BANK4   BANK5   BANK6   BANK7
  7918 ;;      Params:         6       0       0       0       0       0       0       0       0
  7919 ;;      Locals:         4       0       0       0       0       0       0       0       0
  7920 ;;      Temps:          1       0       0       0       0       0       0       0       0
  7921 ;;      Totals:        11       0       0       0       0       0       0       0       0
  7922 ;;Total ram usage:       11 bytes
  7923 ;; Hardware stack levels used:    1
  7924 ;; Hardware stack levels required when called:    4
  7925 ;; This function calls:
  7926 ;;		_fputc
  7927 ;;		_fputs
  7928 ;;		_strlen
  7929 ;; This function is called by:
  7930 ;;		_dtoa
  7931 ;;		_efgtoa
  7932 ;; This function uses a non-reentrant model
  7933 ;;
  7934                           
  7935                           	psect	text22
  7936  0039BA                     __ptext22:
  7937                           	callstack 0
  7938  0039BA                     _pad:
  7939                           	callstack 22
  7940  0039BA                     
  7941                           ;C:\Program Files\Microchip\xc8\v2.20\pic\sources\c99\common\doprnt.c: 72: static int pa
      +                          d(FILE *fp, char *buf, int p);C:\Program Files\Microchip\xc8\v2.20\pic\sources\c99\commo
      +                          n\doprnt.c: 73: {;C:\Program Files\Microchip\xc8\v2.20\pic\sources\c99\common\doprnt.c: 
      +                          74:     int i, w;;C:\Program Files\Microchip\xc8\v2.20\pic\sources\c99\common\doprnt.c: 
      +                          77:     if (flags & (1 << 0)) {
  7942  0039BA  0100               	movlb	0	; () banked
  7943  0039BC  A1FB               	btfss	_flags& (0+255),0,b
  7944  0039BE  EFE3  F01C         	goto	u4111
  7945  0039C2  EFE5  F01C         	goto	u4110
  7946  0039C6                     u4111:
  7947  0039C6  EFEF  F01C         	goto	l3687
  7948  0039CA                     u4110:
  7949  0039CA                     
  7950                           ; BSR set to: 0
  7951                           ;C:\Program Files\Microchip\xc8\v2.20\pic\sources\c99\common\doprnt.c: 78:         fputs
      +                          ((const char *)buf, fp);
  7952  0039CA  C013  F00A         	movff	pad@buf,fputs@s
  7953  0039CE  C014  F00B         	movff	pad@buf+1,fputs@s+1
  7954  0039D2  C011  F00C         	movff	pad@fp,fputs@fp
  7955  0039D6  C012  F00D         	movff	pad@fp+1,fputs@fp+1
  7956  0039DA  EC20  F020         	call	_fputs	;wreg free
  7957  0039DE                     l3687:
  7958                           
  7959                           ;C:\Program Files\Microchip\xc8\v2.20\pic\sources\c99\common\doprnt.c: 82:     w = (p < 
      +                          0) ? 0 : p;
  7960  0039DE  BE16               	btfsc	(pad@p+1)^0,7,c
  7961  0039E0  EFF4  F01C         	goto	u4121
  7962  0039E4  EFF6  F01C         	goto	u4120
  7963  0039E8                     u4121:
  7964  0039E8  EFFC  F01C         	goto	l3691
  7965  0039EC                     u4120:
  7966  0039EC  C015  F01A         	movff	pad@p,pad@w
  7967  0039F0  C016  F01B         	movff	pad@p+1,pad@w+1
  7968  0039F4  EF00  F01D         	goto	l852
  7969  0039F8                     l3691:
  7970  0039F8  0E00               	movlw	0
  7971  0039FA  6E1B               	movwf	(pad@w+1)^0,c
  7972  0039FC  0E00               	movlw	0
  7973  0039FE  6E1A               	movwf	pad@w^0,c
  7974  003A00                     l852:
  7975                           
  7976                           ;C:\Program Files\Microchip\xc8\v2.20\pic\sources\c99\common\doprnt.c: 83:     i = 0;
  7977  003A00  0E00               	movlw	0
  7978  003A02  6E19               	movwf	(pad@i+1)^0,c
  7979  003A04  0E00               	movlw	0
  7980  003A06  6E18               	movwf	pad@i^0,c
  7981                           
  7982                           ;C:\Program Files\Microchip\xc8\v2.20\pic\sources\c99\common\doprnt.c: 84:     while (i 
      +                          < w) {
  7983  003A08  EF12  F01D         	goto	l3697
  7984  003A0C                     l3693:
  7985                           
  7986                           ;C:\Program Files\Microchip\xc8\v2.20\pic\sources\c99\common\doprnt.c: 85:         fputc
      +                          (' ', fp);
  7987  003A0C  0E00               	movlw	0
  7988  003A0E  6E02               	movwf	(fputc@c+1)^0,c
  7989  003A10  0E20               	movlw	32
  7990  003A12  6E01               	movwf	fputc@c^0,c
  7991  003A14  C011  F003         	movff	pad@fp,fputc@fp
  7992  003A18  C012  F004         	movff	pad@fp+1,fputc@fp+1
  7993  003A1C  EC78  F01C         	call	_fputc	;wreg free
  7994  003A20                     
  7995                           ;C:\Program Files\Microchip\xc8\v2.20\pic\sources\c99\common\doprnt.c: 86:         ++i;
  7996  003A20  4A18               	infsnz	pad@i^0,f,c
  7997  003A22  2A19               	incf	(pad@i+1)^0,f,c
  7998  003A24                     l3697:
  7999                           
  8000                           ;C:\Program Files\Microchip\xc8\v2.20\pic\sources\c99\common\doprnt.c: 84:     while (i 
      +                          < w) {
  8001  003A24  501A               	movf	pad@w^0,w,c
  8002  003A26  5C18               	subwf	pad@i^0,w,c
  8003  003A28  5019               	movf	(pad@i+1)^0,w,c
  8004  003A2A  0A80               	xorlw	128
  8005  003A2C  6E17               	movwf	??_pad^0,c
  8006  003A2E  501B               	movf	(pad@w+1)^0,w,c
  8007  003A30  0A80               	xorlw	128
  8008  003A32  5817               	subwfb	??_pad^0,w,c
  8009  003A34  A0D8               	btfss	status,0,c
  8010  003A36  EF1F  F01D         	goto	u4131
  8011  003A3A  EF21  F01D         	goto	u4130
  8012  003A3E                     u4131:
  8013  003A3E  EF06  F01D         	goto	l3693
  8014  003A42                     u4130:
  8015  003A42                     
  8016                           ;C:\Program Files\Microchip\xc8\v2.20\pic\sources\c99\common\doprnt.c: 90:     if (!(fla
      +                          gs & (1 << 0))) {
  8017  003A42  0100               	movlb	0	; () banked
  8018  003A44  B1FB               	btfsc	_flags& (0+255),0,b
  8019  003A46  EF27  F01D         	goto	u4141
  8020  003A4A  EF29  F01D         	goto	u4140
  8021  003A4E                     u4141:
  8022  003A4E  EF33  F01D         	goto	l3701
  8023  003A52                     u4140:
  8024  003A52                     
  8025                           ; BSR set to: 0
  8026                           ;C:\Program Files\Microchip\xc8\v2.20\pic\sources\c99\common\doprnt.c: 91:         fputs
      +                          ((const char *)buf, fp);
  8027  003A52  C013  F00A         	movff	pad@buf,fputs@s
  8028  003A56  C014  F00B         	movff	pad@buf+1,fputs@s+1
  8029  003A5A  C011  F00C         	movff	pad@fp,fputs@fp
  8030  003A5E  C012  F00D         	movff	pad@fp+1,fputs@fp+1
  8031  003A62  EC20  F020         	call	_fputs	;wreg free
  8032  003A66                     l3701:
  8033                           
  8034                           ;C:\Program Files\Microchip\xc8\v2.20\pic\sources\c99\common\doprnt.c: 94:     return st
      +                          rlen(buf) + w;
  8035  003A66  C013  F001         	movff	pad@buf,strlen@s
  8036  003A6A  C014  F002         	movff	pad@buf+1,strlen@s+1
  8037  003A6E  ECF4  F020         	call	_strlen	;wreg free
  8038  003A72  501A               	movf	pad@w^0,w,c
  8039  003A74  2401               	addwf	?_strlen^0,w,c
  8040  003A76  6E11               	movwf	?_pad^0,c
  8041  003A78  501B               	movf	(pad@w+1)^0,w,c
  8042  003A7A  2002               	addwfc	(?_strlen+1)^0,w,c
  8043  003A7C  6E12               	movwf	(?_pad+1)^0,c
  8044  003A7E  0012               	return		;funcret
  8045  003A80                     __end_of_pad:
  8046                           	callstack 0
  8047                           
  8048 ;; *************** function _strlen *****************
  8049 ;; Defined at:
  8050 ;;		line 5 in file "C:\Program Files\Microchip\xc8\v2.20\pic\sources\c99\common\strlen.c"
  8051 ;; Parameters:    Size  Location     Type
  8052 ;;  s               2    0[COMRAM] PTR const unsigned char 
  8053 ;;		 -> dbuf(80), 
  8054 ;; Auto vars:     Size  Location     Type
  8055 ;;  a               2    2[COMRAM] PTR const unsigned char 
  8056 ;;		 -> dbuf(80), 
  8057 ;; Return value:  Size  Location     Type
  8058 ;;                  2    0[COMRAM] unsigned int 
  8059 ;; Registers used:
  8060 ;;		wreg, fsr2l, fsr2h, status,2, status,0
  8061 ;; Tracked objects:
  8062 ;;		On entry : 0/0
  8063 ;;		On exit  : 0/0
  8064 ;;		Unchanged: 0/0
  8065 ;; Data sizes:     COMRAM   BANK0   BANK1   BANK2   BANK3   BANK4   BANK5   BANK6   BANK7
  8066 ;;      Params:         2       0       0       0       0       0       0       0       0
  8067 ;;      Locals:         2       0       0       0       0       0       0       0       0
  8068 ;;      Temps:          0       0       0       0       0       0       0       0       0
  8069 ;;      Totals:         4       0       0       0       0       0       0       0       0
  8070 ;;Total ram usage:        4 bytes
  8071 ;; Hardware stack levels used:    1
  8072 ;; Hardware stack levels required when called:    1
  8073 ;; This function calls:
  8074 ;;		Nothing
  8075 ;; This function is called by:
  8076 ;;		_pad
  8077 ;; This function uses a non-reentrant model
  8078 ;;
  8079                           
  8080                           	psect	text23
  8081  0041E8                     __ptext23:
  8082                           	callstack 0
  8083  0041E8                     _strlen:
  8084                           	callstack 24
  8085  0041E8  C001  F003         	movff	strlen@s,strlen@a
  8086  0041EC  C002  F004         	movff	strlen@s+1,strlen@a+1
  8087  0041F0  EFFC  F020         	goto	l3143
  8088  0041F4                     l3141:
  8089  0041F4  4A01               	infsnz	strlen@s^0,f,c
  8090  0041F6  2A02               	incf	(strlen@s+1)^0,f,c
  8091  0041F8                     l3143:
  8092  0041F8  C001  FFD9         	movff	strlen@s,fsr2l
  8093  0041FC  C002  FFDA         	movff	strlen@s+1,fsr2h
  8094  004200  50DF               	movf	indf2,w,c
  8095  004202  A4D8               	btfss	status,2,c
  8096  004204  EF06  F021         	goto	u3251
  8097  004208  EF08  F021         	goto	u3250
  8098  00420C                     u3251:
  8099  00420C  EFFA  F020         	goto	l3141
  8100  004210                     u3250:
  8101  004210  5003               	movf	strlen@a^0,w,c
  8102  004212  5C01               	subwf	strlen@s^0,w,c
  8103  004214  6E01               	movwf	?_strlen^0,c
  8104  004216  5004               	movf	(strlen@a+1)^0,w,c
  8105  004218  5802               	subwfb	(strlen@s+1)^0,w,c
  8106  00421A  6E02               	movwf	(?_strlen+1)^0,c
  8107  00421C  0012               	return		;funcret
  8108  00421E                     __end_of_strlen:
  8109                           	callstack 0
  8110                           
  8111 ;; *************** function _fputs *****************
  8112 ;; Defined at:
  8113 ;;		line 8 in file "C:\Program Files\Microchip\xc8\v2.20\pic\sources\c99\common\nf_fputs.c"
  8114 ;; Parameters:    Size  Location     Type
  8115 ;;  s               2    9[COMRAM] PTR const unsigned char 
  8116 ;;		 -> dbuf(80), 
  8117 ;;  fp              2   11[COMRAM] PTR struct _IO_FILE
  8118 ;;		 -> sprintf@f(6), 
  8119 ;; Auto vars:     Size  Location     Type
  8120 ;;  i               2   14[COMRAM] int 
  8121 ;;  c               1   13[COMRAM] unsigned char 
  8122 ;; Return value:  Size  Location     Type
  8123 ;;                  2    9[COMRAM] int 
  8124 ;; Registers used:
  8125 ;;		wreg, fsr1l, fsr1h, fsr2l, fsr2h, status,2, status,0, cstack
  8126 ;; Tracked objects:
  8127 ;;		On entry : 0/0
  8128 ;;		On exit  : 0/0
  8129 ;;		Unchanged: 0/0
  8130 ;; Data sizes:     COMRAM   BANK0   BANK1   BANK2   BANK3   BANK4   BANK5   BANK6   BANK7
  8131 ;;      Params:         4       0       0       0       0       0       0       0       0
  8132 ;;      Locals:         3       0       0       0       0       0       0       0       0
  8133 ;;      Temps:          0       0       0       0       0       0       0       0       0
  8134 ;;      Totals:         7       0       0       0       0       0       0       0       0
  8135 ;;Total ram usage:        7 bytes
  8136 ;; Hardware stack levels used:    1
  8137 ;; Hardware stack levels required when called:    3
  8138 ;; This function calls:
  8139 ;;		_fputc
  8140 ;; This function is called by:
  8141 ;;		_pad
  8142 ;; This function uses a non-reentrant model
  8143 ;;
  8144                           
  8145                           	psect	text24
  8146  004040                     __ptext24:
  8147                           	callstack 0
  8148  004040                     _fputs:
  8149                           	callstack 22
  8150  004040  0E00               	movlw	0
  8151  004042  6E10               	movwf	(fputs@i+1)^0,c
  8152  004044  0E00               	movlw	0
  8153  004046  6E0F               	movwf	fputs@i^0,c
  8154  004048  EF31  F020         	goto	l3137
  8155  00404C                     l3133:
  8156  00404C  C00E  F001         	movff	fputs@c,fputc@c
  8157  004050  6A02               	clrf	(fputc@c+1)^0,c
  8158  004052  C00C  F003         	movff	fputs@fp,fputc@fp
  8159  004056  C00D  F004         	movff	fputs@fp+1,fputc@fp+1
  8160  00405A  EC78  F01C         	call	_fputc	;wreg free
  8161  00405E  4A0F               	infsnz	fputs@i^0,f,c
  8162  004060  2A10               	incf	(fputs@i+1)^0,f,c
  8163  004062                     l3137:
  8164  004062  500F               	movf	fputs@i^0,w,c
  8165  004064  240A               	addwf	fputs@s^0,w,c
  8166  004066  6ED9               	movwf	fsr2l,c
  8167  004068  5010               	movf	(fputs@i+1)^0,w,c
  8168  00406A  200B               	addwfc	(fputs@s+1)^0,w,c
  8169  00406C  6EDA               	movwf	fsr2h,c
  8170  00406E  50DF               	movf	indf2,w,c
  8171  004070  6E0E               	movwf	fputs@c^0,c
  8172  004072  500E               	movf	fputs@c^0,w,c
  8173  004074  A4D8               	btfss	status,2,c
  8174  004076  EF3F  F020         	goto	u3241
  8175  00407A  EF41  F020         	goto	u3240
  8176  00407E                     u3241:
  8177  00407E  EF26  F020         	goto	l3133
  8178  004082                     u3240:
  8179  004082  0012               	return		;funcret
  8180  004084                     __end_of_fputs:
  8181                           	callstack 0
  8182                           
  8183 ;; *************** function _fputc *****************
  8184 ;; Defined at:
  8185 ;;		line 8 in file "C:\Program Files\Microchip\xc8\v2.20\pic\sources\c99\common\nf_fputc.c"
  8186 ;; Parameters:    Size  Location     Type
  8187 ;;  c               2    0[COMRAM] int 
  8188 ;;  fp              2    2[COMRAM] PTR struct _IO_FILE
  8189 ;;		 -> sprintf@f(6), 
  8190 ;; Auto vars:     Size  Location     Type
  8191 ;;		None
  8192 ;; Return value:  Size  Location     Type
  8193 ;;                  2    0[COMRAM] int 
  8194 ;; Registers used:
  8195 ;;		wreg, fsr1l, fsr1h, fsr2l, fsr2h, status,2, status,0, cstack
  8196 ;; Tracked objects:
  8197 ;;		On entry : 0/0
  8198 ;;		On exit  : 0/0
  8199 ;;		Unchanged: 0/0
  8200 ;; Data sizes:     COMRAM   BANK0   BANK1   BANK2   BANK3   BANK4   BANK5   BANK6   BANK7
  8201 ;;      Params:         4       0       0       0       0       0       0       0       0
  8202 ;;      Locals:         0       0       0       0       0       0       0       0       0
  8203 ;;      Temps:          5       0       0       0       0       0       0       0       0
  8204 ;;      Totals:         9       0       0       0       0       0       0       0       0
  8205 ;;Total ram usage:        9 bytes
  8206 ;; Hardware stack levels used:    1
  8207 ;; Hardware stack levels required when called:    2
  8208 ;; This function calls:
  8209 ;;		_putch
  8210 ;; This function is called by:
  8211 ;;		_pad
  8212 ;;		_vfpfcnvrt
  8213 ;;		_fputs
  8214 ;; This function uses a non-reentrant model
  8215 ;;
  8216                           
  8217                           	psect	text25
  8218  0038F0                     __ptext25:
  8219                           	callstack 0
  8220  0038F0                     _fputc:
  8221                           	callstack 25
  8222  0038F0  5003               	movf	fputc@fp^0,w,c
  8223  0038F2  1004               	iorwf	(fputc@fp+1)^0,w,c
  8224  0038F4  B4D8               	btfsc	status,2,c
  8225  0038F6  EF7F  F01C         	goto	u2811
  8226  0038FA  EF81  F01C         	goto	u2810
  8227  0038FE                     u2811:
  8228  0038FE  EF8A  F01C         	goto	l2919
  8229  003902                     u2810:
  8230  003902  5003               	movf	fputc@fp^0,w,c
  8231  003904  1004               	iorwf	(fputc@fp+1)^0,w,c
  8232  003906  A4D8               	btfss	status,2,c
  8233  003908  EF88  F01C         	goto	u2821
  8234  00390C  EF8A  F01C         	goto	u2820
  8235  003910                     u2821:
  8236  003910  EF8F  F01C         	goto	l2921
  8237  003914                     u2820:
  8238  003914                     l2919:
  8239  003914  5001               	movf	fputc@c^0,w,c
  8240  003916  EC82  F021         	call	_putch
  8241  00391A  EFDC  F01C         	goto	l1112
  8242  00391E                     l2921:
  8243  00391E  EE20 F004          	lfsr	2,4
  8244  003922  5003               	movf	fputc@fp^0,w,c
  8245  003924  26D9               	addwf	fsr2l,f,c
  8246  003926  5004               	movf	(fputc@fp+1)^0,w,c
  8247  003928  22DA               	addwfc	fsr2h,f,c
  8248  00392A  50DE               	movf	postinc2,w,c
  8249  00392C  10DE               	iorwf	postinc2,w,c
  8250  00392E  B4D8               	btfsc	status,2,c
  8251  003930  EF9C  F01C         	goto	u2831
  8252  003934  EF9E  F01C         	goto	u2830
  8253  003938                     u2831:
  8254  003938  EFB9  F01C         	goto	l2925
  8255  00393C                     u2830:
  8256  00393C  EE20 F004          	lfsr	2,4
  8257  003940  5003               	movf	fputc@fp^0,w,c
  8258  003942  26D9               	addwf	fsr2l,f,c
  8259  003944  5004               	movf	(fputc@fp+1)^0,w,c
  8260  003946  22DA               	addwfc	fsr2h,f,c
  8261  003948  EE10 F002          	lfsr	1,2
  8262  00394C  5003               	movf	fputc@fp^0,w,c
  8263  00394E  26E1               	addwf	fsr1l,f,c
  8264  003950  5004               	movf	(fputc@fp+1)^0,w,c
  8265  003952  22E2               	addwfc	fsr1h,f,c
  8266  003954  50DE               	movf	postinc2,w,c
  8267  003956  5CE6               	subwf	postinc1,w,c
  8268  003958  50E6               	movf	postinc1,w,c
  8269  00395A  0A80               	xorlw	128
  8270  00395C  6E09               	movwf	(??_fputc+4)^0,c
  8271  00395E  50DE               	movf	postinc2,w,c
  8272  003960  0A80               	xorlw	128
  8273  003962  5809               	subwfb	(??_fputc+4)^0,w,c
  8274  003964  B0D8               	btfsc	status,0,c
  8275  003966  EFB7  F01C         	goto	u2841
  8276  00396A  EFB9  F01C         	goto	u2840
  8277  00396E                     u2841:
  8278  00396E  EFDC  F01C         	goto	l1112
  8279  003972                     u2840:
  8280  003972                     l2925:
  8281  003972  EE20 F002          	lfsr	2,2
  8282  003976  5003               	movf	fputc@fp^0,w,c
  8283  003978  26D9               	addwf	fsr2l,f,c
  8284  00397A  5004               	movf	(fputc@fp+1)^0,w,c
  8285  00397C  22DA               	addwfc	fsr2h,f,c
  8286  00397E  CFDE F005          	movff	postinc2,??_fputc
  8287  003982  CFDD F006          	movff	postdec2,??_fputc+1
  8288  003986  C003  FFD9         	movff	fputc@fp,fsr2l
  8289  00398A  C004  FFDA         	movff	fputc@fp+1,fsr2h
  8290  00398E  CFDE F007          	movff	postinc2,??_fputc+2
  8291  003992  CFDD F008          	movff	postdec2,??_fputc+3
  8292  003996  5005               	movf	??_fputc^0,w,c
  8293  003998  2407               	addwf	(??_fputc+2)^0,w,c
  8294  00399A  6ED9               	movwf	fsr2l,c
  8295  00399C  5006               	movf	(??_fputc+1)^0,w,c
  8296  00399E  2008               	addwfc	(??_fputc+3)^0,w,c
  8297  0039A0  6EDA               	movwf	fsr2h,c
  8298  0039A2  C001  FFDF         	movff	fputc@c,indf2
  8299  0039A6  EE20 F002          	lfsr	2,2
  8300  0039AA  5003               	movf	fputc@fp^0,w,c
  8301  0039AC  26D9               	addwf	fsr2l,f,c
  8302  0039AE  5004               	movf	(fputc@fp+1)^0,w,c
  8303  0039B0  22DA               	addwfc	fsr2h,f,c
  8304  0039B2  2ADE               	incf	postinc2,f,c
  8305  0039B4  0E00               	movlw	0
  8306  0039B6  22DD               	addwfc	postdec2,f,c
  8307  0039B8                     l1112:
  8308  0039B8  0012               	return		;funcret
  8309  0039BA                     __end_of_fputc:
  8310                           	callstack 0
  8311                           
  8312 ;; *************** function _putch *****************
  8313 ;; Defined at:
  8314 ;;		line 7 in file "C:\Program Files\Microchip\xc8\v2.20\pic\sources\c99\common\putch.c"
  8315 ;; Parameters:    Size  Location     Type
  8316 ;;  c               1    wreg     unsigned char 
  8317 ;; Auto vars:     Size  Location     Type
  8318 ;;  c               1    0[COMRAM] unsigned char 
  8319 ;; Return value:  Size  Location     Type
  8320 ;;                  1    wreg      void 
  8321 ;; Registers used:
  8322 ;;		wreg
  8323 ;; Tracked objects:
  8324 ;;		On entry : 0/0
  8325 ;;		On exit  : 0/0
  8326 ;;		Unchanged: 0/0
  8327 ;; Data sizes:     COMRAM   BANK0   BANK1   BANK2   BANK3   BANK4   BANK5   BANK6   BANK7
  8328 ;;      Params:         0       0       0       0       0       0       0       0       0
  8329 ;;      Locals:         0       0       0       0       0       0       0       0       0
  8330 ;;      Temps:          0       0       0       0       0       0       0       0       0
  8331 ;;      Totals:         0       0       0       0       0       0       0       0       0
  8332 ;;Total ram usage:        0 bytes
  8333 ;; Hardware stack levels used:    1
  8334 ;; Hardware stack levels required when called:    1
  8335 ;; This function calls:
  8336 ;;		Nothing
  8337 ;; This function is called by:
  8338 ;;		_fputc
  8339 ;; This function uses a non-reentrant model
  8340 ;;
  8341                           
  8342                           	psect	text26
  8343  004304                     __ptext26:
  8344                           	callstack 0
  8345  004304                     _putch:
  8346                           	callstack 25
  8347  004304  0012               	return		;funcret
  8348  004306                     __end_of_putch:
  8349                           	callstack 0
  8350                           
  8351 ;; *************** function _abs *****************
  8352 ;; Defined at:
  8353 ;;		line 1 in file "C:\Program Files\Microchip\xc8\v2.20\pic\sources\c99\common\abs.c"
  8354 ;; Parameters:    Size  Location     Type
  8355 ;;  a               2   18[COMRAM] int 
  8356 ;; Auto vars:     Size  Location     Type
  8357 ;;		None
  8358 ;; Return value:  Size  Location     Type
  8359 ;;                  2   18[COMRAM] int 
  8360 ;; Registers used:
  8361 ;;		wreg, status,2, status,0
  8362 ;; Tracked objects:
  8363 ;;		On entry : 0/0
  8364 ;;		On exit  : 0/0
  8365 ;;		Unchanged: 0/0
  8366 ;; Data sizes:     COMRAM   BANK0   BANK1   BANK2   BANK3   BANK4   BANK5   BANK6   BANK7
  8367 ;;      Params:         2       0       0       0       0       0       0       0       0
  8368 ;;      Locals:         0       0       0       0       0       0       0       0       0
  8369 ;;      Temps:          2       0       0       0       0       0       0       0       0
  8370 ;;      Totals:         4       0       0       0       0       0       0       0       0
  8371 ;;Total ram usage:        4 bytes
  8372 ;; Hardware stack levels used:    1
  8373 ;; Hardware stack levels required when called:    1
  8374 ;; This function calls:
  8375 ;;		Nothing
  8376 ;; This function is called by:
  8377 ;;		_dtoa
  8378 ;; This function uses a non-reentrant model
  8379 ;;
  8380                           
  8381                           	psect	text27
  8382  0040C8                     __ptext27:
  8383                           	callstack 0
  8384  0040C8                     _abs:
  8385                           	callstack 25
  8386  0040C8  BE14               	btfsc	(abs@a+1)^0,7,c
  8387  0040CA  EF71  F020         	goto	u4150
  8388  0040CE  5014               	movf	(abs@a+1)^0,w,c
  8389  0040D0  E106               	bnz	u4151
  8390  0040D2  0413               	decf	abs@a^0,w,c
  8391  0040D4  B0D8               	btfsc	status,0,c
  8392  0040D6  EF6F  F020         	goto	u4151
  8393  0040DA  EF71  F020         	goto	u4150
  8394  0040DE                     u4151:
  8395  0040DE  EF7F  F020         	goto	l1033
  8396  0040E2                     u4150:
  8397  0040E2  C013  F015         	movff	abs@a,??_abs
  8398  0040E6  C014  F016         	movff	abs@a+1,??_abs+1
  8399  0040EA  1E15               	comf	??_abs^0,f,c
  8400  0040EC  1E16               	comf	(??_abs+1)^0,f,c
  8401  0040EE  4A15               	infsnz	??_abs^0,f,c
  8402  0040F0  2A16               	incf	(??_abs+1)^0,f,c
  8403  0040F2  C015  F013         	movff	??_abs,?_abs
  8404  0040F6  C016  F014         	movff	??_abs+1,?_abs+1
  8405  0040FA  EF83  F020         	goto	l1036
  8406  0040FE                     l1033:
  8407  0040FE  C013  F013         	movff	abs@a,?_abs
  8408  004102  C014  F014         	movff	abs@a+1,?_abs+1
  8409  004106                     l1036:
  8410  004106  0012               	return		;funcret
  8411  004108                     __end_of_abs:
  8412                           	callstack 0
  8413                           
  8414 ;; *************** function ___aomod *****************
  8415 ;; Defined at:
  8416 ;;		line 9 in file "C:\Program Files\Microchip\xc8\v2.20\pic\sources\c99\common\aomod.c"
  8417 ;; Parameters:    Size  Location     Type
  8418 ;;  dividend        8    0[COMRAM] long long 
  8419 ;;  divisor         8    8[COMRAM] long long 
  8420 ;; Auto vars:     Size  Location     Type
  8421 ;;  sign            1   17[COMRAM] unsigned char 
  8422 ;;  counter         1   16[COMRAM] unsigned char 
  8423 ;; Return value:  Size  Location     Type
  8424 ;;                  8    0[COMRAM] long long 
  8425 ;; Registers used:
  8426 ;;		wreg, status,2, status,0
  8427 ;; Tracked objects:
  8428 ;;		On entry : 0/0
  8429 ;;		On exit  : 0/0
  8430 ;;		Unchanged: 0/0
  8431 ;; Data sizes:     COMRAM   BANK0   BANK1   BANK2   BANK3   BANK4   BANK5   BANK6   BANK7
  8432 ;;      Params:        16       0       0       0       0       0       0       0       0
  8433 ;;      Locals:         2       0       0       0       0       0       0       0       0
  8434 ;;      Temps:          0       0       0       0       0       0       0       0       0
  8435 ;;      Totals:        18       0       0       0       0       0       0       0       0
  8436 ;;Total ram usage:       18 bytes
  8437 ;; Hardware stack levels used:    1
  8438 ;; Hardware stack levels required when called:    1
  8439 ;; This function calls:
  8440 ;;		Nothing
  8441 ;; This function is called by:
  8442 ;;		_dtoa
  8443 ;; This function uses a non-reentrant model
  8444 ;;
  8445                           
  8446                           	psect	text28
  8447  0033AE                     __ptext28:
  8448                           	callstack 0
  8449  0033AE                     ___aomod:
  8450                           	callstack 25
  8451  0033AE  0E00               	movlw	0
  8452  0033B0  6E12               	movwf	___aomod@sign^0,c
  8453  0033B2  BE08               	btfsc	(___aomod@dividend+7)^0,7,c
  8454  0033B4  EFE0  F019         	goto	u3350
  8455  0033B8  EFDE  F019         	goto	u3351
  8456  0033BC                     u3351:
  8457  0033BC  EFF2  F019         	goto	l3211
  8458  0033C0                     u3350:
  8459  0033C0  1E08               	comf	(___aomod@dividend+7)^0,f,c
  8460  0033C2  1E07               	comf	(___aomod@dividend+6)^0,f,c
  8461  0033C4  1E06               	comf	(___aomod@dividend+5)^0,f,c
  8462  0033C6  1E05               	comf	(___aomod@dividend+4)^0,f,c
  8463  0033C8  1E04               	comf	(___aomod@dividend+3)^0,f,c
  8464  0033CA  1E03               	comf	(___aomod@dividend+2)^0,f,c
  8465  0033CC  1E02               	comf	(___aomod@dividend+1)^0,f,c
  8466  0033CE  6C01               	negf	___aomod@dividend^0,c
  8467  0033D0  0E00               	movlw	0
  8468  0033D2  2202               	addwfc	(___aomod@dividend+1)^0,f,c
  8469  0033D4  2203               	addwfc	(___aomod@dividend+2)^0,f,c
  8470  0033D6  2204               	addwfc	(___aomod@dividend+3)^0,f,c
  8471  0033D8  2205               	addwfc	(___aomod@dividend+4)^0,f,c
  8472  0033DA  2206               	addwfc	(___aomod@dividend+5)^0,f,c
  8473  0033DC  2207               	addwfc	(___aomod@dividend+6)^0,f,c
  8474  0033DE  2208               	addwfc	(___aomod@dividend+7)^0,f,c
  8475  0033E0  0E01               	movlw	1
  8476  0033E2  6E12               	movwf	___aomod@sign^0,c
  8477  0033E4                     l3211:
  8478  0033E4  BE10               	btfsc	(___aomod@divisor+7)^0,7,c
  8479  0033E6  EFF9  F019         	goto	u3360
  8480  0033EA  EFF7  F019         	goto	u3361
  8481  0033EE                     u3361:
  8482  0033EE  EF09  F01A         	goto	l3215
  8483  0033F2                     u3360:
  8484  0033F2  1E10               	comf	(___aomod@divisor+7)^0,f,c
  8485  0033F4  1E0F               	comf	(___aomod@divisor+6)^0,f,c
  8486  0033F6  1E0E               	comf	(___aomod@divisor+5)^0,f,c
  8487  0033F8  1E0D               	comf	(___aomod@divisor+4)^0,f,c
  8488  0033FA  1E0C               	comf	(___aomod@divisor+3)^0,f,c
  8489  0033FC  1E0B               	comf	(___aomod@divisor+2)^0,f,c
  8490  0033FE  1E0A               	comf	(___aomod@divisor+1)^0,f,c
  8491  003400  6C09               	negf	___aomod@divisor^0,c
  8492  003402  0E00               	movlw	0
  8493  003404  220A               	addwfc	(___aomod@divisor+1)^0,f,c
  8494  003406  220B               	addwfc	(___aomod@divisor+2)^0,f,c
  8495  003408  220C               	addwfc	(___aomod@divisor+3)^0,f,c
  8496  00340A  220D               	addwfc	(___aomod@divisor+4)^0,f,c
  8497  00340C  220E               	addwfc	(___aomod@divisor+5)^0,f,c
  8498  00340E  220F               	addwfc	(___aomod@divisor+6)^0,f,c
  8499  003410  2210               	addwfc	(___aomod@divisor+7)^0,f,c
  8500  003412                     l3215:
  8501  003412  5009               	movf	___aomod@divisor^0,w,c
  8502  003414  100A               	iorwf	(___aomod@divisor+1)^0,w,c
  8503  003416  100B               	iorwf	(___aomod@divisor+2)^0,w,c
  8504  003418  100C               	iorwf	(___aomod@divisor+3)^0,w,c
  8505  00341A  100D               	iorwf	(___aomod@divisor+4)^0,w,c
  8506  00341C  100E               	iorwf	(___aomod@divisor+5)^0,w,c
  8507  00341E  100F               	iorwf	(___aomod@divisor+6)^0,w,c
  8508  003420  1010               	iorwf	(___aomod@divisor+7)^0,w,c
  8509  003422  B4D8               	btfsc	status,2,c
  8510  003424  EF16  F01A         	goto	u3371
  8511  003428  EF18  F01A         	goto	u3370
  8512  00342C                     u3371:
  8513  00342C  EF60  F01A         	goto	l3231
  8514  003430                     u3370:
  8515  003430  0E01               	movlw	1
  8516  003432  6E11               	movwf	___aomod@counter^0,c
  8517  003434  EF26  F01A         	goto	l3221
  8518  003438                     l3219:
  8519  003438  90D8               	bcf	status,0,c
  8520  00343A  3609               	rlcf	___aomod@divisor^0,f,c
  8521  00343C  360A               	rlcf	(___aomod@divisor+1)^0,f,c
  8522  00343E  360B               	rlcf	(___aomod@divisor+2)^0,f,c
  8523  003440  360C               	rlcf	(___aomod@divisor+3)^0,f,c
  8524  003442  360D               	rlcf	(___aomod@divisor+4)^0,f,c
  8525  003444  360E               	rlcf	(___aomod@divisor+5)^0,f,c
  8526  003446  360F               	rlcf	(___aomod@divisor+6)^0,f,c
  8527  003448  3610               	rlcf	(___aomod@divisor+7)^0,f,c
  8528  00344A  2A11               	incf	___aomod@counter^0,f,c
  8529  00344C                     l3221:
  8530  00344C  AE10               	btfss	(___aomod@divisor+7)^0,7,c
  8531  00344E  EF2B  F01A         	goto	u3381
  8532  003452  EF2D  F01A         	goto	u3380
  8533  003456                     u3381:
  8534  003456  EF1C  F01A         	goto	l3219
  8535  00345A                     u3380:
  8536  00345A                     l3223:
  8537  00345A  5009               	movf	___aomod@divisor^0,w,c
  8538  00345C  5C01               	subwf	___aomod@dividend^0,w,c
  8539  00345E  500A               	movf	(___aomod@divisor+1)^0,w,c
  8540  003460  5802               	subwfb	(___aomod@dividend+1)^0,w,c
  8541  003462  500B               	movf	(___aomod@divisor+2)^0,w,c
  8542  003464  5803               	subwfb	(___aomod@dividend+2)^0,w,c
  8543  003466  500C               	movf	(___aomod@divisor+3)^0,w,c
  8544  003468  5804               	subwfb	(___aomod@dividend+3)^0,w,c
  8545  00346A  500D               	movf	(___aomod@divisor+4)^0,w,c
  8546  00346C  5805               	subwfb	(___aomod@dividend+4)^0,w,c
  8547  00346E  500E               	movf	(___aomod@divisor+5)^0,w,c
  8548  003470  5806               	subwfb	(___aomod@dividend+5)^0,w,c
  8549  003472  500F               	movf	(___aomod@divisor+6)^0,w,c
  8550  003474  5807               	subwfb	(___aomod@dividend+6)^0,w,c
  8551  003476  5010               	movf	(___aomod@divisor+7)^0,w,c
  8552  003478  5808               	subwfb	(___aomod@dividend+7)^0,w,c
  8553  00347A  A0D8               	btfss	status,0,c
  8554  00347C  EF42  F01A         	goto	u3391
  8555  003480  EF44  F01A         	goto	u3390
  8556  003484                     u3391:
  8557  003484  EF54  F01A         	goto	l3227
  8558  003488                     u3390:
  8559  003488  5009               	movf	___aomod@divisor^0,w,c
  8560  00348A  5E01               	subwf	___aomod@dividend^0,f,c
  8561  00348C  500A               	movf	(___aomod@divisor+1)^0,w,c
  8562  00348E  5A02               	subwfb	(___aomod@dividend+1)^0,f,c
  8563  003490  500B               	movf	(___aomod@divisor+2)^0,w,c
  8564  003492  5A03               	subwfb	(___aomod@dividend+2)^0,f,c
  8565  003494  500C               	movf	(___aomod@divisor+3)^0,w,c
  8566  003496  5A04               	subwfb	(___aomod@dividend+3)^0,f,c
  8567  003498  500D               	movf	(___aomod@divisor+4)^0,w,c
  8568  00349A  5A05               	subwfb	(___aomod@dividend+4)^0,f,c
  8569  00349C  500E               	movf	(___aomod@divisor+5)^0,w,c
  8570  00349E  5A06               	subwfb	(___aomod@dividend+5)^0,f,c
  8571  0034A0  500F               	movf	(___aomod@divisor+6)^0,w,c
  8572  0034A2  5A07               	subwfb	(___aomod@dividend+6)^0,f,c
  8573  0034A4  5010               	movf	(___aomod@divisor+7)^0,w,c
  8574  0034A6  5A08               	subwfb	(___aomod@dividend+7)^0,f,c
  8575  0034A8                     l3227:
  8576  0034A8  90D8               	bcf	status,0,c
  8577  0034AA  3210               	rrcf	(___aomod@divisor+7)^0,f,c
  8578  0034AC  320F               	rrcf	(___aomod@divisor+6)^0,f,c
  8579  0034AE  320E               	rrcf	(___aomod@divisor+5)^0,f,c
  8580  0034B0  320D               	rrcf	(___aomod@divisor+4)^0,f,c
  8581  0034B2  320C               	rrcf	(___aomod@divisor+3)^0,f,c
  8582  0034B4  320B               	rrcf	(___aomod@divisor+2)^0,f,c
  8583  0034B6  320A               	rrcf	(___aomod@divisor+1)^0,f,c
  8584  0034B8  3209               	rrcf	___aomod@divisor^0,f,c
  8585  0034BA  2E11               	decfsz	___aomod@counter^0,f,c
  8586  0034BC  EF2D  F01A         	goto	l3223
  8587  0034C0                     l3231:
  8588  0034C0  5012               	movf	___aomod@sign^0,w,c
  8589  0034C2  B4D8               	btfsc	status,2,c
  8590  0034C4  EF66  F01A         	goto	u3401
  8591  0034C8  EF68  F01A         	goto	u3400
  8592  0034CC                     u3401:
  8593  0034CC  EF78  F01A         	goto	l3235
  8594  0034D0                     u3400:
  8595  0034D0  1E08               	comf	(___aomod@dividend+7)^0,f,c
  8596  0034D2  1E07               	comf	(___aomod@dividend+6)^0,f,c
  8597  0034D4  1E06               	comf	(___aomod@dividend+5)^0,f,c
  8598  0034D6  1E05               	comf	(___aomod@dividend+4)^0,f,c
  8599  0034D8  1E04               	comf	(___aomod@dividend+3)^0,f,c
  8600  0034DA  1E03               	comf	(___aomod@dividend+2)^0,f,c
  8601  0034DC  1E02               	comf	(___aomod@dividend+1)^0,f,c
  8602  0034DE  6C01               	negf	___aomod@dividend^0,c
  8603  0034E0  0E00               	movlw	0
  8604  0034E2  2202               	addwfc	(___aomod@dividend+1)^0,f,c
  8605  0034E4  2203               	addwfc	(___aomod@dividend+2)^0,f,c
  8606  0034E6  2204               	addwfc	(___aomod@dividend+3)^0,f,c
  8607  0034E8  2205               	addwfc	(___aomod@dividend+4)^0,f,c
  8608  0034EA  2206               	addwfc	(___aomod@dividend+5)^0,f,c
  8609  0034EC  2207               	addwfc	(___aomod@dividend+6)^0,f,c
  8610  0034EE  2208               	addwfc	(___aomod@dividend+7)^0,f,c
  8611  0034F0                     l3235:
  8612  0034F0  C001  F001         	movff	___aomod@dividend,?___aomod
  8613  0034F4  C002  F002         	movff	___aomod@dividend+1,?___aomod+1
  8614  0034F8  C003  F003         	movff	___aomod@dividend+2,?___aomod+2
  8615  0034FC  C004  F004         	movff	___aomod@dividend+3,?___aomod+3
  8616  003500  C005  F005         	movff	___aomod@dividend+4,?___aomod+4
  8617  003504  C006  F006         	movff	___aomod@dividend+5,?___aomod+5
  8618  003508  C007  F007         	movff	___aomod@dividend+6,?___aomod+6
  8619  00350C  C008  F008         	movff	___aomod@dividend+7,?___aomod+7
  8620  003510  0012               	return		;funcret
  8621  003512                     __end_of___aomod:
  8622                           	callstack 0
  8623                           
  8624 ;; *************** function ___aodiv *****************
  8625 ;; Defined at:
  8626 ;;		line 9 in file "C:\Program Files\Microchip\xc8\v2.20\pic\sources\c99\common\aodiv.c"
  8627 ;; Parameters:    Size  Location     Type
  8628 ;;  dividend        8    0[COMRAM] long long 
  8629 ;;  divisor         8    8[COMRAM] long long 
  8630 ;; Auto vars:     Size  Location     Type
  8631 ;;  quotient        8   18[COMRAM] long long 
  8632 ;;  sign            1   17[COMRAM] unsigned char 
  8633 ;;  counter         1   16[COMRAM] unsigned char 
  8634 ;; Return value:  Size  Location     Type
  8635 ;;                  8    0[COMRAM] long long 
  8636 ;; Registers used:
  8637 ;;		wreg, fsr2l, fsr2h, status,2, status,0
  8638 ;; Tracked objects:
  8639 ;;		On entry : 0/0
  8640 ;;		On exit  : 0/0
  8641 ;;		Unchanged: 0/0
  8642 ;; Data sizes:     COMRAM   BANK0   BANK1   BANK2   BANK3   BANK4   BANK5   BANK6   BANK7
  8643 ;;      Params:        16       0       0       0       0       0       0       0       0
  8644 ;;      Locals:        10       0       0       0       0       0       0       0       0
  8645 ;;      Temps:          0       0       0       0       0       0       0       0       0
  8646 ;;      Totals:        26       0       0       0       0       0       0       0       0
  8647 ;;Total ram usage:       26 bytes
  8648 ;; Hardware stack levels used:    1
  8649 ;; Hardware stack levels required when called:    1
  8650 ;; This function calls:
  8651 ;;		Nothing
  8652 ;; This function is called by:
  8653 ;;		_dtoa
  8654 ;; This function uses a non-reentrant model
  8655 ;;
  8656                           
  8657                           	psect	text29
  8658  003226                     __ptext29:
  8659                           	callstack 0
  8660  003226                     ___aodiv:
  8661                           	callstack 25
  8662  003226  0E00               	movlw	0
  8663  003228  6E12               	movwf	___aodiv@sign^0,c
  8664  00322A  BE10               	btfsc	(___aodiv@divisor+7)^0,7,c
  8665  00322C  EF1C  F019         	goto	u3280
  8666  003230  EF1A  F019         	goto	u3281
  8667  003234                     u3281:
  8668  003234  EF2E  F019         	goto	l3167
  8669  003238                     u3280:
  8670  003238  1E10               	comf	(___aodiv@divisor+7)^0,f,c
  8671  00323A  1E0F               	comf	(___aodiv@divisor+6)^0,f,c
  8672  00323C  1E0E               	comf	(___aodiv@divisor+5)^0,f,c
  8673  00323E  1E0D               	comf	(___aodiv@divisor+4)^0,f,c
  8674  003240  1E0C               	comf	(___aodiv@divisor+3)^0,f,c
  8675  003242  1E0B               	comf	(___aodiv@divisor+2)^0,f,c
  8676  003244  1E0A               	comf	(___aodiv@divisor+1)^0,f,c
  8677  003246  6C09               	negf	___aodiv@divisor^0,c
  8678  003248  0E00               	movlw	0
  8679  00324A  220A               	addwfc	(___aodiv@divisor+1)^0,f,c
  8680  00324C  220B               	addwfc	(___aodiv@divisor+2)^0,f,c
  8681  00324E  220C               	addwfc	(___aodiv@divisor+3)^0,f,c
  8682  003250  220D               	addwfc	(___aodiv@divisor+4)^0,f,c
  8683  003252  220E               	addwfc	(___aodiv@divisor+5)^0,f,c
  8684  003254  220F               	addwfc	(___aodiv@divisor+6)^0,f,c
  8685  003256  2210               	addwfc	(___aodiv@divisor+7)^0,f,c
  8686  003258  0E01               	movlw	1
  8687  00325A  6E12               	movwf	___aodiv@sign^0,c
  8688  00325C                     l3167:
  8689  00325C  BE08               	btfsc	(___aodiv@dividend+7)^0,7,c
  8690  00325E  EF35  F019         	goto	u3290
  8691  003262  EF33  F019         	goto	u3291
  8692  003266                     u3291:
  8693  003266  EF47  F019         	goto	l3173
  8694  00326A                     u3290:
  8695  00326A  1E08               	comf	(___aodiv@dividend+7)^0,f,c
  8696  00326C  1E07               	comf	(___aodiv@dividend+6)^0,f,c
  8697  00326E  1E06               	comf	(___aodiv@dividend+5)^0,f,c
  8698  003270  1E05               	comf	(___aodiv@dividend+4)^0,f,c
  8699  003272  1E04               	comf	(___aodiv@dividend+3)^0,f,c
  8700  003274  1E03               	comf	(___aodiv@dividend+2)^0,f,c
  8701  003276  1E02               	comf	(___aodiv@dividend+1)^0,f,c
  8702  003278  6C01               	negf	___aodiv@dividend^0,c
  8703  00327A  0E00               	movlw	0
  8704  00327C  2202               	addwfc	(___aodiv@dividend+1)^0,f,c
  8705  00327E  2203               	addwfc	(___aodiv@dividend+2)^0,f,c
  8706  003280  2204               	addwfc	(___aodiv@dividend+3)^0,f,c
  8707  003282  2205               	addwfc	(___aodiv@dividend+4)^0,f,c
  8708  003284  2206               	addwfc	(___aodiv@dividend+5)^0,f,c
  8709  003286  2207               	addwfc	(___aodiv@dividend+6)^0,f,c
  8710  003288  2208               	addwfc	(___aodiv@dividend+7)^0,f,c
  8711  00328A  0E01               	movlw	1
  8712  00328C  1A12               	xorwf	___aodiv@sign^0,f,c
  8713  00328E                     l3173:
  8714  00328E  EE20  F013         	lfsr	2,___aodiv@quotient
  8715  003292  0E07               	movlw	7
  8716  003294                     u3301:
  8717  003294  6ADE               	clrf	postinc2,c
  8718  003296  06E8               	decf	wreg,f,c
  8719  003298  E2FD               	bc	u3301
  8720  00329A  5009               	movf	___aodiv@divisor^0,w,c
  8721  00329C  100A               	iorwf	(___aodiv@divisor+1)^0,w,c
  8722  00329E  100B               	iorwf	(___aodiv@divisor+2)^0,w,c
  8723  0032A0  100C               	iorwf	(___aodiv@divisor+3)^0,w,c
  8724  0032A2  100D               	iorwf	(___aodiv@divisor+4)^0,w,c
  8725  0032A4  100E               	iorwf	(___aodiv@divisor+5)^0,w,c
  8726  0032A6  100F               	iorwf	(___aodiv@divisor+6)^0,w,c
  8727  0032A8  1010               	iorwf	(___aodiv@divisor+7)^0,w,c
  8728  0032AA  B4D8               	btfsc	status,2,c
  8729  0032AC  EF5A  F019         	goto	u3311
  8730  0032B0  EF5C  F019         	goto	u3310
  8731  0032B4                     u3311:
  8732  0032B4  EFAE  F019         	goto	l3195
  8733  0032B8                     u3310:
  8734  0032B8  0E01               	movlw	1
  8735  0032BA  6E11               	movwf	___aodiv@counter^0,c
  8736  0032BC  EF6A  F019         	goto	l3181
  8737  0032C0                     l3179:
  8738  0032C0  90D8               	bcf	status,0,c
  8739  0032C2  3609               	rlcf	___aodiv@divisor^0,f,c
  8740  0032C4  360A               	rlcf	(___aodiv@divisor+1)^0,f,c
  8741  0032C6  360B               	rlcf	(___aodiv@divisor+2)^0,f,c
  8742  0032C8  360C               	rlcf	(___aodiv@divisor+3)^0,f,c
  8743  0032CA  360D               	rlcf	(___aodiv@divisor+4)^0,f,c
  8744  0032CC  360E               	rlcf	(___aodiv@divisor+5)^0,f,c
  8745  0032CE  360F               	rlcf	(___aodiv@divisor+6)^0,f,c
  8746  0032D0  3610               	rlcf	(___aodiv@divisor+7)^0,f,c
  8747  0032D2  2A11               	incf	___aodiv@counter^0,f,c
  8748  0032D4                     l3181:
  8749  0032D4  AE10               	btfss	(___aodiv@divisor+7)^0,7,c
  8750  0032D6  EF6F  F019         	goto	u3321
  8751  0032DA  EF71  F019         	goto	u3320
  8752  0032DE                     u3321:
  8753  0032DE  EF60  F019         	goto	l3179
  8754  0032E2                     u3320:
  8755  0032E2                     l3183:
  8756  0032E2  90D8               	bcf	status,0,c
  8757  0032E4  3613               	rlcf	___aodiv@quotient^0,f,c
  8758  0032E6  3614               	rlcf	(___aodiv@quotient+1)^0,f,c
  8759  0032E8  3615               	rlcf	(___aodiv@quotient+2)^0,f,c
  8760  0032EA  3616               	rlcf	(___aodiv@quotient+3)^0,f,c
  8761  0032EC  3617               	rlcf	(___aodiv@quotient+4)^0,f,c
  8762  0032EE  3618               	rlcf	(___aodiv@quotient+5)^0,f,c
  8763  0032F0  3619               	rlcf	(___aodiv@quotient+6)^0,f,c
  8764  0032F2  361A               	rlcf	(___aodiv@quotient+7)^0,f,c
  8765  0032F4  5009               	movf	___aodiv@divisor^0,w,c
  8766  0032F6  5C01               	subwf	___aodiv@dividend^0,w,c
  8767  0032F8  500A               	movf	(___aodiv@divisor+1)^0,w,c
  8768  0032FA  5802               	subwfb	(___aodiv@dividend+1)^0,w,c
  8769  0032FC  500B               	movf	(___aodiv@divisor+2)^0,w,c
  8770  0032FE  5803               	subwfb	(___aodiv@dividend+2)^0,w,c
  8771  003300  500C               	movf	(___aodiv@divisor+3)^0,w,c
  8772  003302  5804               	subwfb	(___aodiv@dividend+3)^0,w,c
  8773  003304  500D               	movf	(___aodiv@divisor+4)^0,w,c
  8774  003306  5805               	subwfb	(___aodiv@dividend+4)^0,w,c
  8775  003308  500E               	movf	(___aodiv@divisor+5)^0,w,c
  8776  00330A  5806               	subwfb	(___aodiv@dividend+5)^0,w,c
  8777  00330C  500F               	movf	(___aodiv@divisor+6)^0,w,c
  8778  00330E  5807               	subwfb	(___aodiv@dividend+6)^0,w,c
  8779  003310  5010               	movf	(___aodiv@divisor+7)^0,w,c
  8780  003312  5808               	subwfb	(___aodiv@dividend+7)^0,w,c
  8781  003314  A0D8               	btfss	status,0,c
  8782  003316  EF8F  F019         	goto	u3331
  8783  00331A  EF91  F019         	goto	u3330
  8784  00331E                     u3331:
  8785  00331E  EFA2  F019         	goto	l3191
  8786  003322                     u3330:
  8787  003322  5009               	movf	___aodiv@divisor^0,w,c
  8788  003324  5E01               	subwf	___aodiv@dividend^0,f,c
  8789  003326  500A               	movf	(___aodiv@divisor+1)^0,w,c
  8790  003328  5A02               	subwfb	(___aodiv@dividend+1)^0,f,c
  8791  00332A  500B               	movf	(___aodiv@divisor+2)^0,w,c
  8792  00332C  5A03               	subwfb	(___aodiv@dividend+2)^0,f,c
  8793  00332E  500C               	movf	(___aodiv@divisor+3)^0,w,c
  8794  003330  5A04               	subwfb	(___aodiv@dividend+3)^0,f,c
  8795  003332  500D               	movf	(___aodiv@divisor+4)^0,w,c
  8796  003334  5A05               	subwfb	(___aodiv@dividend+4)^0,f,c
  8797  003336  500E               	movf	(___aodiv@divisor+5)^0,w,c
  8798  003338  5A06               	subwfb	(___aodiv@dividend+5)^0,f,c
  8799  00333A  500F               	movf	(___aodiv@divisor+6)^0,w,c
  8800  00333C  5A07               	subwfb	(___aodiv@dividend+6)^0,f,c
  8801  00333E  5010               	movf	(___aodiv@divisor+7)^0,w,c
  8802  003340  5A08               	subwfb	(___aodiv@dividend+7)^0,f,c
  8803  003342  8013               	bsf	___aodiv@quotient^0,0,c
  8804  003344                     l3191:
  8805  003344  90D8               	bcf	status,0,c
  8806  003346  3210               	rrcf	(___aodiv@divisor+7)^0,f,c
  8807  003348  320F               	rrcf	(___aodiv@divisor+6)^0,f,c
  8808  00334A  320E               	rrcf	(___aodiv@divisor+5)^0,f,c
  8809  00334C  320D               	rrcf	(___aodiv@divisor+4)^0,f,c
  8810  00334E  320C               	rrcf	(___aodiv@divisor+3)^0,f,c
  8811  003350  320B               	rrcf	(___aodiv@divisor+2)^0,f,c
  8812  003352  320A               	rrcf	(___aodiv@divisor+1)^0,f,c
  8813  003354  3209               	rrcf	___aodiv@divisor^0,f,c
  8814  003356  2E11               	decfsz	___aodiv@counter^0,f,c
  8815  003358  EF71  F019         	goto	l3183
  8816  00335C                     l3195:
  8817  00335C  5012               	movf	___aodiv@sign^0,w,c
  8818  00335E  B4D8               	btfsc	status,2,c
  8819  003360  EFB4  F019         	goto	u3341
  8820  003364  EFB6  F019         	goto	u3340
  8821  003368                     u3341:
  8822  003368  EFC6  F019         	goto	l3199
  8823  00336C                     u3340:
  8824  00336C  1E1A               	comf	(___aodiv@quotient+7)^0,f,c
  8825  00336E  1E19               	comf	(___aodiv@quotient+6)^0,f,c
  8826  003370  1E18               	comf	(___aodiv@quotient+5)^0,f,c
  8827  003372  1E17               	comf	(___aodiv@quotient+4)^0,f,c
  8828  003374  1E16               	comf	(___aodiv@quotient+3)^0,f,c
  8829  003376  1E15               	comf	(___aodiv@quotient+2)^0,f,c
  8830  003378  1E14               	comf	(___aodiv@quotient+1)^0,f,c
  8831  00337A  6C13               	negf	___aodiv@quotient^0,c
  8832  00337C  0E00               	movlw	0
  8833  00337E  2214               	addwfc	(___aodiv@quotient+1)^0,f,c
  8834  003380  2215               	addwfc	(___aodiv@quotient+2)^0,f,c
  8835  003382  2216               	addwfc	(___aodiv@quotient+3)^0,f,c
  8836  003384  2217               	addwfc	(___aodiv@quotient+4)^0,f,c
  8837  003386  2218               	addwfc	(___aodiv@quotient+5)^0,f,c
  8838  003388  2219               	addwfc	(___aodiv@quotient+6)^0,f,c
  8839  00338A  221A               	addwfc	(___aodiv@quotient+7)^0,f,c
  8840  00338C                     l3199:
  8841  00338C  C013  F001         	movff	___aodiv@quotient,?___aodiv
  8842  003390  C014  F002         	movff	___aodiv@quotient+1,?___aodiv+1
  8843  003394  C015  F003         	movff	___aodiv@quotient+2,?___aodiv+2
  8844  003398  C016  F004         	movff	___aodiv@quotient+3,?___aodiv+3
  8845  00339C  C017  F005         	movff	___aodiv@quotient+4,?___aodiv+4
  8846  0033A0  C018  F006         	movff	___aodiv@quotient+5,?___aodiv+5
  8847  0033A4  C019  F007         	movff	___aodiv@quotient+6,?___aodiv+6
  8848  0033A8  C01A  F008         	movff	___aodiv@quotient+7,?___aodiv+7
  8849  0033AC  0012               	return		;funcret
  8850  0033AE                     __end_of___aodiv:
  8851                           	callstack 0
  8852                           
  8853 ;; *************** function _atoi *****************
  8854 ;; Defined at:
  8855 ;;		line 4 in file "C:\Program Files\Microchip\xc8\v2.20\pic\sources\c99\common\atoi.c"
  8856 ;; Parameters:    Size  Location     Type
  8857 ;;  s               2    7[COMRAM] PTR const unsigned char 
  8858 ;;		 -> STR_7(6), STR_5(6), STR_3(6), 
  8859 ;; Auto vars:     Size  Location     Type
  8860 ;;  n               2   20[COMRAM] int 
  8861 ;;  neg             2   13[COMRAM] int 
  8862 ;; Return value:  Size  Location     Type
  8863 ;;                  2    7[COMRAM] int 
  8864 ;; Registers used:
  8865 ;;		wreg, status,2, status,0, tblptrl, tblptrh, tblptru, prodl, prodh, cstack
  8866 ;; Tracked objects:
  8867 ;;		On entry : 0/0
  8868 ;;		On exit  : 0/0
  8869 ;;		Unchanged: 0/0
  8870 ;; Data sizes:     COMRAM   BANK0   BANK1   BANK2   BANK3   BANK4   BANK5   BANK6   BANK7
  8871 ;;      Params:         2       0       0       0       0       0       0       0       0
  8872 ;;      Locals:         9       0       0       0       0       0       0       0       0
  8873 ;;      Temps:          4       0       0       0       0       0       0       0       0
  8874 ;;      Totals:        15       0       0       0       0       0       0       0       0
  8875 ;;Total ram usage:       15 bytes
  8876 ;; Hardware stack levels used:    1
  8877 ;; Hardware stack levels required when called:    2
  8878 ;; This function calls:
  8879 ;;		___wmul
  8880 ;;		_isdigit
  8881 ;;		_isspace
  8882 ;; This function is called by:
  8883 ;;		_vfpfcnvrt
  8884 ;; This function uses a non-reentrant model
  8885 ;;
  8886                           
  8887                           	psect	text30
  8888  003096                     __ptext30:
  8889                           	callstack 0
  8890  003096                     _atoi:
  8891                           	callstack 25
  8892  003096  0E00               	movlw	0
  8893  003098  6E16               	movwf	(atoi@n+1)^0,c
  8894  00309A  0E00               	movlw	0
  8895  00309C  6E15               	movwf	atoi@n^0,c
  8896  00309E  0E00               	movlw	0
  8897  0030A0  6E0F               	movwf	(atoi@neg+1)^0,c
  8898  0030A2  0E00               	movlw	0
  8899  0030A4  6E0E               	movwf	atoi@neg^0,c
  8900  0030A6  EF57  F018         	goto	l4159
  8901  0030AA                     l4157:
  8902  0030AA  4A08               	infsnz	atoi@s^0,f,c
  8903  0030AC  2A09               	incf	(atoi@s+1)^0,f,c
  8904  0030AE                     l4159:
  8905  0030AE  0E01               	movlw	1
  8906  0030B0  6E14               	movwf	_atoi$1069^0,c
  8907  0030B2  C008  FFF6         	movff	atoi@s,tblptrl
  8908  0030B6  C009  FFF7         	movff	atoi@s+1,tblptrh
  8909  0030BA                     	if	0	;tblptru may be non-zero
  8910  0030BA                     	endif
  8911  0030BA                     	if	0	;tblptru may be non-zero
  8912  0030BA                     	endif
  8913  0030BA  0008               	tblrd		*
  8914  0030BC  50F5               	movf	tablat,w,c
  8915  0030BE  0A20               	xorlw	32
  8916  0030C0  B4D8               	btfsc	status,2,c
  8917  0030C2  EF65  F018         	goto	u5091
  8918  0030C6  EF67  F018         	goto	u5090
  8919  0030CA                     u5091:
  8920  0030CA  EF84  F018         	goto	l4167
  8921  0030CE                     u5090:
  8922  0030CE  0EF7               	movlw	247
  8923  0030D0  6E0A               	movwf	??_atoi^0,c
  8924  0030D2  0EFF               	movlw	255
  8925  0030D4  6E0B               	movwf	(??_atoi+1)^0,c
  8926  0030D6  C008  FFF6         	movff	atoi@s,tblptrl
  8927  0030DA  C009  FFF7         	movff	atoi@s+1,tblptrh
  8928  0030DE                     	if	0	;tblptru may be non-zero
  8929  0030DE                     	endif
  8930  0030DE                     	if	0	;tblptru may be non-zero
  8931  0030DE                     	endif
  8932  0030DE  0008               	tblrd		*
  8933  0030E0  50F5               	movf	tablat,w,c
  8934  0030E2  6E0C               	movwf	(??_atoi+2)^0,c
  8935  0030E4  6A0D               	clrf	(??_atoi+3)^0,c
  8936  0030E6  500A               	movf	??_atoi^0,w,c
  8937  0030E8  260C               	addwf	(??_atoi+2)^0,f,c
  8938  0030EA  500B               	movf	(??_atoi+1)^0,w,c
  8939  0030EC  220D               	addwfc	(??_atoi+3)^0,f,c
  8940  0030EE  500D               	movf	(??_atoi+3)^0,w,c
  8941  0030F0  E109               	bnz	u5100
  8942  0030F2  0E05               	movlw	5
  8943  0030F4  5C0C               	subwf	(??_atoi+2)^0,w,c
  8944  0030F6  A0D8               	btfss	status,0,c
  8945  0030F8  EF80  F018         	goto	u5101
  8946  0030FC  EF82  F018         	goto	u5100
  8947  003100                     u5101:
  8948  003100  EF84  F018         	goto	l4167
  8949  003104                     u5100:
  8950  003104  0E00               	movlw	0
  8951  003106  6E14               	movwf	_atoi$1069^0,c
  8952  003108                     l4167:
  8953  003108  C014  F010         	movff	_atoi$1069,_atoi$1068
  8954  00310C  6A11               	clrf	(_atoi$1068+1)^0,c
  8955  00310E  5010               	movf	_atoi$1068^0,w,c
  8956  003110  1011               	iorwf	(_atoi$1068+1)^0,w,c
  8957  003112  A4D8               	btfss	status,2,c
  8958  003114  EF8E  F018         	goto	u5111
  8959  003118  EF90  F018         	goto	u5110
  8960  00311C                     u5111:
  8961  00311C  EF55  F018         	goto	l4157
  8962  003120                     u5110:
  8963  003120  EF9A  F018         	goto	l4177
  8964  003124                     l4173:
  8965  003124  0E00               	movlw	0
  8966  003126  6E0F               	movwf	(atoi@neg+1)^0,c
  8967  003128  0E01               	movlw	1
  8968  00312A  6E0E               	movwf	atoi@neg^0,c
  8969  00312C                     l4175:
  8970  00312C  4A08               	infsnz	atoi@s^0,f,c
  8971  00312E  2A09               	incf	(atoi@s+1)^0,f,c
  8972  003130  EFCF  F018         	goto	l4183
  8973  003134                     l4177:
  8974  003134  C008  FFF6         	movff	atoi@s,tblptrl
  8975  003138  C009  FFF7         	movff	atoi@s+1,tblptrh
  8976  00313C                     	if	0	;tblptru may be non-zero
  8977  00313C                     	endif
  8978  00313C                     	if	0	;tblptru may be non-zero
  8979  00313C                     	endif
  8980  00313C  0008               	tblrd		*
  8981  00313E  50F5               	movf	tablat,w,c
  8982  003140  6E0A               	movwf	??_atoi^0,c
  8983  003142  6A0B               	clrf	(??_atoi+1)^0,c
  8984                           
  8985                           ; Switch on 2 bytes has been partitioned into a top level switch of size 1, and 1 sub-sw
      +                          itches
  8986                           ; Switch size 1, requested type "simple"
  8987                           ; Number of cases is 1, Range of values is 0 to 0
  8988                           ; switch strategies available:
  8989                           ; Name         Instructions Cycles
  8990                           ; simple_byte            4     3 (average)
  8991                           ;	Chosen strategy is simple_byte
  8992  003144  500B               	movf	(??_atoi+1)^0,w,c
  8993  003146  0A00               	xorlw	0	; case 0
  8994  003148  B4D8               	btfsc	status,2,c
  8995  00314A  EFA9  F018         	goto	l4673
  8996  00314E  EFCF  F018         	goto	l4183
  8997  003152                     l4673:
  8998                           
  8999                           ; Switch size 1, requested type "simple"
  9000                           ; Number of cases is 2, Range of values is 43 to 45
  9001                           ; switch strategies available:
  9002                           ; Name         Instructions Cycles
  9003                           ; simple_byte            7     4 (average)
  9004                           ;	Chosen strategy is simple_byte
  9005  003152  500A               	movf	??_atoi^0,w,c
  9006  003154  0A2B               	xorlw	43	; case 43
  9007  003156  B4D8               	btfsc	status,2,c
  9008  003158  EF96  F018         	goto	l4175
  9009  00315C  0A06               	xorlw	6	; case 45
  9010  00315E  B4D8               	btfsc	status,2,c
  9011  003160  EF92  F018         	goto	l4173
  9012  003164  EFCF  F018         	goto	l4183
  9013  003168                     l4179:
  9014  003168  C015  F001         	movff	atoi@n,___wmul@multiplier
  9015  00316C  C016  F002         	movff	atoi@n+1,___wmul@multiplier+1
  9016  003170  0E00               	movlw	0
  9017  003172  6E04               	movwf	(___wmul@multiplicand+1)^0,c
  9018  003174  0E0A               	movlw	10
  9019  003176  6E03               	movwf	___wmul@multiplicand^0,c
  9020  003178  EC3D  F021         	call	___wmul	;wreg free
  9021  00317C  C008  FFF6         	movff	atoi@s,tblptrl
  9022  003180  C009  FFF7         	movff	atoi@s+1,tblptrh
  9023  003184                     	if	0	;tblptru may be non-zero
  9024  003184                     	endif
  9025  003184                     	if	0	;tblptru may be non-zero
  9026  003184                     	endif
  9027  003184  0008               	tblrd		*
  9028  003186  50F5               	movf	tablat,w,c
  9029  003188  5E01               	subwf	?___wmul^0,f,c
  9030  00318A  0E00               	movlw	0
  9031  00318C  5A02               	subwfb	(?___wmul+1)^0,f,c
  9032  00318E  0E30               	movlw	48
  9033  003190  2401               	addwf	?___wmul^0,w,c
  9034  003192  6E15               	movwf	atoi@n^0,c
  9035  003194  0E00               	movlw	0
  9036  003196  2002               	addwfc	(?___wmul+1)^0,w,c
  9037  003198  6E16               	movwf	(atoi@n+1)^0,c
  9038  00319A  EF96  F018         	goto	l4175
  9039  00319E                     l4183:
  9040  00319E  0ED0               	movlw	208
  9041  0031A0  6E0A               	movwf	??_atoi^0,c
  9042  0031A2  0EFF               	movlw	255
  9043  0031A4  6E0B               	movwf	(??_atoi+1)^0,c
  9044  0031A6  C008  FFF6         	movff	atoi@s,tblptrl
  9045  0031AA  C009  FFF7         	movff	atoi@s+1,tblptrh
  9046  0031AE                     	if	0	;tblptru may be non-zero
  9047  0031AE                     	endif
  9048  0031AE                     	if	0	;tblptru may be non-zero
  9049  0031AE                     	endif
  9050  0031AE  0008               	tblrd		*
  9051  0031B0  50F5               	movf	tablat,w,c
  9052  0031B2  6E0C               	movwf	(??_atoi+2)^0,c
  9053  0031B4  6A0D               	clrf	(??_atoi+3)^0,c
  9054  0031B6  500A               	movf	??_atoi^0,w,c
  9055  0031B8  260C               	addwf	(??_atoi+2)^0,f,c
  9056  0031BA  500B               	movf	(??_atoi+1)^0,w,c
  9057  0031BC  220D               	addwfc	(??_atoi+3)^0,f,c
  9058  0031BE  500D               	movf	(??_atoi+3)^0,w,c
  9059  0031C0  E10A               	bnz	u5120
  9060  0031C2  0E0A               	movlw	10
  9061  0031C4  5C0C               	subwf	(??_atoi+2)^0,w,c
  9062  0031C6  A0D8               	btfss	status,0,c
  9063  0031C8  EFE8  F018         	goto	u5121
  9064  0031CC  EFEB  F018         	goto	u5120
  9065  0031D0                     u5121:
  9066  0031D0  0E01               	movlw	1
  9067  0031D2  EFEC  F018         	goto	u5130
  9068  0031D6                     u5120:
  9069  0031D6  0E00               	movlw	0
  9070  0031D8                     u5130:
  9071  0031D8  6E12               	movwf	_atoi$1070^0,c
  9072  0031DA  6A13               	clrf	(_atoi$1070+1)^0,c
  9073  0031DC  5012               	movf	_atoi$1070^0,w,c
  9074  0031DE  1013               	iorwf	(_atoi$1070+1)^0,w,c
  9075  0031E0  A4D8               	btfss	status,2,c
  9076  0031E2  EFF5  F018         	goto	u5141
  9077  0031E6  EFF7  F018         	goto	u5140
  9078  0031EA                     u5141:
  9079  0031EA  EFB4  F018         	goto	l4179
  9080  0031EE                     u5140:
  9081  0031EE  500E               	movf	atoi@neg^0,w,c
  9082  0031F0  100F               	iorwf	(atoi@neg+1)^0,w,c
  9083  0031F2  A4D8               	btfss	status,2,c
  9084  0031F4  EFFE  F018         	goto	u5151
  9085  0031F8  EF00  F019         	goto	u5150
  9086  0031FC                     u5151:
  9087  0031FC  EF0E  F019         	goto	l1064
  9088  003200                     u5150:
  9089  003200  C015  F00A         	movff	atoi@n,??_atoi
  9090  003204  C016  F00B         	movff	atoi@n+1,??_atoi+1
  9091  003208  1E0A               	comf	??_atoi^0,f,c
  9092  00320A  1E0B               	comf	(??_atoi+1)^0,f,c
  9093  00320C  4A0A               	infsnz	??_atoi^0,f,c
  9094  00320E  2A0B               	incf	(??_atoi+1)^0,f,c
  9095  003210  C00A  F008         	movff	??_atoi,?_atoi
  9096  003214  C00B  F009         	movff	??_atoi+1,?_atoi+1
  9097  003218  EF12  F019         	goto	l1067
  9098  00321C                     l1064:
  9099  00321C  C015  F008         	movff	atoi@n,?_atoi
  9100  003220  C016  F009         	movff	atoi@n+1,?_atoi+1
  9101  003224                     l1067:
  9102  003224  0012               	return		;funcret
  9103  003226                     __end_of_atoi:
  9104                           	callstack 0
  9105                           
  9106 ;; *************** function _isspace *****************
  9107 ;; Defined at:
  9108 ;;		line 5 in file "C:\Program Files\Microchip\xc8\v2.20\pic\sources\c99\common\isspace.c"
  9109 ;; Parameters:    Size  Location     Type
  9110 ;;  c               2    0[COMRAM] int 
  9111 ;; Auto vars:     Size  Location     Type
  9112 ;;		None
  9113 ;; Return value:  Size  Location     Type
  9114 ;;                  2    0[COMRAM] int 
  9115 ;; Registers used:
  9116 ;;		wreg, status,2, status,0
  9117 ;; Tracked objects:
  9118 ;;		On entry : 0/0
  9119 ;;		On exit  : 0/0
  9120 ;;		Unchanged: 0/0
  9121 ;; Data sizes:     COMRAM   BANK0   BANK1   BANK2   BANK3   BANK4   BANK5   BANK6   BANK7
  9122 ;;      Params:         2       0       0       0       0       0       0       0       0
  9123 ;;      Locals:         1       0       0       0       0       0       0       0       0
  9124 ;;      Temps:          4       0       0       0       0       0       0       0       0
  9125 ;;      Totals:         7       0       0       0       0       0       0       0       0
  9126 ;;Total ram usage:        7 bytes
  9127 ;; Hardware stack levels used:    1
  9128 ;; Hardware stack levels required when called:    1
  9129 ;; This function calls:
  9130 ;;		Nothing
  9131 ;; This function is called by:
  9132 ;;		_atoi
  9133 ;; This function uses a non-reentrant model
  9134 ;;
  9135                           
  9136                           	psect	text31
  9137  003ECC                     __ptext31:
  9138                           	callstack 0
  9139  003ECC                     _isspace:
  9140                           	callstack 25
  9141  003ECC  0E01               	movlw	1
  9142  003ECE  6E07               	movwf	_isspace$1099^0,c
  9143  003ED0  0E20               	movlw	32
  9144  003ED2  1801               	xorwf	isspace@c^0,w,c
  9145  003ED4  1002               	iorwf	(isspace@c+1)^0,w,c
  9146  003ED6  B4D8               	btfsc	status,2,c
  9147  003ED8  EF70  F01F         	goto	u4401
  9148  003EDC  EF72  F01F         	goto	u4400
  9149  003EE0                     u4401:
  9150  003EE0  EF8B  F01F         	goto	l3785
  9151  003EE4                     u4400:
  9152  003EE4  0EF7               	movlw	247
  9153  003EE6  6E03               	movwf	??_isspace^0,c
  9154  003EE8  0EFF               	movlw	255
  9155  003EEA  6E04               	movwf	(??_isspace+1)^0,c
  9156  003EEC  C001  F005         	movff	isspace@c,??_isspace+2
  9157  003EF0  C002  F006         	movff	isspace@c+1,??_isspace+3
  9158  003EF4  5003               	movf	??_isspace^0,w,c
  9159  003EF6  2605               	addwf	(??_isspace+2)^0,f,c
  9160  003EF8  5004               	movf	(??_isspace+1)^0,w,c
  9161  003EFA  2206               	addwfc	(??_isspace+3)^0,f,c
  9162  003EFC  5006               	movf	(??_isspace+3)^0,w,c
  9163  003EFE  E109               	bnz	u4410
  9164  003F00  0E05               	movlw	5
  9165  003F02  5C05               	subwf	(??_isspace+2)^0,w,c
  9166  003F04  A0D8               	btfss	status,0,c
  9167  003F06  EF87  F01F         	goto	u4411
  9168  003F0A  EF89  F01F         	goto	u4410
  9169  003F0E                     u4411:
  9170  003F0E  EF8B  F01F         	goto	l3785
  9171  003F12                     u4410:
  9172  003F12  0E00               	movlw	0
  9173  003F14  6E07               	movwf	_isspace$1099^0,c
  9174  003F16                     l3785:
  9175  003F16  C007  F001         	movff	_isspace$1099,?_isspace
  9176  003F1A  6A02               	clrf	(?_isspace+1)^0,c
  9177  003F1C  0012               	return		;funcret
  9178  003F1E                     __end_of_isspace:
  9179                           	callstack 0
  9180                           
  9181 ;; *************** function _isdigit *****************
  9182 ;; Defined at:
  9183 ;;		line 5 in file "C:\Program Files\Microchip\xc8\v2.20\pic\sources\c99\common\isdigit.c"
  9184 ;; Parameters:    Size  Location     Type
  9185 ;;  c               2    0[COMRAM] int 
  9186 ;; Auto vars:     Size  Location     Type
  9187 ;;		None
  9188 ;; Return value:  Size  Location     Type
  9189 ;;                  2    0[COMRAM] int 
  9190 ;; Registers used:
  9191 ;;		wreg, status,2, status,0
  9192 ;; Tracked objects:
  9193 ;;		On entry : 0/0
  9194 ;;		On exit  : 0/0
  9195 ;;		Unchanged: 0/0
  9196 ;; Data sizes:     COMRAM   BANK0   BANK1   BANK2   BANK3   BANK4   BANK5   BANK6   BANK7
  9197 ;;      Params:         2       0       0       0       0       0       0       0       0
  9198 ;;      Locals:         0       0       0       0       0       0       0       0       0
  9199 ;;      Temps:          4       0       0       0       0       0       0       0       0
  9200 ;;      Totals:         6       0       0       0       0       0       0       0       0
  9201 ;;Total ram usage:        6 bytes
  9202 ;; Hardware stack levels used:    1
  9203 ;; Hardware stack levels required when called:    1
  9204 ;; This function calls:
  9205 ;;		Nothing
  9206 ;; This function is called by:
  9207 ;;		_vfpfcnvrt
  9208 ;;		_atoi
  9209 ;; This function uses a non-reentrant model
  9210 ;;
  9211                           
  9212                           	psect	text32
  9213  004178                     __ptext32:
  9214                           	callstack 0
  9215  004178                     _isdigit:
  9216                           	callstack 26
  9217  004178  0ED0               	movlw	208
  9218  00417A  6E03               	movwf	??_isdigit^0,c
  9219  00417C  0EFF               	movlw	255
  9220  00417E  6E04               	movwf	(??_isdigit+1)^0,c
  9221  004180  C001  F005         	movff	isdigit@c,??_isdigit+2
  9222  004184  C002  F006         	movff	isdigit@c+1,??_isdigit+3
  9223  004188  5003               	movf	??_isdigit^0,w,c
  9224  00418A  2605               	addwf	(??_isdigit+2)^0,f,c
  9225  00418C  5004               	movf	(??_isdigit+1)^0,w,c
  9226  00418E  2206               	addwfc	(??_isdigit+3)^0,f,c
  9227  004190  5006               	movf	(??_isdigit+3)^0,w,c
  9228  004192  E10A               	bnz	u4380
  9229  004194  0E0A               	movlw	10
  9230  004196  5C05               	subwf	(??_isdigit+2)^0,w,c
  9231  004198  A0D8               	btfss	status,0,c
  9232  00419A  EFD1  F020         	goto	u4381
  9233  00419E  EFD4  F020         	goto	u4380
  9234  0041A2                     u4381:
  9235  0041A2  0E01               	movlw	1
  9236  0041A4  EFD5  F020         	goto	u4390
  9237  0041A8                     u4380:
  9238  0041A8  0E00               	movlw	0
  9239  0041AA                     u4390:
  9240  0041AA  6E01               	movwf	?_isdigit^0,c
  9241  0041AC  6A02               	clrf	(?_isdigit+1)^0,c
  9242  0041AE  0012               	return		;funcret
  9243  0041B0                     __end_of_isdigit:
  9244                           	callstack 0
  9245                           
  9246 ;; *************** function ___wmul *****************
  9247 ;; Defined at:
  9248 ;;		line 15 in file "C:\Program Files\Microchip\xc8\v2.20\pic\sources\c99\common\Umul16.c"
  9249 ;; Parameters:    Size  Location     Type
  9250 ;;  multiplier      2    0[COMRAM] unsigned int 
  9251 ;;  multiplicand    2    2[COMRAM] unsigned int 
  9252 ;; Auto vars:     Size  Location     Type
  9253 ;;  product         2    4[COMRAM] unsigned int 
  9254 ;; Return value:  Size  Location     Type
  9255 ;;                  2    0[COMRAM] unsigned int 
  9256 ;; Registers used:
  9257 ;;		wreg, status,2, status,0, prodl, prodh
  9258 ;; Tracked objects:
  9259 ;;		On entry : 0/0
  9260 ;;		On exit  : 0/0
  9261 ;;		Unchanged: 0/0
  9262 ;; Data sizes:     COMRAM   BANK0   BANK1   BANK2   BANK3   BANK4   BANK5   BANK6   BANK7
  9263 ;;      Params:         4       0       0       0       0       0       0       0       0
  9264 ;;      Locals:         2       0       0       0       0       0       0       0       0
  9265 ;;      Temps:          0       0       0       0       0       0       0       0       0
  9266 ;;      Totals:         6       0       0       0       0       0       0       0       0
  9267 ;;Total ram usage:        6 bytes
  9268 ;; Hardware stack levels used:    1
  9269 ;; Hardware stack levels required when called:    1
  9270 ;; This function calls:
  9271 ;;		Nothing
  9272 ;; This function is called by:
  9273 ;;		_main
  9274 ;;		_atoi
  9275 ;; This function uses a non-reentrant model
  9276 ;;
  9277                           
  9278                           	psect	text33
  9279  00427A                     __ptext33:
  9280                           	callstack 0
  9281  00427A                     ___wmul:
  9282                           	callstack 25
  9283  00427A  5001               	movf	___wmul@multiplier^0,w,c
  9284  00427C  0203               	mulwf	___wmul@multiplicand^0,c
  9285  00427E  CFF3 F005          	movff	prodl,___wmul@product
  9286  004282  CFF4 F006          	movff	prodh,___wmul@product+1
  9287  004286  5001               	movf	___wmul@multiplier^0,w,c
  9288  004288  0204               	mulwf	(___wmul@multiplicand+1)^0,c
  9289  00428A  50F3               	movf	243,w,c
  9290  00428C  2606               	addwf	(___wmul@product+1)^0,f,c
  9291  00428E  5002               	movf	(___wmul@multiplier+1)^0,w,c
  9292  004290  0203               	mulwf	___wmul@multiplicand^0,c
  9293  004292  50F3               	movf	243,w,c
  9294  004294  2606               	addwf	(___wmul@product+1)^0,f,c
  9295  004296  C005  F001         	movff	___wmul@product,?___wmul
  9296  00429A  C006  F002         	movff	___wmul@product+1,?___wmul+1
  9297  00429E  0012               	return		;funcret
  9298  0042A0                     __end_of___wmul:
  9299                           	callstack 0
  9300                           
  9301 ;; *************** function _lcd_put_caracter *****************
  9302 ;; Defined at:
  9303 ;;		line 147 in file "../../Libraries\LCD.h"
  9304 ;; Parameters:    Size  Location     Type
  9305 ;;  adress          1    wreg     unsigned char 
  9306 ;;  caracter        2    2[COMRAM] PTR unsigned char 
  9307 ;;		 -> main@degree(8), 
  9308 ;; Auto vars:     Size  Location     Type
  9309 ;;  adress          1    4[COMRAM] unsigned char 
  9310 ;;  i               2    5[COMRAM] int 
  9311 ;; Return value:  Size  Location     Type
  9312 ;;                  1    wreg      void 
  9313 ;; Registers used:
  9314 ;;		wreg, fsr2l, fsr2h, status,2, status,0, prodl, prodh, cstack
  9315 ;; Tracked objects:
  9316 ;;		On entry : 0/0
  9317 ;;		On exit  : 0/0
  9318 ;;		Unchanged: 0/0
  9319 ;; Data sizes:     COMRAM   BANK0   BANK1   BANK2   BANK3   BANK4   BANK5   BANK6   BANK7
  9320 ;;      Params:         2       0       0       0       0       0       0       0       0
  9321 ;;      Locals:         3       0       0       0       0       0       0       0       0
  9322 ;;      Temps:          0       0       0       0       0       0       0       0       0
  9323 ;;      Totals:         5       0       0       0       0       0       0       0       0
  9324 ;;Total ram usage:        5 bytes
  9325 ;; Hardware stack levels used:    1
  9326 ;; Hardware stack levels required when called:    3
  9327 ;; This function calls:
  9328 ;;		_lcd_control
  9329 ;;		_lcd_dato
  9330 ;; This function is called by:
  9331 ;;		_main
  9332 ;; This function uses a non-reentrant model
  9333 ;;
  9334                           
  9335                           	psect	text34
  9336  003F6A                     __ptext34:
  9337                           	callstack 0
  9338  003F6A                     _lcd_put_caracter:
  9339                           	callstack 27
  9340                           
  9341                           ;incstack = 0
  9342                           ;lcd_put_caracter@adress stored from wreg
  9343  003F6A  6E05               	movwf	lcd_put_caracter@adress^0,c
  9344  003F6C                     
  9345                           ;../../Libraries\LCD.h: 148:     int i;;../../Libraries\LCD.h: 149:     lcd_control(0x40
      +                           + (adress * 8));
  9346  003F6C  5005               	movf	lcd_put_caracter@adress^0,w,c
  9347  003F6E  0D08               	mullw	8
  9348  003F70  50F3               	movf	243,w,c
  9349  003F72  0F40               	addlw	64
  9350  003F74  EC0F  F021         	call	_lcd_control
  9351  003F78                     
  9352                           ;../../Libraries\LCD.h: 150:     for (i = 0; i < 8; i++) {
  9353  003F78  0E00               	movlw	0
  9354  003F7A  6E07               	movwf	(lcd_put_caracter@i+1)^0,c
  9355  003F7C  0E00               	movlw	0
  9356  003F7E  6E06               	movwf	lcd_put_caracter@i^0,c
  9357  003F80                     l4437:
  9358                           
  9359                           ;../../Libraries\LCD.h: 151:         lcd_dato(caracter[i]);
  9360  003F80  5006               	movf	lcd_put_caracter@i^0,w,c
  9361  003F82  2403               	addwf	lcd_put_caracter@caracter^0,w,c
  9362  003F84  6ED9               	movwf	fsr2l,c
  9363  003F86  5007               	movf	(lcd_put_caracter@i+1)^0,w,c
  9364  003F88  2004               	addwfc	(lcd_put_caracter@caracter+1)^0,w,c
  9365  003F8A  6EDA               	movwf	fsr2h,c
  9366  003F8C  50DF               	movf	indf2,w,c
  9367  003F8E  EC28  F021         	call	_lcd_dato
  9368  003F92                     
  9369                           ;../../Libraries\LCD.h: 152:     }
  9370  003F92  4A06               	infsnz	lcd_put_caracter@i^0,f,c
  9371  003F94  2A07               	incf	(lcd_put_caracter@i+1)^0,f,c
  9372  003F96  BE07               	btfsc	(lcd_put_caracter@i+1)^0,7,c
  9373  003F98  EFD7  F01F         	goto	u5461
  9374  003F9C  5007               	movf	(lcd_put_caracter@i+1)^0,w,c
  9375  003F9E  E109               	bnz	u5460
  9376  003FA0  0E08               	movlw	8
  9377  003FA2  5C06               	subwf	lcd_put_caracter@i^0,w,c
  9378  003FA4  A0D8               	btfss	status,0,c
  9379  003FA6  EFD7  F01F         	goto	u5461
  9380  003FAA  EFD9  F01F         	goto	u5460
  9381  003FAE                     u5461:
  9382  003FAE  EFC0  F01F         	goto	l4437
  9383  003FB2                     u5460:
  9384  003FB2  0012               	return		;funcret
  9385  003FB4                     __end_of_lcd_put_caracter:
  9386                           	callstack 0
  9387                           
  9388 ;; *************** function _lcd_print_with_position *****************
  9389 ;; Defined at:
  9390 ;;		line 114 in file "../../Libraries\LCD.h"
  9391 ;; Parameters:    Size  Location     Type
  9392 ;;  x               2    4[COMRAM] int 
  9393 ;;  y               2    6[COMRAM] int 
  9394 ;;  dato            2    8[COMRAM] PTR unsigned char 
  9395 ;;		 -> STR_8(2), STR_6(2), STR_4(2), main@str(3), 
  9396 ;;		 -> STR_2(5), 
  9397 ;; Auto vars:     Size  Location     Type
  9398 ;;  posicion        1   12[COMRAM] unsigned char 
  9399 ;; Return value:  Size  Location     Type
  9400 ;;                  1    wreg      void 
  9401 ;; Registers used:
  9402 ;;		wreg, fsr1l, fsr1h, status,2, status,0, tblptrl, tblptrh, tblptru, cstack
  9403 ;; Tracked objects:
  9404 ;;		On entry : 0/0
  9405 ;;		On exit  : 0/0
  9406 ;;		Unchanged: 0/0
  9407 ;; Data sizes:     COMRAM   BANK0   BANK1   BANK2   BANK3   BANK4   BANK5   BANK6   BANK7
  9408 ;;      Params:         6       0       0       0       0       0       0       0       0
  9409 ;;      Locals:         1       0       0       0       0       0       0       0       0
  9410 ;;      Temps:          2       0       0       0       0       0       0       0       0
  9411 ;;      Totals:         9       0       0       0       0       0       0       0       0
  9412 ;;Total ram usage:        9 bytes
  9413 ;; Hardware stack levels used:    1
  9414 ;; Hardware stack levels required when called:    4
  9415 ;; This function calls:
  9416 ;;		_lcd_control
  9417 ;;		_lcd_print
  9418 ;; This function is called by:
  9419 ;;		_main
  9420 ;; This function uses a non-reentrant model
  9421 ;;
  9422                           
  9423                           	psect	text35
  9424  003E22                     __ptext35:
  9425                           	callstack 0
  9426  003E22                     _lcd_print_with_position:
  9427                           	callstack 26
  9428  003E22                     
  9429                           ;../../Libraries\LCD.h: 115:     char posicion;;../../Libraries\LCD.h: 116:     switch (
      +                          y) {
  9430  003E22  EF1D  F01F         	goto	l4401
  9431  003E26                     l4393:
  9432  003E26  5005               	movf	lcd_print_with_position@x^0,w,c
  9433  003E28  0F80               	addlw	128
  9434  003E2A  6E0D               	movwf	lcd_print_with_position@posicion^0,c
  9435                           
  9436                           ;../../Libraries\LCD.h: 118:             break;
  9437  003E2C  EF33  F01F         	goto	l4403
  9438  003E30                     l4395:
  9439  003E30  5005               	movf	lcd_print_with_position@x^0,w,c
  9440  003E32  0FC0               	addlw	192
  9441  003E34  6E0D               	movwf	lcd_print_with_position@posicion^0,c
  9442                           
  9443                           ;../../Libraries\LCD.h: 120:             break;
  9444  003E36  EF33  F01F         	goto	l4403
  9445  003E3A                     l4401:
  9446  003E3A  C007  F00B         	movff	lcd_print_with_position@y,??_lcd_print_with_position
  9447  003E3E  C008  F00C         	movff	lcd_print_with_position@y+1,??_lcd_print_with_position+1
  9448                           
  9449                           ; Switch on 2 bytes has been partitioned into a top level switch of size 1, and 1 sub-sw
      +                          itches
  9450                           ; Switch size 1, requested type "simple"
  9451                           ; Number of cases is 1, Range of values is 0 to 0
  9452                           ; switch strategies available:
  9453                           ; Name         Instructions Cycles
  9454                           ; simple_byte            4     3 (average)
  9455                           ;	Chosen strategy is simple_byte
  9456  003E42  500C               	movf	(??_lcd_print_with_position+1)^0,w,c
  9457  003E44  0A00               	xorlw	0	; case 0
  9458  003E46  B4D8               	btfsc	status,2,c
  9459  003E48  EF28  F01F         	goto	l4675
  9460  003E4C  EF13  F01F         	goto	l4393
  9461  003E50                     l4675:
  9462                           
  9463                           ; Switch size 1, requested type "simple"
  9464                           ; Number of cases is 2, Range of values is 1 to 2
  9465                           ; switch strategies available:
  9466                           ; Name         Instructions Cycles
  9467                           ; simple_byte            7     4 (average)
  9468                           ;	Chosen strategy is simple_byte
  9469  003E50  500B               	movf	??_lcd_print_with_position^0,w,c
  9470  003E52  0A01               	xorlw	1	; case 1
  9471  003E54  B4D8               	btfsc	status,2,c
  9472  003E56  EF13  F01F         	goto	l4393
  9473  003E5A  0A03               	xorlw	3	; case 2
  9474  003E5C  B4D8               	btfsc	status,2,c
  9475  003E5E  EF18  F01F         	goto	l4395
  9476  003E62  EF13  F01F         	goto	l4393
  9477  003E66                     l4403:
  9478                           
  9479                           ;../../Libraries\LCD.h: 124:     lcd_control(posicion);
  9480  003E66  500D               	movf	lcd_print_with_position@posicion^0,w,c
  9481  003E68  EC0F  F021         	call	_lcd_control
  9482  003E6C                     
  9483                           ;../../Libraries\LCD.h: 125:     lcd_print(dato);
  9484  003E6C  C009  F003         	movff	lcd_print_with_position@dato,lcd_print@dato
  9485  003E70  C00A  F004         	movff	lcd_print_with_position@dato+1,lcd_print@dato+1
  9486  003E74  ECB4  F01E         	call	_lcd_print	;wreg free
  9487  003E78  0012               	return		;funcret
  9488  003E7A                     __end_of_lcd_print_with_position:
  9489                           	callstack 0
  9490                           
  9491 ;; *************** function _lcd_print *****************
  9492 ;; Defined at:
  9493 ;;		line 93 in file "../../Libraries\LCD.h"
  9494 ;; Parameters:    Size  Location     Type
  9495 ;;  dato            2    2[COMRAM] PTR unsigned char 
  9496 ;;		 -> STR_8(2), STR_6(2), STR_4(2), main@str(3), 
  9497 ;;		 -> STR_2(5), STR_1(15), 
  9498 ;; Auto vars:     Size  Location     Type
  9499 ;;		None
  9500 ;; Return value:  Size  Location     Type
  9501 ;;                  1    wreg      void 
  9502 ;; Registers used:
  9503 ;;		wreg, fsr1l, fsr1h, status,2, status,0, tblptrl, tblptrh, tblptru, cstack
  9504 ;; Tracked objects:
  9505 ;;		On entry : 0/0
  9506 ;;		On exit  : 0/0
  9507 ;;		Unchanged: 0/0
  9508 ;; Data sizes:     COMRAM   BANK0   BANK1   BANK2   BANK3   BANK4   BANK5   BANK6   BANK7
  9509 ;;      Params:         2       0       0       0       0       0       0       0       0
  9510 ;;      Locals:         0       0       0       0       0       0       0       0       0
  9511 ;;      Temps:          0       0       0       0       0       0       0       0       0
  9512 ;;      Totals:         2       0       0       0       0       0       0       0       0
  9513 ;;Total ram usage:        2 bytes
  9514 ;; Hardware stack levels used:    1
  9515 ;; Hardware stack levels required when called:    3
  9516 ;; This function calls:
  9517 ;;		_lcd_dato
  9518 ;; This function is called by:
  9519 ;;		_lcd_print_with_position
  9520 ;;		_main
  9521 ;; This function uses a non-reentrant model
  9522 ;;
  9523                           
  9524                           	psect	text36
  9525  003D68                     __ptext36:
  9526                           	callstack 0
  9527  003D68                     _lcd_print:
  9528                           	callstack 26
  9529  003D68                     
  9530                           ;../../Libraries\LCD.h: 94:     while (*dato)
  9531  003D68  EFCA  F01E         	goto	l4361
  9532  003D6C                     l4357:
  9533                           
  9534                           ;../../Libraries\LCD.h: 95:     {;../../Libraries\LCD.h: 96:         lcd_dato(*dato);
  9535  003D6C  C003  FFF6         	movff	lcd_print@dato,tblptrl
  9536  003D70  C004  FFF7         	movff	lcd_print@dato+1,tblptrh
  9537  003D74  6AF8               	clrf	tblptru,c
  9538  003D76  0E07               	movlw	(high __ramtop+-1)
  9539  003D78  64F7               	cpfsgt	tblptrh,c
  9540  003D7A  D003               	bra	u5427
  9541  003D7C  0008               	tblrd		*
  9542  003D7E  50F5               	movf	tablat,w,c
  9543  003D80  D005               	bra	u5420
  9544  003D82                     u5427:
  9545  003D82  CFF6 FFE1          	movff	tblptrl,fsr1l
  9546  003D86  CFF7 FFE2          	movff	tblptrh,fsr1h
  9547  003D8A  50E7               	movf	indf1,w,c
  9548  003D8C                     u5420:
  9549  003D8C  EC28  F021         	call	_lcd_dato
  9550  003D90                     
  9551                           ;../../Libraries\LCD.h: 97:         dato++;
  9552  003D90  4A03               	infsnz	lcd_print@dato^0,f,c
  9553  003D92  2A04               	incf	(lcd_print@dato+1)^0,f,c
  9554  003D94                     l4361:
  9555                           
  9556                           ;../../Libraries\LCD.h: 94:     while (*dato)
  9557  003D94  C003  FFF6         	movff	lcd_print@dato,tblptrl
  9558  003D98  C004  FFF7         	movff	lcd_print@dato+1,tblptrh
  9559  003D9C  6AF8               	clrf	tblptru,c
  9560  003D9E  0E07               	movlw	(high __ramtop+-1)
  9561  003DA0  64F7               	cpfsgt	tblptrh,c
  9562  003DA2  D003               	bra	u5437
  9563  003DA4  0008               	tblrd		*
  9564  003DA6  50F5               	movf	tablat,w,c
  9565  003DA8  D005               	bra	u5430
  9566  003DAA                     u5437:
  9567  003DAA  CFF6 FFE1          	movff	tblptrl,fsr1l
  9568  003DAE  CFF7 FFE2          	movff	tblptrh,fsr1h
  9569  003DB2  50E7               	movf	indf1,w,c
  9570  003DB4                     u5430:
  9571  003DB4  0900               	iorlw	0
  9572  003DB6  A4D8               	btfss	status,2,c
  9573  003DB8  EFE0  F01E         	goto	u5441
  9574  003DBC  EFE2  F01E         	goto	u5440
  9575  003DC0                     u5441:
  9576  003DC0  EFB6  F01E         	goto	l4357
  9577  003DC4                     u5440:
  9578  003DC4  0012               	return		;funcret
  9579  003DC6                     __end_of_lcd_print:
  9580                           	callstack 0
  9581                           
  9582 ;; *************** function _lcd_dato *****************
  9583 ;; Defined at:
  9584 ;;		line 67 in file "../../Libraries\LCD.h"
  9585 ;; Parameters:    Size  Location     Type
  9586 ;;  dato            1    wreg     unsigned char 
  9587 ;; Auto vars:     Size  Location     Type
  9588 ;;  dato            1    1[COMRAM] unsigned char 
  9589 ;; Return value:  Size  Location     Type
  9590 ;;                  1    wreg      void 
  9591 ;; Registers used:
  9592 ;;		wreg, status,2, status,0, cstack
  9593 ;; Tracked objects:
  9594 ;;		On entry : 0/0
  9595 ;;		On exit  : 0/0
  9596 ;;		Unchanged: 0/0
  9597 ;; Data sizes:     COMRAM   BANK0   BANK1   BANK2   BANK3   BANK4   BANK5   BANK6   BANK7
  9598 ;;      Params:         0       0       0       0       0       0       0       0       0
  9599 ;;      Locals:         1       0       0       0       0       0       0       0       0
  9600 ;;      Temps:          1       0       0       0       0       0       0       0       0
  9601 ;;      Totals:         2       0       0       0       0       0       0       0       0
  9602 ;;Total ram usage:        2 bytes
  9603 ;; Hardware stack levels used:    1
  9604 ;; Hardware stack levels required when called:    2
  9605 ;; This function calls:
  9606 ;;		_lcd_time_control
  9607 ;; This function is called by:
  9608 ;;		_lcd_print
  9609 ;;		_lcd_put_caracter
  9610 ;;		_main
  9611 ;;		_lcd_print_var
  9612 ;; This function uses a non-reentrant model
  9613 ;;
  9614                           
  9615                           	psect	text37
  9616  004250                     __ptext37:
  9617                           	callstack 0
  9618  004250                     _lcd_dato:
  9619                           	callstack 27
  9620                           
  9621                           ;incstack = 0
  9622                           ;lcd_dato@dato stored from wreg
  9623  004250  6E02               	movwf	lcd_dato@dato^0,c
  9624  004252                     
  9625                           ;../../Libraries\LCD.h: 68:     LATEbits.LATE0 = 1;
  9626  004252  808D               	bsf	141,0,c	;volatile
  9627  004254                     
  9628                           ;../../Libraries\LCD.h: 69:     LATC = dato & 0xF0;
  9629  004254  5002               	movf	lcd_dato@dato^0,w,c
  9630  004256  0BF0               	andlw	240
  9631  004258  6E8B               	movwf	139,c	;volatile
  9632  00425A                     
  9633                           ;../../Libraries\LCD.h: 70:     lcd_time_control();
  9634  00425A  EC5F  F021         	call	_lcd_time_control	;wreg free
  9635  00425E                     
  9636                           ;../../Libraries\LCD.h: 71:     LATC = ((dato & 0x0F) << 4);
  9637  00425E  C002  F001         	movff	lcd_dato@dato,??_lcd_dato
  9638  004262  0E0F               	movlw	15
  9639  004264  1601               	andwf	??_lcd_dato^0,f,c
  9640  004266  3801               	swapf	??_lcd_dato^0,w,c
  9641  004268  0BF0               	andlw	240
  9642  00426A  6E8B               	movwf	139,c	;volatile
  9643                           
  9644                           ;../../Libraries\LCD.h: 72:     lcd_time_control();
  9645  00426C  EC5F  F021         	call	_lcd_time_control	;wreg free
  9646  004270                     
  9647                           ;../../Libraries\LCD.h: 73:     _delay((unsigned long)((50)*(8000000/4000000.0)));
  9648  004270  0E21               	movlw	33
  9649  004272                     u5617:
  9650  004272  2EE8               	decfsz	wreg,f,c
  9651  004274  D7FE               	bra	u5617
  9652  004276  F000               	nop	
  9653  004278  0012               	return		;funcret
  9654  00427A                     __end_of_lcd_dato:
  9655                           	callstack 0
  9656                           
  9657 ;; *************** function _lcd_init *****************
  9658 ;; Defined at:
  9659 ;;		line 30 in file "../../Libraries\LCD.h"
  9660 ;; Parameters:    Size  Location     Type
  9661 ;;		None
  9662 ;; Auto vars:     Size  Location     Type
  9663 ;;		None
  9664 ;; Return value:  Size  Location     Type
  9665 ;;                  1    wreg      void 
  9666 ;; Registers used:
  9667 ;;		wreg, status,2, status,0, cstack
  9668 ;; Tracked objects:
  9669 ;;		On entry : 0/0
  9670 ;;		On exit  : 0/0
  9671 ;;		Unchanged: 0/0
  9672 ;; Data sizes:     COMRAM   BANK0   BANK1   BANK2   BANK3   BANK4   BANK5   BANK6   BANK7
  9673 ;;      Params:         0       0       0       0       0       0       0       0       0
  9674 ;;      Locals:         0       0       0       0       0       0       0       0       0
  9675 ;;      Temps:          1       0       0       0       0       0       0       0       0
  9676 ;;      Totals:         1       0       0       0       0       0       0       0       0
  9677 ;;Total ram usage:        1 bytes
  9678 ;; Hardware stack levels used:    1
  9679 ;; Hardware stack levels required when called:    3
  9680 ;; This function calls:
  9681 ;;		_lcd_control
  9682 ;; This function is called by:
  9683 ;;		_main
  9684 ;; This function uses a non-reentrant model
  9685 ;;
  9686                           
  9687                           	psect	text38
  9688  0041B0                     __ptext38:
  9689                           	callstack 0
  9690  0041B0                     _lcd_init:
  9691                           	callstack 27
  9692  0041B0                     
  9693                           ;../../Libraries\LCD.h: 32:     TRISEbits.TRISE0 = 0;
  9694  0041B0  9096               	bcf	150,0,c	;volatile
  9695                           
  9696                           ;../../Libraries\LCD.h: 33:     TRISEbits.TRISE1 = 0;
  9697  0041B2  9296               	bcf	150,1,c	;volatile
  9698  0041B4                     
  9699                           ;../../Libraries\LCD.h: 34:     TRISC = 0b00001111;
  9700  0041B4  0E0F               	movlw	15
  9701  0041B6  6E94               	movwf	148,c	;volatile
  9702  0041B8                     
  9703                           ;../../Libraries\LCD.h: 35:     LATEbits.LATE0 = 0;
  9704  0041B8  908D               	bcf	141,0,c	;volatile
  9705  0041BA                     
  9706                           ;../../Libraries\LCD.h: 36:     LATEbits.LATE1 = 0;
  9707  0041BA  928D               	bcf	141,1,c	;volatile
  9708                           
  9709                           ;../../Libraries\LCD.h: 37:     LATC = 0;
  9710  0041BC  0E00               	movlw	0
  9711  0041BE  6E8B               	movwf	139,c	;volatile
  9712  0041C0                     
  9713                           ;../../Libraries\LCD.h: 41:     _delay((unsigned long)((50)*(8000000/4000.0)));
  9714  0041C0  0E82               	movlw	130
  9715  0041C2  6E03               	movwf	??_lcd_init^0,c
  9716  0041C4  0EDE               	movlw	222
  9717  0041C6                     u5627:
  9718  0041C6  2EE8               	decfsz	wreg,f,c
  9719  0041C8  D7FE               	bra	u5627
  9720  0041CA  2E03               	decfsz	??_lcd_init^0,f,c
  9721  0041CC  D7FC               	bra	u5627
  9722  0041CE                     
  9723                           ;../../Libraries\LCD.h: 42:     lcd_control(0x02);
  9724  0041CE  0E02               	movlw	2
  9725  0041D0  EC0F  F021         	call	_lcd_control
  9726  0041D4                     
  9727                           ;../../Libraries\LCD.h: 43:     lcd_control(0x28);
  9728  0041D4  0E28               	movlw	40
  9729  0041D6  EC0F  F021         	call	_lcd_control
  9730  0041DA                     
  9731                           ;../../Libraries\LCD.h: 44:     lcd_control(0x0C);
  9732  0041DA  0E0C               	movlw	12
  9733  0041DC  EC0F  F021         	call	_lcd_control
  9734  0041E0                     
  9735                           ;../../Libraries\LCD.h: 45:     lcd_control(0x06);
  9736  0041E0  0E06               	movlw	6
  9737  0041E2  EC0F  F021         	call	_lcd_control
  9738  0041E6  0012               	return		;funcret
  9739  0041E8                     __end_of_lcd_init:
  9740                           	callstack 0
  9741                           
  9742 ;; *************** function _lcd_goto *****************
  9743 ;; Defined at:
  9744 ;;		line 131 in file "../../Libraries\LCD.h"
  9745 ;; Parameters:    Size  Location     Type
  9746 ;;  x               2    2[COMRAM] int 
  9747 ;;  y               2    4[COMRAM] int 
  9748 ;; Auto vars:     Size  Location     Type
  9749 ;;  posicion        1    8[COMRAM] unsigned char 
  9750 ;; Return value:  Size  Location     Type
  9751 ;;                  1    wreg      void 
  9752 ;; Registers used:
  9753 ;;		wreg, status,2, status,0, cstack
  9754 ;; Tracked objects:
  9755 ;;		On entry : 0/0
  9756 ;;		On exit  : 0/0
  9757 ;;		Unchanged: 0/0
  9758 ;; Data sizes:     COMRAM   BANK0   BANK1   BANK2   BANK3   BANK4   BANK5   BANK6   BANK7
  9759 ;;      Params:         4       0       0       0       0       0       0       0       0
  9760 ;;      Locals:         1       0       0       0       0       0       0       0       0
  9761 ;;      Temps:          2       0       0       0       0       0       0       0       0
  9762 ;;      Totals:         7       0       0       0       0       0       0       0       0
  9763 ;;Total ram usage:        7 bytes
  9764 ;; Hardware stack levels used:    1
  9765 ;; Hardware stack levels required when called:    3
  9766 ;; This function calls:
  9767 ;;		_lcd_control
  9768 ;; This function is called by:
  9769 ;;		_main
  9770 ;; This function uses a non-reentrant model
  9771 ;;
  9772                           
  9773                           	psect	text39
  9774  003F1E                     __ptext39:
  9775                           	callstack 0
  9776  003F1E                     _lcd_goto:
  9777                           	callstack 27
  9778  003F1E                     
  9779                           ;../../Libraries\LCD.h: 132:     char posicion;;../../Libraries\LCD.h: 133:     switch (
      +                          y) {
  9780  003F1E  EF9B  F01F         	goto	l4421
  9781  003F22                     l4413:
  9782  003F22  5003               	movf	lcd_goto@x^0,w,c
  9783  003F24  0F80               	addlw	128
  9784  003F26  6E09               	movwf	lcd_goto@posicion^0,c
  9785                           
  9786                           ;../../Libraries\LCD.h: 135:             break;
  9787  003F28  EFB1  F01F         	goto	l4423
  9788  003F2C                     l4415:
  9789  003F2C  5003               	movf	lcd_goto@x^0,w,c
  9790  003F2E  0FC0               	addlw	192
  9791  003F30  6E09               	movwf	lcd_goto@posicion^0,c
  9792                           
  9793                           ;../../Libraries\LCD.h: 137:             break;
  9794  003F32  EFB1  F01F         	goto	l4423
  9795  003F36                     l4421:
  9796  003F36  C005  F007         	movff	lcd_goto@y,??_lcd_goto
  9797  003F3A  C006  F008         	movff	lcd_goto@y+1,??_lcd_goto+1
  9798                           
  9799                           ; Switch on 2 bytes has been partitioned into a top level switch of size 1, and 1 sub-sw
      +                          itches
  9800                           ; Switch size 1, requested type "simple"
  9801                           ; Number of cases is 1, Range of values is 0 to 0
  9802                           ; switch strategies available:
  9803                           ; Name         Instructions Cycles
  9804                           ; simple_byte            4     3 (average)
  9805                           ;	Chosen strategy is simple_byte
  9806  003F3E  5008               	movf	(??_lcd_goto+1)^0,w,c
  9807  003F40  0A00               	xorlw	0	; case 0
  9808  003F42  B4D8               	btfsc	status,2,c
  9809  003F44  EFA6  F01F         	goto	l4677
  9810  003F48  EF91  F01F         	goto	l4413
  9811  003F4C                     l4677:
  9812                           
  9813                           ; Switch size 1, requested type "simple"
  9814                           ; Number of cases is 2, Range of values is 1 to 2
  9815                           ; switch strategies available:
  9816                           ; Name         Instructions Cycles
  9817                           ; simple_byte            7     4 (average)
  9818                           ;	Chosen strategy is simple_byte
  9819  003F4C  5007               	movf	??_lcd_goto^0,w,c
  9820  003F4E  0A01               	xorlw	1	; case 1
  9821  003F50  B4D8               	btfsc	status,2,c
  9822  003F52  EF91  F01F         	goto	l4413
  9823  003F56  0A03               	xorlw	3	; case 2
  9824  003F58  B4D8               	btfsc	status,2,c
  9825  003F5A  EF96  F01F         	goto	l4415
  9826  003F5E  EF91  F01F         	goto	l4413
  9827  003F62                     l4423:
  9828                           
  9829                           ;../../Libraries\LCD.h: 141:     lcd_control(posicion);
  9830  003F62  5009               	movf	lcd_goto@posicion^0,w,c
  9831  003F64  EC0F  F021         	call	_lcd_control
  9832  003F68  0012               	return		;funcret
  9833  003F6A                     __end_of_lcd_goto:
  9834                           	callstack 0
  9835                           
  9836 ;; *************** function _lcd_clear_display *****************
  9837 ;; Defined at:
  9838 ;;		line 79 in file "../../Libraries\LCD.h"
  9839 ;; Parameters:    Size  Location     Type
  9840 ;;		None
  9841 ;; Auto vars:     Size  Location     Type
  9842 ;;		None
  9843 ;; Return value:  Size  Location     Type
  9844 ;;                  1    wreg      void 
  9845 ;; Registers used:
  9846 ;;		wreg, status,2, status,0, cstack
  9847 ;; Tracked objects:
  9848 ;;		On entry : 0/0
  9849 ;;		On exit  : 0/0
  9850 ;;		Unchanged: 0/0
  9851 ;; Data sizes:     COMRAM   BANK0   BANK1   BANK2   BANK3   BANK4   BANK5   BANK6   BANK7
  9852 ;;      Params:         0       0       0       0       0       0       0       0       0
  9853 ;;      Locals:         0       0       0       0       0       0       0       0       0
  9854 ;;      Temps:          0       0       0       0       0       0       0       0       0
  9855 ;;      Totals:         0       0       0       0       0       0       0       0       0
  9856 ;;Total ram usage:        0 bytes
  9857 ;; Hardware stack levels used:    1
  9858 ;; Hardware stack levels required when called:    3
  9859 ;; This function calls:
  9860 ;;		_lcd_control
  9861 ;; This function is called by:
  9862 ;;		_main
  9863 ;; This function uses a non-reentrant model
  9864 ;;
  9865                           
  9866                           	psect	text40
  9867  0042FC                     __ptext40:
  9868                           	callstack 0
  9869  0042FC                     _lcd_clear_display:
  9870                           	callstack 27
  9871  0042FC                     
  9872                           ;../../Libraries\LCD.h: 80:     lcd_control(0x01);
  9873  0042FC  0E01               	movlw	1
  9874  0042FE  EC0F  F021         	call	_lcd_control
  9875  004302  0012               	return		;funcret
  9876  004304                     __end_of_lcd_clear_display:
  9877                           	callstack 0
  9878                           
  9879 ;; *************** function _lcd_control *****************
  9880 ;; Defined at:
  9881 ;;		line 53 in file "../../Libraries\LCD.h"
  9882 ;; Parameters:    Size  Location     Type
  9883 ;;  dato            1    wreg     unsigned char 
  9884 ;; Auto vars:     Size  Location     Type
  9885 ;;  dato            1    1[COMRAM] unsigned char 
  9886 ;; Return value:  Size  Location     Type
  9887 ;;                  1    wreg      void 
  9888 ;; Registers used:
  9889 ;;		wreg, status,2, status,0, cstack
  9890 ;; Tracked objects:
  9891 ;;		On entry : 0/0
  9892 ;;		On exit  : 0/0
  9893 ;;		Unchanged: 0/0
  9894 ;; Data sizes:     COMRAM   BANK0   BANK1   BANK2   BANK3   BANK4   BANK5   BANK6   BANK7
  9895 ;;      Params:         0       0       0       0       0       0       0       0       0
  9896 ;;      Locals:         1       0       0       0       0       0       0       0       0
  9897 ;;      Temps:          1       0       0       0       0       0       0       0       0
  9898 ;;      Totals:         2       0       0       0       0       0       0       0       0
  9899 ;;Total ram usage:        2 bytes
  9900 ;; Hardware stack levels used:    1
  9901 ;; Hardware stack levels required when called:    2
  9902 ;; This function calls:
  9903 ;;		_lcd_time_control
  9904 ;; This function is called by:
  9905 ;;		_lcd_init
  9906 ;;		_lcd_clear_display
  9907 ;;		_lcd_print_with_position
  9908 ;;		_lcd_goto
  9909 ;;		_lcd_put_caracter
  9910 ;;		_lcd_move_text
  9911 ;;		_lcd_cursor_home
  9912 ;; This function uses a non-reentrant model
  9913 ;;
  9914                           
  9915                           	psect	text41
  9916  00421E                     __ptext41:
  9917                           	callstack 0
  9918  00421E                     _lcd_control:
  9919                           	callstack 27
  9920                           
  9921                           ;incstack = 0
  9922                           ;lcd_control@dato stored from wreg
  9923  00421E  6E02               	movwf	lcd_control@dato^0,c
  9924  004220                     
  9925                           ;../../Libraries\LCD.h: 54:     LATEbits.LATE0 = 0;
  9926  004220  908D               	bcf	141,0,c	;volatile
  9927  004222                     
  9928                           ;../../Libraries\LCD.h: 55:     LATC = dato & 0xF0;
  9929  004222  5002               	movf	lcd_control@dato^0,w,c
  9930  004224  0BF0               	andlw	240
  9931  004226  6E8B               	movwf	139,c	;volatile
  9932  004228                     
  9933                           ;../../Libraries\LCD.h: 56:     lcd_time_control();
  9934  004228  EC5F  F021         	call	_lcd_time_control	;wreg free
  9935  00422C                     
  9936                           ;../../Libraries\LCD.h: 57:     LATC = ((dato & 0x0F) << 4);
  9937  00422C  C002  F001         	movff	lcd_control@dato,??_lcd_control
  9938  004230  0E0F               	movlw	15
  9939  004232  1601               	andwf	??_lcd_control^0,f,c
  9940  004234  3801               	swapf	??_lcd_control^0,w,c
  9941  004236  0BF0               	andlw	240
  9942  004238  6E8B               	movwf	139,c	;volatile
  9943                           
  9944                           ;../../Libraries\LCD.h: 58:     lcd_time_control();
  9945  00423A  EC5F  F021         	call	_lcd_time_control	;wreg free
  9946  00423E                     
  9947                           ;../../Libraries\LCD.h: 59:     _delay((unsigned long)((2)*(8000000/4000.0)));
  9948  00423E  0E06               	movlw	6
  9949  004240  6E01               	movwf	??_lcd_control^0,c
  9950  004242  0E30               	movlw	48
  9951  004244                     u5637:
  9952  004244  2EE8               	decfsz	wreg,f,c
  9953  004246  D7FE               	bra	u5637
  9954  004248  2E01               	decfsz	??_lcd_control^0,f,c
  9955  00424A  D7FC               	bra	u5637
  9956  00424C  D000               	nop2	
  9957  00424E  0012               	return		;funcret
  9958  004250                     __end_of_lcd_control:
  9959                           	callstack 0
  9960                           
  9961 ;; *************** function _lcd_time_control *****************
  9962 ;; Defined at:
  9963 ;;		line 158 in file "../../Libraries\LCD.h"
  9964 ;; Parameters:    Size  Location     Type
  9965 ;;		None
  9966 ;; Auto vars:     Size  Location     Type
  9967 ;;		None
  9968 ;; Return value:  Size  Location     Type
  9969 ;;                  1    wreg      void 
  9970 ;; Registers used:
  9971 ;;		wreg
  9972 ;; Tracked objects:
  9973 ;;		On entry : 0/0
  9974 ;;		On exit  : 0/0
  9975 ;;		Unchanged: 0/0
  9976 ;; Data sizes:     COMRAM   BANK0   BANK1   BANK2   BANK3   BANK4   BANK5   BANK6   BANK7
  9977 ;;      Params:         0       0       0       0       0       0       0       0       0
  9978 ;;      Locals:         0       0       0       0       0       0       0       0       0
  9979 ;;      Temps:          0       0       0       0       0       0       0       0       0
  9980 ;;      Totals:         0       0       0       0       0       0       0       0       0
  9981 ;;Total ram usage:        0 bytes
  9982 ;; Hardware stack levels used:    1
  9983 ;; Hardware stack levels required when called:    1
  9984 ;; This function calls:
  9985 ;;		Nothing
  9986 ;; This function is called by:
  9987 ;;		_lcd_control
  9988 ;;		_lcd_dato
  9989 ;; This function uses a non-reentrant model
  9990 ;;
  9991                           
  9992                           	psect	text42
  9993  0042BE                     __ptext42:
  9994                           	callstack 0
  9995  0042BE                     _lcd_time_control:
  9996                           	callstack 27
  9997  0042BE                     
  9998                           ;../../Libraries\LCD.h: 159:     LATEbits.LATE1 = 1;
  9999  0042BE  828D               	bsf	141,1,c	;volatile
 10000  0042C0                     
 10001                           ;../../Libraries\LCD.h: 160:     _delay((unsigned long)((5)*(8000000/4000000.0)));
 10002  0042C0  0E03               	movlw	3
 10003  0042C2                     u5647:
 10004  0042C2  2EE8               	decfsz	wreg,f,c
 10005  0042C4  D7FE               	bra	u5647
 10006  0042C6  F000               	nop	
 10007  0042C8                     
 10008                           ;../../Libraries\LCD.h: 161:     LATEbits.LATE1 = 0;
 10009  0042C8  928D               	bcf	141,1,c	;volatile
 10010                           
 10011                           ;../../Libraries\LCD.h: 162:     _delay((unsigned long)((5)*(8000000/4000000.0)));
 10012  0042CA  0E03               	movlw	3
 10013  0042CC                     u5657:
 10014  0042CC  2EE8               	decfsz	wreg,f,c
 10015  0042CE  D7FE               	bra	u5657
 10016  0042D0  F000               	nop	
 10017  0042D2  0012               	return		;funcret
 10018  0042D4                     __end_of_lcd_time_control:
 10019                           	callstack 0
 10020                           
 10021 ;; *************** function ___xxtofl *****************
 10022 ;; Defined at:
 10023 ;;		line 10 in file "C:\Program Files\Microchip\xc8\v2.20\pic\sources\c99\common\xxtofl.c"
 10024 ;; Parameters:    Size  Location     Type
 10025 ;;  sign            1    wreg     unsigned char 
 10026 ;;  val             4    6[COMRAM] long 
 10027 ;; Auto vars:     Size  Location     Type
 10028 ;;  sign            1   14[COMRAM] unsigned char 
 10029 ;;  arg             4   16[COMRAM] unsigned long 
 10030 ;;  exp             1   15[COMRAM] unsigned char 
 10031 ;; Return value:  Size  Location     Type
 10032 ;;                  4    6[COMRAM] unsigned char 
 10033 ;; Registers used:
 10034 ;;		wreg, status,2, status,0
 10035 ;; Tracked objects:
 10036 ;;		On entry : 0/0
 10037 ;;		On exit  : 0/0
 10038 ;;		Unchanged: 0/0
 10039 ;; Data sizes:     COMRAM   BANK0   BANK1   BANK2   BANK3   BANK4   BANK5   BANK6   BANK7
 10040 ;;      Params:         4       0       0       0       0       0       0       0       0
 10041 ;;      Locals:         6       0       0       0       0       0       0       0       0
 10042 ;;      Temps:          4       0       0       0       0       0       0       0       0
 10043 ;;      Totals:        14       0       0       0       0       0       0       0       0
 10044 ;;Total ram usage:       14 bytes
 10045 ;; Hardware stack levels used:    1
 10046 ;; Hardware stack levels required when called:    1
 10047 ;; This function calls:
 10048 ;;		Nothing
 10049 ;; This function is called by:
 10050 ;;		_main
 10051 ;; This function uses a non-reentrant model
 10052 ;;
 10053                           
 10054                           	psect	text43
 10055  002EE2                     __ptext43:
 10056                           	callstack 0
 10057  002EE2                     ___xxtofl:
 10058                           	callstack 29
 10059                           
 10060                           ;incstack = 0
 10061                           ;___xxtofl@sign stored from wreg
 10062  002EE2  6E0F               	movwf	___xxtofl@sign^0,c
 10063  002EE4  500F               	movf	___xxtofl@sign^0,w,c
 10064  002EE6  B4D8               	btfsc	status,2,c
 10065  002EE8  EF78  F017         	goto	u5471
 10066  002EEC  EF7A  F017         	goto	u5470
 10067  002EF0                     u5471:
 10068  002EF0  EF9C  F017         	goto	l786
 10069  002EF4                     u5470:
 10070  002EF4  BE0A               	btfsc	(___xxtofl@val+3)^0,7,c
 10071  002EF6  EF81  F017         	goto	u5480
 10072  002EFA  EF7F  F017         	goto	u5481
 10073  002EFE                     u5481:
 10074  002EFE  EF9C  F017         	goto	l786
 10075  002F02                     u5480:
 10076  002F02  C007  F00B         	movff	___xxtofl@val,??___xxtofl
 10077  002F06  C008  F00C         	movff	___xxtofl@val+1,??___xxtofl+1
 10078  002F0A  C009  F00D         	movff	___xxtofl@val+2,??___xxtofl+2
 10079  002F0E  C00A  F00E         	movff	___xxtofl@val+3,??___xxtofl+3
 10080  002F12  1E0B               	comf	??___xxtofl^0,f,c
 10081  002F14  1E0C               	comf	(??___xxtofl+1)^0,f,c
 10082  002F16  1E0D               	comf	(??___xxtofl+2)^0,f,c
 10083  002F18  1E0E               	comf	(??___xxtofl+3)^0,f,c
 10084  002F1A  2A0B               	incf	??___xxtofl^0,f,c
 10085  002F1C  0E00               	movlw	0
 10086  002F1E  220C               	addwfc	(??___xxtofl+1)^0,f,c
 10087  002F20  220D               	addwfc	(??___xxtofl+2)^0,f,c
 10088  002F22  220E               	addwfc	(??___xxtofl+3)^0,f,c
 10089  002F24  C00B  F011         	movff	??___xxtofl,___xxtofl@arg
 10090  002F28  C00C  F012         	movff	??___xxtofl+1,___xxtofl@arg+1
 10091  002F2C  C00D  F013         	movff	??___xxtofl+2,___xxtofl@arg+2
 10092  002F30  C00E  F014         	movff	??___xxtofl+3,___xxtofl@arg+3
 10093  002F34  EFA4  F017         	goto	l4471
 10094  002F38                     l786:
 10095  002F38  C007  F011         	movff	___xxtofl@val,___xxtofl@arg
 10096  002F3C  C008  F012         	movff	___xxtofl@val+1,___xxtofl@arg+1
 10097  002F40  C009  F013         	movff	___xxtofl@val+2,___xxtofl@arg+2
 10098  002F44  C00A  F014         	movff	___xxtofl@val+3,___xxtofl@arg+3
 10099  002F48                     l4471:
 10100  002F48  5007               	movf	___xxtofl@val^0,w,c
 10101  002F4A  1008               	iorwf	(___xxtofl@val+1)^0,w,c
 10102  002F4C  1009               	iorwf	(___xxtofl@val+2)^0,w,c
 10103  002F4E  100A               	iorwf	(___xxtofl@val+3)^0,w,c
 10104  002F50  A4D8               	btfss	status,2,c
 10105  002F52  EFAD  F017         	goto	u5491
 10106  002F56  EFAF  F017         	goto	u5490
 10107  002F5A                     u5491:
 10108  002F5A  EFB9  F017         	goto	l4477
 10109  002F5E                     u5490:
 10110  002F5E  0E00               	movlw	0
 10111  002F60  6E07               	movwf	?___xxtofl^0,c
 10112  002F62  0E00               	movlw	0
 10113  002F64  6E08               	movwf	(?___xxtofl+1)^0,c
 10114  002F66  0E00               	movlw	0
 10115  002F68  6E09               	movwf	(?___xxtofl+2)^0,c
 10116  002F6A  0E00               	movlw	0
 10117  002F6C  6E0A               	movwf	(?___xxtofl+3)^0,c
 10118  002F6E  EF4A  F018         	goto	l789
 10119  002F72                     l4477:
 10120  002F72  0E96               	movlw	150
 10121  002F74  6E10               	movwf	___xxtofl@exp^0,c
 10122  002F76  EFC3  F017         	goto	l4481
 10123  002F7A                     l4479:
 10124  002F7A  2A10               	incf	___xxtofl@exp^0,f,c
 10125  002F7C  90D8               	bcf	status,0,c
 10126  002F7E  3214               	rrcf	(___xxtofl@arg+3)^0,f,c
 10127  002F80  3213               	rrcf	(___xxtofl@arg+2)^0,f,c
 10128  002F82  3212               	rrcf	(___xxtofl@arg+1)^0,f,c
 10129  002F84  3211               	rrcf	___xxtofl@arg^0,f,c
 10130  002F86                     l4481:
 10131  002F86  0E00               	movlw	0
 10132  002F88  1411               	andwf	___xxtofl@arg^0,w,c
 10133  002F8A  6E0B               	movwf	??___xxtofl^0,c
 10134  002F8C  0E00               	movlw	0
 10135  002F8E  1412               	andwf	(___xxtofl@arg+1)^0,w,c
 10136  002F90  6E0C               	movwf	(??___xxtofl+1)^0,c
 10137  002F92  0E00               	movlw	0
 10138  002F94  1413               	andwf	(___xxtofl@arg+2)^0,w,c
 10139  002F96  6E0D               	movwf	(??___xxtofl+2)^0,c
 10140  002F98  0EFE               	movlw	254
 10141  002F9A  1414               	andwf	(___xxtofl@arg+3)^0,w,c
 10142  002F9C  6E0E               	movwf	(??___xxtofl+3)^0,c
 10143  002F9E  500B               	movf	??___xxtofl^0,w,c
 10144  002FA0  100C               	iorwf	(??___xxtofl+1)^0,w,c
 10145  002FA2  100D               	iorwf	(??___xxtofl+2)^0,w,c
 10146  002FA4  100E               	iorwf	(??___xxtofl+3)^0,w,c
 10147  002FA6  A4D8               	btfss	status,2,c
 10148  002FA8  EFD8  F017         	goto	u5501
 10149  002FAC  EFDA  F017         	goto	u5500
 10150  002FB0                     u5501:
 10151  002FB0  EFBD  F017         	goto	l4479
 10152  002FB4                     u5500:
 10153  002FB4  EFE8  F017         	goto	l793
 10154  002FB8                     l4483:
 10155  002FB8  2A10               	incf	___xxtofl@exp^0,f,c
 10156  002FBA  0E01               	movlw	1
 10157  002FBC  2611               	addwf	___xxtofl@arg^0,f,c
 10158  002FBE  0E00               	movlw	0
 10159  002FC0  2212               	addwfc	(___xxtofl@arg+1)^0,f,c
 10160  002FC2  2213               	addwfc	(___xxtofl@arg+2)^0,f,c
 10161  002FC4  2214               	addwfc	(___xxtofl@arg+3)^0,f,c
 10162  002FC6  90D8               	bcf	status,0,c
 10163  002FC8  3214               	rrcf	(___xxtofl@arg+3)^0,f,c
 10164  002FCA  3213               	rrcf	(___xxtofl@arg+2)^0,f,c
 10165  002FCC  3212               	rrcf	(___xxtofl@arg+1)^0,f,c
 10166  002FCE  3211               	rrcf	___xxtofl@arg^0,f,c
 10167  002FD0                     l793:
 10168  002FD0  0E00               	movlw	0
 10169  002FD2  1411               	andwf	___xxtofl@arg^0,w,c
 10170  002FD4  6E0B               	movwf	??___xxtofl^0,c
 10171  002FD6  0E00               	movlw	0
 10172  002FD8  1412               	andwf	(___xxtofl@arg+1)^0,w,c
 10173  002FDA  6E0C               	movwf	(??___xxtofl+1)^0,c
 10174  002FDC  0E00               	movlw	0
 10175  002FDE  1413               	andwf	(___xxtofl@arg+2)^0,w,c
 10176  002FE0  6E0D               	movwf	(??___xxtofl+2)^0,c
 10177  002FE2  0EFF               	movlw	255
 10178  002FE4  1414               	andwf	(___xxtofl@arg+3)^0,w,c
 10179  002FE6  6E0E               	movwf	(??___xxtofl+3)^0,c
 10180  002FE8  500B               	movf	??___xxtofl^0,w,c
 10181  002FEA  100C               	iorwf	(??___xxtofl+1)^0,w,c
 10182  002FEC  100D               	iorwf	(??___xxtofl+2)^0,w,c
 10183  002FEE  100E               	iorwf	(??___xxtofl+3)^0,w,c
 10184  002FF0  A4D8               	btfss	status,2,c
 10185  002FF2  EFFD  F017         	goto	u5511
 10186  002FF6  EFFF  F017         	goto	u5510
 10187  002FFA                     u5511:
 10188  002FFA  EFDC  F017         	goto	l4483
 10189  002FFE                     u5510:
 10190  002FFE  EF07  F018         	goto	l4491
 10191  003002                     l4489:
 10192  003002  0610               	decf	___xxtofl@exp^0,f,c
 10193  003004  90D8               	bcf	status,0,c
 10194  003006  3611               	rlcf	___xxtofl@arg^0,f,c
 10195  003008  3612               	rlcf	(___xxtofl@arg+1)^0,f,c
 10196  00300A  3613               	rlcf	(___xxtofl@arg+2)^0,f,c
 10197  00300C  3614               	rlcf	(___xxtofl@arg+3)^0,f,c
 10198  00300E                     l4491:
 10199  00300E  BE13               	btfsc	(___xxtofl@arg+2)^0,7,c
 10200  003010  EF0C  F018         	goto	u5521
 10201  003014  EF0E  F018         	goto	u5520
 10202  003018                     u5521:
 10203  003018  EF16  F018         	goto	l800
 10204  00301C                     u5520:
 10205  00301C  0E02               	movlw	2
 10206  00301E  6010               	cpfslt	___xxtofl@exp^0,c
 10207  003020  EF14  F018         	goto	u5531
 10208  003024  EF16  F018         	goto	u5530
 10209  003028                     u5531:
 10210  003028  EF01  F018         	goto	l4489
 10211  00302C                     u5530:
 10212  00302C                     l800:
 10213  00302C  B010               	btfsc	___xxtofl@exp^0,0,c
 10214  00302E  EF1B  F018         	goto	u5541
 10215  003032  EF1D  F018         	goto	u5540
 10216  003036                     u5541:
 10217  003036  EF1E  F018         	goto	l4497
 10218  00303A                     u5540:
 10219  00303A  9E13               	bcf	(___xxtofl@arg+2)^0,7,c
 10220  00303C                     l4497:
 10221  00303C  90D8               	bcf	status,0,c
 10222  00303E  3210               	rrcf	___xxtofl@exp^0,f,c
 10223  003040  C010  F00B         	movff	___xxtofl@exp,??___xxtofl
 10224  003044  6A0C               	clrf	(??___xxtofl+1)^0,c
 10225  003046  6A0D               	clrf	(??___xxtofl+2)^0,c
 10226  003048  6A0E               	clrf	(??___xxtofl+3)^0,c
 10227  00304A  C00B  F00E         	movff	??___xxtofl,??___xxtofl+3
 10228  00304E  6A0D               	clrf	(??___xxtofl+2)^0,c
 10229  003050  6A0C               	clrf	(??___xxtofl+1)^0,c
 10230  003052  6A0B               	clrf	??___xxtofl^0,c
 10231  003054  500B               	movf	??___xxtofl^0,w,c
 10232  003056  1211               	iorwf	___xxtofl@arg^0,f,c
 10233  003058  500C               	movf	(??___xxtofl+1)^0,w,c
 10234  00305A  1212               	iorwf	(___xxtofl@arg+1)^0,f,c
 10235  00305C  500D               	movf	(??___xxtofl+2)^0,w,c
 10236  00305E  1213               	iorwf	(___xxtofl@arg+2)^0,f,c
 10237  003060  500E               	movf	(??___xxtofl+3)^0,w,c
 10238  003062  1214               	iorwf	(___xxtofl@arg+3)^0,f,c
 10239  003064  500F               	movf	___xxtofl@sign^0,w,c
 10240  003066  B4D8               	btfsc	status,2,c
 10241  003068  EF38  F018         	goto	u5551
 10242  00306C  EF3A  F018         	goto	u5550
 10243  003070                     u5551:
 10244  003070  EF42  F018         	goto	l4507
 10245  003074                     u5550:
 10246  003074  BE0A               	btfsc	(___xxtofl@val+3)^0,7,c
 10247  003076  EF41  F018         	goto	u5560
 10248  00307A  EF3F  F018         	goto	u5561
 10249  00307E                     u5561:
 10250  00307E  EF42  F018         	goto	l4507
 10251  003082                     u5560:
 10252  003082  8E14               	bsf	(___xxtofl@arg+3)^0,7,c
 10253  003084                     l4507:
 10254  003084  C011  F007         	movff	___xxtofl@arg,?___xxtofl
 10255  003088  C012  F008         	movff	___xxtofl@arg+1,?___xxtofl+1
 10256  00308C  C013  F009         	movff	___xxtofl@arg+2,?___xxtofl+2
 10257  003090  C014  F00A         	movff	___xxtofl@arg+3,?___xxtofl+3
 10258  003094                     l789:
 10259  003094  0012               	return		;funcret
 10260  003096                     __end_of___xxtofl:
 10261                           	callstack 0
 10262                           
 10263 ;; *************** function _Port_Init *****************
 10264 ;; Defined at:
 10265 ;;		line 32 in file "newmain.c"
 10266 ;; Parameters:    Size  Location     Type
 10267 ;;		None
 10268 ;; Auto vars:     Size  Location     Type
 10269 ;;		None
 10270 ;; Return value:  Size  Location     Type
 10271 ;;                  1    wreg      void 
 10272 ;; Registers used:
 10273 ;;		wreg, status,2
 10274 ;; Tracked objects:
 10275 ;;		On entry : 0/0
 10276 ;;		On exit  : 0/0
 10277 ;;		Unchanged: 0/0
 10278 ;; Data sizes:     COMRAM   BANK0   BANK1   BANK2   BANK3   BANK4   BANK5   BANK6   BANK7
 10279 ;;      Params:         0       0       0       0       0       0       0       0       0
 10280 ;;      Locals:         0       0       0       0       0       0       0       0       0
 10281 ;;      Temps:          0       0       0       0       0       0       0       0       0
 10282 ;;      Totals:         0       0       0       0       0       0       0       0       0
 10283 ;;Total ram usage:        0 bytes
 10284 ;; Hardware stack levels used:    1
 10285 ;; Hardware stack levels required when called:    1
 10286 ;; This function calls:
 10287 ;;		Nothing
 10288 ;; This function is called by:
 10289 ;;		_main
 10290 ;; This function uses a non-reentrant model
 10291 ;;
 10292                           
 10293                           	psect	text44
 10294  0042D4                     __ptext44:
 10295                           	callstack 0
 10296  0042D4                     _Port_Init:
 10297                           	callstack 29
 10298  0042D4                     
 10299                           ;newmain.c: 33:     OSCCONbits.IRCF=0b111;
 10300  0042D4  0E70               	movlw	112
 10301  0042D6  12D3               	iorwf	211,f,c	;volatile
 10302                           
 10303                           ;newmain.c: 34:     TRISA=0;
 10304  0042D8  0E00               	movlw	0
 10305  0042DA  6E92               	movwf	146,c	;volatile
 10306                           
 10307                           ;newmain.c: 35:     TRISB=0b00000011;
 10308  0042DC  0E03               	movlw	3
 10309  0042DE  6E93               	movwf	147,c	;volatile
 10310                           
 10311                           ;newmain.c: 36:     PORTA=0;
 10312  0042E0  0E00               	movlw	0
 10313  0042E2  6E80               	movwf	128,c	;volatile
 10314                           
 10315                           ;newmain.c: 37:     PORTB=0;
 10316  0042E4  0E00               	movlw	0
 10317  0042E6  6E81               	movwf	129,c	;volatile
 10318  0042E8  0012               	return		;funcret
 10319  0042EA                     __end_of_Port_Init:
 10320                           	callstack 0
 10321                           
 10322 ;; *************** function _ExtInt_Init *****************
 10323 ;; Defined at:
 10324 ;;		line 16 in file "newmain.c"
 10325 ;; Parameters:    Size  Location     Type
 10326 ;;		None
 10327 ;; Auto vars:     Size  Location     Type
 10328 ;;		None
 10329 ;; Return value:  Size  Location     Type
 10330 ;;                  1    wreg      void 
 10331 ;; Registers used:
 10332 ;;		None
 10333 ;; Tracked objects:
 10334 ;;		On entry : 0/0
 10335 ;;		On exit  : 0/0
 10336 ;;		Unchanged: 0/0
 10337 ;; Data sizes:     COMRAM   BANK0   BANK1   BANK2   BANK3   BANK4   BANK5   BANK6   BANK7
 10338 ;;      Params:         0       0       0       0       0       0       0       0       0
 10339 ;;      Locals:         0       0       0       0       0       0       0       0       0
 10340 ;;      Temps:          0       0       0       0       0       0       0       0       0
 10341 ;;      Totals:         0       0       0       0       0       0       0       0       0
 10342 ;;Total ram usage:        0 bytes
 10343 ;; Hardware stack levels used:    1
 10344 ;; Hardware stack levels required when called:    1
 10345 ;; This function calls:
 10346 ;;		Nothing
 10347 ;; This function is called by:
 10348 ;;		_main
 10349 ;; This function uses a non-reentrant model
 10350 ;;
 10351                           
 10352                           	psect	text45
 10353  0042EA                     __ptext45:
 10354                           	callstack 0
 10355  0042EA                     _ExtInt_Init:
 10356                           	callstack 29
 10357  0042EA                     
 10358                           ;newmain.c: 17:     INTCONbits.GIE=1;
 10359  0042EA  8EF2               	bsf	242,7,c	;volatile
 10360                           
 10361                           ;newmain.c: 18:     INTCON2bits.INTEDG0=1;
 10362  0042EC  8CF1               	bsf	241,6,c	;volatile
 10363                           
 10364                           ;newmain.c: 19:     INTCONbits.INT0IF=0;
 10365  0042EE  92F2               	bcf	242,1,c	;volatile
 10366                           
 10367                           ;newmain.c: 20:     INTCONbits.INT0IE=1;
 10368  0042F0  88F2               	bsf	242,4,c	;volatile
 10369  0042F2  0012               	return		;funcret
 10370  0042F4                     __end_of_ExtInt_Init:
 10371                           	callstack 0
 10372                           
 10373 ;; *************** function _ADCon_Init *****************
 10374 ;; Defined at:
 10375 ;;		line 23 in file "newmain.c"
 10376 ;; Parameters:    Size  Location     Type
 10377 ;;		None
 10378 ;; Auto vars:     Size  Location     Type
 10379 ;;		None
 10380 ;; Return value:  Size  Location     Type
 10381 ;;                  1    wreg      void 
 10382 ;; Registers used:
 10383 ;;		wreg, status,2
 10384 ;; Tracked objects:
 10385 ;;		On entry : 0/0
 10386 ;;		On exit  : 0/0
 10387 ;;		Unchanged: 0/0
 10388 ;; Data sizes:     COMRAM   BANK0   BANK1   BANK2   BANK3   BANK4   BANK5   BANK6   BANK7
 10389 ;;      Params:         0       0       0       0       0       0       0       0       0
 10390 ;;      Locals:         0       0       0       0       0       0       0       0       0
 10391 ;;      Temps:          0       0       0       0       0       0       0       0       0
 10392 ;;      Totals:         0       0       0       0       0       0       0       0       0
 10393 ;;Total ram usage:        0 bytes
 10394 ;; Hardware stack levels used:    1
 10395 ;; Hardware stack levels required when called:    1
 10396 ;; This function calls:
 10397 ;;		Nothing
 10398 ;; This function is called by:
 10399 ;;		_main
 10400 ;; This function uses a non-reentrant model
 10401 ;;
 10402                           
 10403                           	psect	text46
 10404  0042A0                     __ptext46:
 10405                           	callstack 0
 10406  0042A0                     _ADCon_Init:
 10407                           	callstack 29
 10408  0042A0                     
 10409                           ;newmain.c: 24:     ADCON1=0b00001110;
 10410  0042A0  0E0E               	movlw	14
 10411  0042A2  6EC1               	movwf	193,c	;volatile
 10412  0042A4                     
 10413                           ;newmain.c: 25:     ADCON0bits.ADON=1;
 10414  0042A4  80C2               	bsf	194,0,c	;volatile
 10415                           
 10416                           ;newmain.c: 26:     ADCON2bits.ACQT=4;
 10417  0042A6  50C0               	movf	192,w,c	;volatile
 10418  0042A8  0BC7               	andlw	-57
 10419  0042AA  0920               	iorlw	32
 10420  0042AC  6EC0               	movwf	192,c	;volatile
 10421                           
 10422                           ;newmain.c: 27:     ADCON2bits.ADCS=1;
 10423  0042AE  50C0               	movf	192,w,c	;volatile
 10424  0042B0  0BF8               	andlw	-8
 10425  0042B2  0901               	iorlw	1
 10426  0042B4  6EC0               	movwf	192,c	;volatile
 10427  0042B6                     
 10428                           ;newmain.c: 28:     ADCON2bits.ADFM=1;
 10429  0042B6  8EC0               	bsf	192,7,c	;volatile
 10430                           
 10431                           ;newmain.c: 29:     ADCON0bits.CHS=0x00;
 10432  0042B8  0EC3               	movlw	-61
 10433  0042BA  16C2               	andwf	194,f,c	;volatile
 10434  0042BC  0012               	return		;funcret
 10435  0042BE                     __end_of_ADCon_Init:
 10436                           	callstack 0
 10437                           
 10438 ;; *************** function _ISR *****************
 10439 ;; Defined at:
 10440 ;;		line 89 in file "newmain.c"
 10441 ;; Parameters:    Size  Location     Type
 10442 ;;		None
 10443 ;; Auto vars:     Size  Location     Type
 10444 ;;		None
 10445 ;; Return value:  Size  Location     Type
 10446 ;;                  1    wreg      void 
 10447 ;; Registers used:
 10448 ;;		wreg, status,2, status,0
 10449 ;; Tracked objects:
 10450 ;;		On entry : 0/0
 10451 ;;		On exit  : 0/0
 10452 ;;		Unchanged: 0/0
 10453 ;; Data sizes:     COMRAM   BANK0   BANK1   BANK2   BANK3   BANK4   BANK5   BANK6   BANK7
 10454 ;;      Params:         0       0       0       0       0       0       0       0       0
 10455 ;;      Locals:         0       0       0       0       0       0       0       0       0
 10456 ;;      Temps:          0       0       0       0       0       0       0       0       0
 10457 ;;      Totals:         0       0       0       0       0       0       0       0       0
 10458 ;;Total ram usage:        0 bytes
 10459 ;; Hardware stack levels used:    1
 10460 ;; This function calls:
 10461 ;;		Nothing
 10462 ;; This function is called by:
 10463 ;;		Interrupt level 2
 10464 ;; This function uses a non-reentrant model
 10465 ;;
 10466                           
 10467                           	psect	intcode
 10468  000008                     __pintcode:
 10469                           	callstack 0
 10470  000008                     _ISR:
 10471                           	callstack 22
 10472                           
 10473                           ;incstack = 0
 10474  000008  825F               	bsf	int$flags,1,c	;set compiler interrupt flag (level 2)
 10475  00000A  ED42  F020         	call	int_func,f	;refresh shadow registers
 10476                           
 10477                           	psect	intcode_body
 10478  004084                     __pintcode_body:
 10479                           	callstack 22
 10480  004084                     int_func:
 10481                           	callstack 22
 10482  004084  0006               	pop		; remove dummy address from shadow register refresh
 10483  004086                     
 10484                           ;newmain.c: 90:     if(INTCONbits.INT0IF==1){
 10485  004086  A2F2               	btfss	242,1,c	;volatile
 10486  004088  EF48  F020         	goto	i2u559_41
 10487  00408C  EF4A  F020         	goto	i2u559_40
 10488  004090                     i2u559_41:
 10489  004090  EF62  F020         	goto	i2l128
 10490  004094                     i2u559_40:
 10491  004094                     
 10492                           ;newmain.c: 91:         if(flag<2){
 10493  004094  0100               	movlb	0	; () banked
 10494  004096  BFFE               	btfsc	(_flag+1)& (0+255),7,b
 10495  004098  EF59  F020         	goto	i2u560_40
 10496  00409C  51FE               	movf	(_flag+1)& (0+255),w,b
 10497  00409E  E107               	bnz	i2u560_41
 10498  0040A0  0E02               	movlw	2
 10499  0040A2  5DFD               	subwf	_flag& (0+255),w,b
 10500  0040A4  B0D8               	btfsc	status,0,c
 10501  0040A6  EF57  F020         	goto	i2u560_41
 10502  0040AA  EF59  F020         	goto	i2u560_40
 10503  0040AE                     i2u560_41:
 10504  0040AE  EF5D  F020         	goto	i2l4587
 10505  0040B2                     i2u560_40:
 10506  0040B2                     
 10507                           ; BSR set to: 0
 10508                           ;newmain.c: 92:             flag++;
 10509  0040B2  4BFD               	infsnz	_flag& (0+255),f,b
 10510  0040B4  2BFE               	incf	(_flag+1)& (0+255),f,b
 10511                           
 10512                           ;newmain.c: 93:         }else{
 10513  0040B6  EF61  F020         	goto	i2l4589
 10514  0040BA                     i2l4587:
 10515                           
 10516                           ; BSR set to: 0
 10517                           ;newmain.c: 94:             flag=0;
 10518  0040BA  0E00               	movlw	0
 10519  0040BC  6FFE               	movwf	(_flag+1)& (0+255),b
 10520  0040BE  0E00               	movlw	0
 10521  0040C0  6FFD               	movwf	_flag& (0+255),b
 10522  0040C2                     i2l4589:
 10523                           
 10524                           ; BSR set to: 0
 10525                           ;newmain.c: 96:         INTCONbits.INT0IF=0;
 10526  0040C2  92F2               	bcf	242,1,c	;volatile
 10527  0040C4                     i2l128:
 10528  0040C4  925F               	bcf	int$flags,1,c	;clear compiler interrupt flag (level 2)
 10529  0040C6  0011               	retfie		f
 10530  0040C8                     __end_of_ISR:
 10531                           	callstack 0
 10532                           
 10533                           	psect	rparam
 10534  0000                     
 10535                           	psect	temp
 10536  00005F                     btemp:
 10537                           	callstack 0
 10538  00005F                     	ds	1
 10539  0000                     int$flags	set	btemp
 10540  0000                     wtemp8	set	btemp+1
 10541  0000                     ttemp5	set	btemp+1
 10542  0000                     ttemp6	set	btemp+4
 10543  0000                     ttemp7	set	btemp+8
 10544                           
 10545                           	psect	idloc
 10546                           
 10547                           ;Config register IDLOC0 @ 0x200000
 10548                           ;	unspecified, using default values
 10549  200000                     	org	2097152
 10550  200000  FF                 	db	255
 10551                           
 10552                           ;Config register IDLOC1 @ 0x200001
 10553                           ;	unspecified, using default values
 10554  200001                     	org	2097153
 10555  200001  FF                 	db	255
 10556                           
 10557                           ;Config register IDLOC2 @ 0x200002
 10558                           ;	unspecified, using default values
 10559  200002                     	org	2097154
 10560  200002  FF                 	db	255
 10561                           
 10562                           ;Config register IDLOC3 @ 0x200003
 10563                           ;	unspecified, using default values
 10564  200003                     	org	2097155
 10565  200003  FF                 	db	255
 10566                           
 10567                           ;Config register IDLOC4 @ 0x200004
 10568                           ;	unspecified, using default values
 10569  200004                     	org	2097156
 10570  200004  FF                 	db	255
 10571                           
 10572                           ;Config register IDLOC5 @ 0x200005
 10573                           ;	unspecified, using default values
 10574  200005                     	org	2097157
 10575  200005  FF                 	db	255
 10576                           
 10577                           ;Config register IDLOC6 @ 0x200006
 10578                           ;	unspecified, using default values
 10579  200006                     	org	2097158
 10580  200006  FF                 	db	255
 10581                           
 10582                           ;Config register IDLOC7 @ 0x200007
 10583                           ;	unspecified, using default values
 10584  200007                     	org	2097159
 10585  200007  FF                 	db	255
 10586                           
 10587                           	psect	config
 10588                           
 10589                           ;Config register CONFIG1L @ 0x300000
 10590                           ;	unspecified, using default values
 10591                           ;	PLL Prescaler Selection bits
 10592                           ;	PLLDIV = 0x0, unprogrammed default
 10593                           ;	System Clock Postscaler Selection bits
 10594                           ;	CPUDIV = 0x0, unprogrammed default
 10595                           ;	USB Clock Selection bit (used in Full-Speed USB mode only; UCFG:FSEN = 1)
 10596                           ;	USBDIV = 0x0, unprogrammed default
 10597  300000                     	org	3145728
 10598  300000  00                 	db	0
 10599                           
 10600                           ;Config register CONFIG1H @ 0x300001
 10601                           ;	Oscillator Selection bits
 10602                           ;	FOSC = INTOSCIO_EC, Internal oscillator, port function on RA6, EC used by USB (INTIO)
 10603                           ;	Fail-Safe Clock Monitor Enable bit
 10604                           ;	FCMEN = 0x0, unprogrammed default
 10605                           ;	Internal/External Oscillator Switchover bit
 10606                           ;	IESO = 0x0, unprogrammed default
 10607  300001                     	org	3145729
 10608  300001  08                 	db	8
 10609                           
 10610                           ;Config register CONFIG2L @ 0x300002
 10611                           ;	unspecified, using default values
 10612                           ;	Power-up Timer Enable bit
 10613                           ;	PWRT = 0x1, unprogrammed default
 10614                           ;	Brown-out Reset Enable bits
 10615                           ;	BOR = 0x3, unprogrammed default
 10616                           ;	Brown-out Reset Voltage bits
 10617                           ;	BORV = 0x3, unprogrammed default
 10618                           ;	USB Voltage Regulator Enable bit
 10619                           ;	VREGEN = 0x0, unprogrammed default
 10620  300002                     	org	3145730
 10621  300002  1F                 	db	31
 10622                           
 10623                           ;Config register CONFIG2H @ 0x300003
 10624                           ;	unspecified, using default values
 10625                           ;	Watchdog Timer Enable bit
 10626                           ;	WDT = 0x1, unprogrammed default
 10627                           ;	Watchdog Timer Postscale Select bits
 10628                           ;	WDTPS = 0xF, unprogrammed default
 10629  300003                     	org	3145731
 10630  300003  1F                 	db	31
 10631                           
 10632                           ; Padding undefined space
 10633  300004                     	org	3145732
 10634  300004  FF                 	db	255
 10635                           
 10636                           ;Config register CONFIG3H @ 0x300005
 10637                           ;	unspecified, using default values
 10638                           ;	CCP2 MUX bit
 10639                           ;	CCP2MX = 0x1, unprogrammed default
 10640                           ;	PORTB A/D Enable bit
 10641                           ;	PBADEN = 0x1, unprogrammed default
 10642                           ;	Low-Power Timer 1 Oscillator Enable bit
 10643                           ;	LPT1OSC = 0x0, unprogrammed default
 10644                           ;	MCLR Pin Enable bit
 10645                           ;	MCLRE = 0x1, unprogrammed default
 10646  300005                     	org	3145733
 10647  300005  83                 	db	131
 10648                           
 10649                           ;Config register CONFIG4L @ 0x300006
 10650                           ;	unspecified, using default values
 10651                           ;	Stack Full/Underflow Reset Enable bit
 10652                           ;	STVREN = 0x1, unprogrammed default
 10653                           ;	Single-Supply ICSP Enable bit
 10654                           ;	LVP = 0x1, unprogrammed default
 10655                           ;	Dedicated In-Circuit Debug/Programming Port (ICPORT) Enable bit
 10656                           ;	ICPRT = 0x0, unprogrammed default
 10657                           ;	Extended Instruction Set Enable bit
 10658                           ;	XINST = 0x0, unprogrammed default
 10659                           ;	Background Debugger Enable bit
 10660                           ;	DEBUG = 0x1, unprogrammed default
 10661  300006                     	org	3145734
 10662  300006  85                 	db	133
 10663                           
 10664                           ; Padding undefined space
 10665  300007                     	org	3145735
 10666  300007  FF                 	db	255
 10667                           
 10668                           ;Config register CONFIG5L @ 0x300008
 10669                           ;	unspecified, using default values
 10670                           ;	Code Protection bit
 10671                           ;	CP0 = 0x1, unprogrammed default
 10672                           ;	Code Protection bit
 10673                           ;	CP1 = 0x1, unprogrammed default
 10674                           ;	Code Protection bit
 10675                           ;	CP2 = 0x1, unprogrammed default
 10676                           ;	Code Protection bit
 10677                           ;	CP3 = 0x1, unprogrammed default
 10678  300008                     	org	3145736
 10679  300008  0F                 	db	15
 10680                           
 10681                           ;Config register CONFIG5H @ 0x300009
 10682                           ;	unspecified, using default values
 10683                           ;	Boot Block Code Protection bit
 10684                           ;	CPB = 0x1, unprogrammed default
 10685                           ;	Data EEPROM Code Protection bit
 10686                           ;	CPD = 0x1, unprogrammed default
 10687  300009                     	org	3145737
 10688  300009  C0                 	db	192
 10689                           
 10690                           ;Config register CONFIG6L @ 0x30000A
 10691                           ;	unspecified, using default values
 10692                           ;	Write Protection bit
 10693                           ;	WRT0 = 0x1, unprogrammed default
 10694                           ;	Write Protection bit
 10695                           ;	WRT1 = 0x1, unprogrammed default
 10696                           ;	Write Protection bit
 10697                           ;	WRT2 = 0x1, unprogrammed default
 10698                           ;	Write Protection bit
 10699                           ;	WRT3 = 0x1, unprogrammed default
 10700  30000A                     	org	3145738
 10701  30000A  0F                 	db	15
 10702                           
 10703                           ;Config register CONFIG6H @ 0x30000B
 10704                           ;	unspecified, using default values
 10705                           ;	Configuration Register Write Protection bit
 10706                           ;	WRTC = 0x1, unprogrammed default
 10707                           ;	Boot Block Write Protection bit
 10708                           ;	WRTB = 0x1, unprogrammed default
 10709                           ;	Data EEPROM Write Protection bit
 10710                           ;	WRTD = 0x1, unprogrammed default
 10711  30000B                     	org	3145739
 10712  30000B  E0                 	db	224
 10713                           
 10714                           ;Config register CONFIG7L @ 0x30000C
 10715                           ;	unspecified, using default values
 10716                           ;	Table Read Protection bit
 10717                           ;	EBTR0 = 0x1, unprogrammed default
 10718                           ;	Table Read Protection bit
 10719                           ;	EBTR1 = 0x1, unprogrammed default
 10720                           ;	Table Read Protection bit
 10721                           ;	EBTR2 = 0x1, unprogrammed default
 10722                           ;	Table Read Protection bit
 10723                           ;	EBTR3 = 0x1, unprogrammed default
 10724  30000C                     	org	3145740
 10725  30000C  0F                 	db	15
 10726                           
 10727                           ;Config register CONFIG7H @ 0x30000D
 10728                           ;	unspecified, using default values
 10729                           ;	Boot Block Table Read Protection bit
 10730                           ;	EBTRB = 0x1, unprogrammed default
 10731  30000D                     	org	3145741
 10732  30000D  40                 	db	64
 10733                           tosu	equ	0xFFF
 10734                           tosh	equ	0xFFE
 10735                           tosl	equ	0xFFD
 10736                           stkptr	equ	0xFFC
 10737                           pclatu	equ	0xFFB
 10738                           pclath	equ	0xFFA
 10739                           pcl	equ	0xFF9
 10740                           tblptru	equ	0xFF8
 10741                           tblptrh	equ	0xFF7
 10742                           tblptrl	equ	0xFF6
 10743                           tablat	equ	0xFF5
 10744                           prodh	equ	0xFF4
 10745                           prodl	equ	0xFF3
 10746                           indf0	equ	0xFEF
 10747                           postinc0	equ	0xFEE
 10748                           postdec0	equ	0xFED
 10749                           preinc0	equ	0xFEC
 10750                           plusw0	equ	0xFEB
 10751                           fsr0h	equ	0xFEA
 10752                           fsr0l	equ	0xFE9
 10753                           wreg	equ	0xFE8
 10754                           indf1	equ	0xFE7
 10755                           postinc1	equ	0xFE6
 10756                           postdec1	equ	0xFE5
 10757                           preinc1	equ	0xFE4
 10758                           plusw1	equ	0xFE3
 10759                           fsr1h	equ	0xFE2
 10760                           fsr1l	equ	0xFE1
 10761                           bsr	equ	0xFE0
 10762                           indf2	equ	0xFDF
 10763                           postinc2	equ	0xFDE
 10764                           postdec2	equ	0xFDD
 10765                           preinc2	equ	0xFDC
 10766                           plusw2	equ	0xFDB
 10767                           fsr2h	equ	0xFDA
 10768                           fsr2l	equ	0xFD9
 10769                           status	equ	0xFD8

Data Sizes:
    Strings     55
    Constant    0
    Data        8
    BSS         98
    Persistent  0
    Stack       0

Auto Spaces:
    Space          Size  Autos    Used
    COMRAM           94     94      94
    BANK0           160    151     159
    BANK1           256      0      98
    BANK2           256      0       0
    BANK3           256      0       0
    BANK4           256      0       0
    BANK5           256      0       0
    BANK6           256      0       0
    BANK7           256      0       0

Pointer List with Targets:

    strncmp@_r	PTR const unsigned char  size(2) Largest target is 3
		 -> STR_19(CODE[3]), 

    strncmp@r	PTR const unsigned char  size(2) Largest target is 3
		 -> STR_19(CODE[3]), 

    strncmp@_l	PTR const unsigned char  size(2) Largest target is 3
		 -> vfpfcnvrt@ct(BANK0[3]), 

    strncmp@l	PTR const unsigned char  size(2) Largest target is 3
		 -> vfpfcnvrt@ct(BANK0[3]), 

    strlen@s	PTR const unsigned char  size(2) Largest target is 80
		 -> dbuf(BANK1[80]), 

    strlen@a	PTR const unsigned char  size(2) Largest target is 80
		 -> dbuf(BANK1[80]), 

    strcpy@dest	PTR unsigned char  size(2) Largest target is 80
		 -> dbuf(BANK1[80]), 

    strcpy@d	PTR unsigned char  size(2) Largest target is 80
		 -> dbuf(BANK1[80]), 

    strcpy@src	PTR const unsigned char  size(2) Largest target is 80
		 -> STR_14(CODE[4]), STR_13(CODE[4]), STR_10(CODE[4]), STR_9(CODE[4]), 
		 -> dbuf(BANK1[80]), 

    strcpy@s	PTR const unsigned char  size(2) Largest target is 80
		 -> STR_14(CODE[4]), STR_13(CODE[4]), STR_10(CODE[4]), STR_9(CODE[4]), 
		 -> dbuf(BANK1[80]), 

    fputs@s	PTR const unsigned char  size(2) Largest target is 80
		 -> dbuf(BANK1[80]), 

    fputs@fp	PTR struct _IO_FILE size(2) Largest target is 7
		 -> sprintf@f(BANK0[6]), 

    fputc@fp.buffer	PTR unsigned char  size(2) Largest target is 3
		 -> main@str(BANK0[3]), 

    fputc@fp	PTR struct _IO_FILE size(2) Largest target is 7
		 -> sprintf@f(BANK0[6]), 

    atoi@s	PTR const unsigned char  size(2) Largest target is 6
		 -> STR_7(CODE[6]), STR_5(CODE[6]), STR_3(CODE[6]), 

    vfprintf@ap	PTR PTR void  size(2) Largest target is 2
		 -> sprintf@ap(BANK0[2]), 

    vfprintf@fp	PTR struct _IO_FILE size(2) Largest target is 7
		 -> sprintf@f(BANK0[6]), 

    vfprintf@fmt	PTR const unsigned char  size(2) Largest target is 6
		 -> STR_7(CODE[6]), STR_5(CODE[6]), STR_3(CODE[6]), 

    vfprintf@cfmt	PTR unsigned char  size(2) Largest target is 6
		 -> STR_7(CODE[6]), STR_5(CODE[6]), STR_3(CODE[6]), 

    vfpfcnvrt@fp	PTR struct _IO_FILE size(2) Largest target is 7
		 -> sprintf@f(BANK0[6]), 

    vfpfcnvrt@ap	PTR PTR void  size(2) Largest target is 2
		 -> sprintf@ap(BANK0[2]), 

    vfpfcnvrt@fmt	PTR PTR unsigned char  size(2) Largest target is 2
		 -> vfprintf@cfmt(BANK0[2]), 

    efgtoa@fp	PTR struct _IO_FILE size(2) Largest target is 7
		 -> sprintf@f(BANK0[6]), 

    sp__strcpy	PTR unsigned char  size(2) Largest target is 80
		 -> dbuf(BANK1[80]), 

    dtoa@fp	PTR struct _IO_FILE size(2) Largest target is 7
		 -> sprintf@f(BANK0[6]), 

    pad@fp	PTR struct _IO_FILE size(2) Largest target is 7
		 -> sprintf@f(BANK0[6]), 

    pad@buf	PTR unsigned char  size(2) Largest target is 80
		 -> dbuf(BANK1[80]), 

    sprintf@fmt	PTR const unsigned char  size(2) Largest target is 6
		 -> STR_7(CODE[6]), STR_5(CODE[6]), STR_3(CODE[6]), 

    sprintf@s	PTR unsigned char  size(2) Largest target is 3
		 -> main@str(BANK0[3]), 

    sprintf@ap	PTR void [1] size(2) Largest target is 2
		 -> ?_sprintf(BANK0[2]), 

    S861_IO_FILE$buffer	PTR unsigned char  size(2) Largest target is 3
		 -> main@str(BANK0[3]), 

    f.buffer	PTR unsigned char  size(2) Largest target is 3
		 -> main@str(BANK0[3]), 

    lcd_put_caracter@caracter	PTR unsigned char  size(2) Largest target is 8
		 -> main@degree(BANK0[8]), 

    lcd_print_with_position@dato	PTR unsigned char  size(2) Largest target is 5
		 -> STR_8(CODE[2]), STR_6(CODE[2]), STR_4(CODE[2]), main@str(BANK0[3]), 
		 -> STR_2(CODE[5]), 

    lcd_print@dato	PTR unsigned char  size(2) Largest target is 15
		 -> STR_8(CODE[2]), STR_6(CODE[2]), STR_4(CODE[2]), main@str(BANK0[3]), 
		 -> STR_2(CODE[5]), STR_1(CODE[15]), 


Critical Paths under _main in COMRAM

    _efgtoa->___flsub
    _tolower->_isupper
    _floorf->___fldiv
    ___fltol->___flmul
    ___flsub->___fladd
    ___fladd->___flmul
    ___flmul->___fldiv
    ___flge->___flmul
    ___fldiv->___xxtofl
    _dtoa->_pad
    _pad->_fputs
    _fputs->_fputc
    _abs->___aomod
    _atoi->_isspace
    _lcd_put_caracter->_lcd_control
    _lcd_put_caracter->_lcd_dato
    _lcd_print_with_position->_lcd_print
    _lcd_print->_lcd_dato
    _lcd_init->_lcd_control
    _lcd_goto->_lcd_control
    _lcd_clear_display->_lcd_control
    ___xxtofl->___wmul

Critical Paths under _ISR in COMRAM

    None.

Critical Paths under _main in BANK0

    _main->_sprintf
    _sprintf->_vfprintf
    _vfprintf->_vfpfcnvrt
    _vfpfcnvrt->_efgtoa

Critical Paths under _ISR in BANK0

    None.

Critical Paths under _main in BANK1

    None.

Critical Paths under _ISR in BANK1

    None.

Critical Paths under _main in BANK2

    None.

Critical Paths under _ISR in BANK2

    None.

Critical Paths under _main in BANK3

    None.

Critical Paths under _ISR in BANK3

    None.

Critical Paths under _main in BANK4

    None.

Critical Paths under _ISR in BANK4

    None.

Critical Paths under _main in BANK5

    None.

Critical Paths under _ISR in BANK5

    None.

Critical Paths under _main in BANK6

    None.

Critical Paths under _ISR in BANK6

    None.

Critical Paths under _main in BANK7

    None.

Critical Paths under _ISR in BANK7

    None.

Call Graph Tables:

 ---------------------------------------------------------------------------------
 (Depth) Function   	        Calls       Base Space   Used Autos Params    Refs
 ---------------------------------------------------------------------------------
 (0) _main                                                25    25      0   47753
                                            126 BANK0     25    25      0
                         _ADCon_Init
                        _ExtInt_Init
                          _Port_Init
                            ___fladd
                            ___fldiv
                            ___flmul
                            ___fltol
                             ___wmul
                           ___xxtofl
                  _lcd_clear_display
                           _lcd_dato
                           _lcd_goto
                           _lcd_init
                          _lcd_print
            _lcd_print_with_position
                   _lcd_put_caracter
                            _sprintf
 ---------------------------------------------------------------------------------
 (1) _sprintf                                             18    10      8   35234
                                            108 BANK0     18    10      8
                           _vfprintf
 ---------------------------------------------------------------------------------
 (2) _vfprintf                                             8     2      6   34569
                                            100 BANK0      8     2      6
                          _vfpfcnvrt
 ---------------------------------------------------------------------------------
 (3) _vfpfcnvrt                                           50    44      6   34185
                                             68 BANK0     32    26      6
                               _atoi
                               _dtoa
                             _efgtoa
                              _fputc
                            _isdigit
                            _isupper
                            _strncmp
                            _tolower
 ---------------------------------------------------------------------------------
 (4) _strncmp                                             11     5      6     453
                                              0 COMRAM    11     5      6
 ---------------------------------------------------------------------------------
 (4) _efgtoa                                              68    61      7   23061
                                              0 BANK0     68    61      7
                            ___awdiv
                            ___awmod
                            ___fladd
                            ___fldiv
                             ___fleq
                             ___flge
                            ___flmul
                            ___flneg
                            ___flsub
                            ___fltol
                      ___fpclassifyf
                             _floorf
                            _isupper
                                _pad
                             _strcpy
                            _tolower
 ---------------------------------------------------------------------------------
 (4) _tolower                                              8     6      2     944
                                              6 COMRAM     8     6      2
                            _isupper
 ---------------------------------------------------------------------------------
 (5) _isupper                                              6     4      2     465
                                              0 COMRAM     6     4      2
 ---------------------------------------------------------------------------------
 (5) _strcpy                                              10     6      4     856
                                              0 COMRAM    10     6      4
 ---------------------------------------------------------------------------------
 (5) _floorf                                              20    16      4     490
                                             45 COMRAM    20    16      4
                            ___fldiv (ARG)
 ---------------------------------------------------------------------------------
 (5) ___fpclassifyf                                       14    10      4     287
                                              0 COMRAM    14    10      4
 ---------------------------------------------------------------------------------
 (5) ___fltol                                             10     6      4     457
                                             70 COMRAM    10     6      4
                            ___fldiv (ARG)
                            ___flmul (ARG)
                             ___wmul (ARG)
                           ___xxtofl (ARG)
 ---------------------------------------------------------------------------------
 (5) ___flsub                                              8     0      8    3193
                                             86 COMRAM     8     0      8
                            ___fladd
                            ___flmul (ARG)
 ---------------------------------------------------------------------------------
 (6) ___fladd                                             16     8      8    2718
                                             70 COMRAM    16     8      8
                            ___fldiv (ARG)
                            ___flmul (ARG)
                           ___xxtofl (ARG)
 ---------------------------------------------------------------------------------
 (5) ___flneg                                              4     0      4     121
                                              0 COMRAM     4     0      4
 ---------------------------------------------------------------------------------
 (5) ___flmul                                             25    17      8    2656
                                             45 COMRAM    25    17      8
                            ___fldiv (ARG)
                             ___wmul (ARG)
                           ___xxtofl (ARG)
 ---------------------------------------------------------------------------------
 (5) ___flge                                              12     4      8     638
                                             70 COMRAM    12     4      8
                            ___flmul (ARG)
 ---------------------------------------------------------------------------------
 (5) ___fleq                                              12     4      8     646
                                              0 COMRAM    12     4      8
 ---------------------------------------------------------------------------------
 (5) ___fldiv                                             25    17      8    2311
                                             20 COMRAM    25    17      8
                             ___wmul (ARG)
                           ___xxtofl (ARG)
 ---------------------------------------------------------------------------------
 (5) ___awmod                                              6     2      4     448
                                              0 COMRAM     6     2      4
 ---------------------------------------------------------------------------------
 (5) ___awdiv                                              8     4      4     452
                                              0 COMRAM     8     4      4
 ---------------------------------------------------------------------------------
 (4) _dtoa                                                36    26     10    5042
                                             27 COMRAM    36    26     10
                            ___aodiv
                            ___aomod
                                _abs
                                _pad
 ---------------------------------------------------------------------------------
 (5) _pad                                                 11     5      6    3393
                                             16 COMRAM    11     5      6
                              _fputc
                              _fputs
                             _strlen
 ---------------------------------------------------------------------------------
 (6) _strlen                                               4     2      2     166
                                              0 COMRAM     4     2      2
 ---------------------------------------------------------------------------------
 (6) _fputs                                                7     3      4    1235
                                              9 COMRAM     7     3      4
                              _fputc
 ---------------------------------------------------------------------------------
 (4) _fputc                                                9     5      4     834
                                              0 COMRAM     9     5      4
                              _putch
 ---------------------------------------------------------------------------------
 (5) _putch                                                1     1      0       0
 ---------------------------------------------------------------------------------
 (5) _abs                                                  4     2      2     142
                                             18 COMRAM     4     2      2
                            ___aomod (ARG)
 ---------------------------------------------------------------------------------
 (5) ___aomod                                             18     2     16     448
                                              0 COMRAM    18     2     16
 ---------------------------------------------------------------------------------
 (5) ___aodiv                                             26    10     16     452
                                              0 COMRAM    26    10     16
 ---------------------------------------------------------------------------------
 (4) _atoi                                                15    13      2    1548
                                              7 COMRAM    15    13      2
                             ___wmul
                            _isdigit
                            _isspace
 ---------------------------------------------------------------------------------
 (5) _isspace                                              7     5      2     207
                                              0 COMRAM     7     5      2
 ---------------------------------------------------------------------------------
 (4) _isdigit                                              6     4      2     313
                                              0 COMRAM     6     4      2
 ---------------------------------------------------------------------------------
 (5) ___wmul                                               6     2      4     555
                                              0 COMRAM     6     2      4
 ---------------------------------------------------------------------------------
 (1) _lcd_put_caracter                                     5     3      2     276
                                              2 COMRAM     5     3      2
                        _lcd_control
                           _lcd_dato
 ---------------------------------------------------------------------------------
 (1) _lcd_print_with_position                              9     3      6    2016
                                              4 COMRAM     9     3      6
                        _lcd_control
                          _lcd_print
 ---------------------------------------------------------------------------------
 (2) _lcd_print                                            2     0      2     241
                                              2 COMRAM     2     0      2
                           _lcd_dato
 ---------------------------------------------------------------------------------
 (2) _lcd_dato                                             2     2      0      44
                                              0 COMRAM     2     2      0
                   _lcd_time_control
 ---------------------------------------------------------------------------------
 (1) _lcd_init                                             1     1      0      44
                                              2 COMRAM     1     1      0
                        _lcd_control
 ---------------------------------------------------------------------------------
 (1) _lcd_goto                                             7     3      4     309
                                              2 COMRAM     7     3      4
                        _lcd_control
 ---------------------------------------------------------------------------------
 (1) _lcd_clear_display                                    0     0      0      44
                        _lcd_control
 ---------------------------------------------------------------------------------
 (2) _lcd_control                                          2     2      0      44
                                              0 COMRAM     2     2      0
                   _lcd_time_control
 ---------------------------------------------------------------------------------
 (3) _lcd_time_control                                     0     0      0       0
 ---------------------------------------------------------------------------------
 (1) ___xxtofl                                            14    10      4     550
                                              6 COMRAM    14    10      4
                             ___wmul (ARG)
 ---------------------------------------------------------------------------------
 (1) _Port_Init                                            0     0      0       0
 ---------------------------------------------------------------------------------
 (1) _ExtInt_Init                                          0     0      0       0
 ---------------------------------------------------------------------------------
 (1) _ADCon_Init                                           0     0      0       0
 ---------------------------------------------------------------------------------
 Estimated maximum stack depth 6
 ---------------------------------------------------------------------------------
 (Depth) Function   	        Calls       Base Space   Used Autos Params    Refs
 ---------------------------------------------------------------------------------
 (9) _ISR                                                  0     0      0       0
 ---------------------------------------------------------------------------------
 Estimated maximum stack depth 9
 ---------------------------------------------------------------------------------

 Call Graph Graphs:

 _main (ROOT)
   _ADCon_Init
   _ExtInt_Init
   _Port_Init
   ___fladd
     ___fldiv (ARG)
       ___wmul (ARG)
       ___xxtofl (ARG)
         ___wmul (ARG)
     ___flmul (ARG)
       ___fldiv (ARG)
         ___wmul (ARG)
         ___xxtofl (ARG)
           ___wmul (ARG)
       ___wmul (ARG)
       ___xxtofl (ARG)
         ___wmul (ARG)
     ___xxtofl (ARG)
       ___wmul (ARG)
   ___fldiv
     ___wmul (ARG)
     ___xxtofl (ARG)
       ___wmul (ARG)
   ___flmul
     ___fldiv (ARG)
       ___wmul (ARG)
       ___xxtofl (ARG)
         ___wmul (ARG)
     ___wmul (ARG)
     ___xxtofl (ARG)
       ___wmul (ARG)
   ___fltol
     ___fldiv (ARG)
       ___wmul (ARG)
       ___xxtofl (ARG)
         ___wmul (ARG)
     ___flmul (ARG)
       ___fldiv (ARG)
         ___wmul (ARG)
         ___xxtofl (ARG)
           ___wmul (ARG)
       ___wmul (ARG)
       ___xxtofl (ARG)
         ___wmul (ARG)
     ___wmul (ARG)
     ___xxtofl (ARG)
       ___wmul (ARG)
   ___wmul
   ___xxtofl
     ___wmul (ARG)
   _lcd_clear_display
     _lcd_control
       _lcd_time_control
   _lcd_dato
     _lcd_time_control
   _lcd_goto
     _lcd_control
       _lcd_time_control
   _lcd_init
     _lcd_control
       _lcd_time_control
   _lcd_print
     _lcd_dato
       _lcd_time_control
   _lcd_print_with_position
     _lcd_control
       _lcd_time_control
     _lcd_print
       _lcd_dato
         _lcd_time_control
   _lcd_put_caracter
     _lcd_control
       _lcd_time_control
     _lcd_dato
       _lcd_time_control
   _sprintf
     _vfprintf
       _vfpfcnvrt
         _atoi
           ___wmul
           _isdigit
           _isspace
         _dtoa
           ___aodiv
           ___aomod
           _abs
             ___aomod (ARG)
           _pad
             _fputc
               _putch
             _fputs
               _fputc
                 _putch
             _strlen
         _efgtoa
           ___awdiv
           ___awmod
           ___fladd
             ___fldiv (ARG)
               ___wmul (ARG)
               ___xxtofl (ARG)
                 ___wmul (ARG)
             ___flmul (ARG)
               ___fldiv (ARG)
                 ___wmul (ARG)
                 ___xxtofl (ARG)
                   ___wmul (ARG)
               ___wmul (ARG)
               ___xxtofl (ARG)
                 ___wmul (ARG)
             ___xxtofl (ARG)
               ___wmul (ARG)
           ___fldiv
             ___wmul (ARG)
             ___xxtofl (ARG)
               ___wmul (ARG)
           ___fleq
           ___flge
             ___flmul (ARG)
               ___fldiv (ARG)
                 ___wmul (ARG)
                 ___xxtofl (ARG)
                   ___wmul (ARG)
               ___wmul (ARG)
               ___xxtofl (ARG)
                 ___wmul (ARG)
           ___flmul
             ___fldiv (ARG)
               ___wmul (ARG)
               ___xxtofl (ARG)
                 ___wmul (ARG)
             ___wmul (ARG)
             ___xxtofl (ARG)
               ___wmul (ARG)
           ___flneg
           ___flsub
             ___fladd
               ___fldiv (ARG)
                 ___wmul (ARG)
                 ___xxtofl (ARG)
                   ___wmul (ARG)
               ___flmul (ARG)
                 ___fldiv (ARG)
                   ___wmul (ARG)
                   ___xxtofl (ARG)
                     ___wmul (ARG)
                 ___wmul (ARG)
                 ___xxtofl (ARG)
                   ___wmul (ARG)
               ___xxtofl (ARG)
                 ___wmul (ARG)
             ___flmul (ARG)
               ___fldiv (ARG)
                 ___wmul (ARG)
                 ___xxtofl (ARG)
                   ___wmul (ARG)
               ___wmul (ARG)
               ___xxtofl (ARG)
                 ___wmul (ARG)
           ___fltol
             ___fldiv (ARG)
               ___wmul (ARG)
               ___xxtofl (ARG)
                 ___wmul (ARG)
             ___flmul (ARG)
               ___fldiv (ARG)
                 ___wmul (ARG)
                 ___xxtofl (ARG)
                   ___wmul (ARG)
               ___wmul (ARG)
               ___xxtofl (ARG)
                 ___wmul (ARG)
             ___wmul (ARG)
             ___xxtofl (ARG)
               ___wmul (ARG)
           ___fpclassifyf
           _floorf
             ___fldiv (ARG)
               ___wmul (ARG)
               ___xxtofl (ARG)
                 ___wmul (ARG)
           _isupper
           _pad
             _fputc
               _putch
             _fputs
               _fputc
                 _putch
             _strlen
           _strcpy
           _tolower
             _isupper
         _fputc
           _putch
         _isdigit
         _isupper
         _strncmp
         _tolower
           _isupper

 _ISR (ROOT)

 Address spaces:
Name               Size   Autos  Total    Cost      Usage
BIGRAM             7FF      0       0      21        0.0%
EEDATA             100      0       0       0        0.0%
BITBANK7           100      0       0      18        0.0%
BANK7              100      0       0      19        0.0%
BITBANK6           100      0       0      16        0.0%
BANK6              100      0       0      17        0.0%
BITBANK5           100      0       0      14        0.0%
BANK5              100      0       0      15        0.0%
BITBANK4           100      0       0      12        0.0%
BANK4              100      0       0      13        0.0%
BITBANK3           100      0       0      10        0.0%
BANK3              100      0       0      11        0.0%
BITBANK2           100      0       0       8        0.0%
BANK2              100      0       0       9        0.0%
BITBANK1           100      0       0       6        0.0%
BANK1              100      0      62       7       38.3%
BITBANK0            A0      0       0       4        0.0%
BANK0               A0     97      9F       5       99.4%
BITCOMRAM           5E      0       0       0        0.0%
COMRAM              5E     5E      5E       1      100.0%
BITSFR               0      0       0     200        0.0%
SFR                  0      0       0     200        0.0%
STACK                0      0       0       2        0.0%
NULL                 0      0       0       0        0.0%
ABS                  0      0     15F      20        0.0%
DATA                 0      0     15F       3        0.0%
CODE                 0      0       0       0        0.0%


Microchip Technology PIC18 Macro Assembler V2.20 build 20200408173844 
Symbol Table                                                                                   Mon Oct 12 16:17:46 2020

                    ___fldiv@aexp 002D                      ___fldiv@bexp 002C  
                    ___fldiv@sign 0025                                l52 4278  
                              l46 41E6                                l55 4302  
                              l64 3DC4                                l49 424E  
                              l91 3FB2                                l94 42D2  
                              l86 3F68                                l78 3E78  
                              l99 42F2                      ___awdiv@sign 0006  
             ___wmul@multiplicand 0003                      lcd_dato@dato 0002  
                             l102 42BC                               l105 42E8  
                             l131 429E                               l401 371A  
                             l245 33AC                               l405 4176  
                             l258 3510                               l362 3B42  
                             l428 3616                               l701 403E  
                             l390 3C9C                               l375 3BF2  
                             l800 302C                               l713 26A0  
                             l715 2500                               l724 2546  
                             l396 36D4                               l660 1BFA  
                             l661 1BC0                               l901 13E8  
                             l726 25BE                               l718 24C4  
                             l727 25AC                               l752 2198  
                             l745 1FA2                               l809 3ECA  
                             l762 22C8                               l754 2210  
                             l755 21FE                               l659 1C0C  
                             l852 3A00                               l676 1D26  
                             l668 1EDC                               l749 2306  
                             l685 1DF6                               l686 1DE4  
                             l855 3A42                               l863 2A8C  
                             l919 0C26                               l793 2FD0  
                             l857 3A7E                               l865 2A94  
                             l945 0FBE                               l786 2F38  
                             l883 2CCE                               l789 3094  
                             _ISR 0008          __end_of_lcd_put_caracter 3FB4  
                             _abs 40C8                               _pad 39BA  
                    ___awmod@sign 0006                               wreg 000FE8  
                    ___flmul@aexp 003F                      ___flmul@bexp 0040  
                    ___flmul@sign 003A                      ___flmul@temp 0045  
                    ___flmul@prod 0041                              ?_ISR 0001  
                    ___fltol@exp1 0050                              l1011 1962  
                            l1003 1A1C                              l1112 39B8  
                            l1120 4082                              l1033 40FE  
                            l1017 3CFE                              l1018 3D06  
                            l1123 4304                              ?_abs 0013  
                            l1036 4106                              l1028 3818  
                            l1135 421C                              l1064 321C  
                            l3001 1B52                              l1073 2EE0  
                            l1129 3E20                              l1154 3D66  
                            l1083 41AE                              l1091 3F1C  
                            l1067 3224                              l3011 1B8C  
                            l3003 1B56                              l1139 38EE  
                            l1076 2E24                              l3101 1E12  
                            l3021 1BDE                              l3013 1BA8  
                            l3005 1B5A                              l1149 3D5E  
                            l3111 1E7C                              l3103 1E20  
                            l3031 1C2A                              l3023 1BEC  
                            l3015 1BB8                              l3007 1B5E  
                            l3121 1EB6                              l3113 1E9C  
                            l3105 1E5A                              l3041 1C6A  
                            l3025 1BEE                              l3017 1BCE  
                            l3009 1B62                              l1097 413E  
                            l4001 0E2C                              l3211 33E4  
                            l3203 33AE                              l3131 4040  
                            l3123 1EBC                              l3115 1EA0  
                            l3107 1E5C                              l3051 1C94  
                            l3043 1C76                              l3035 1C3E  
                            l3027 1BF8                              l3019 1BDA  
                            l4011 0EEA                              l4003 0E60  
                            l3221 344C                              l3213 33F2  
                            l3205 33B2                              l3133 404C  
                            l3141 41F4                              l3301 2468  
                            l3125 1ECA                              l3117 1EAE  
                            l3109 1E6C                              l3061 1D06  
                            l3045 1C7A                              l3037 1C4E  
                            l3029 1C1A                              l3053 1C9A  
                            l4101 1272                              l4021 0F86  
                            l4013 0F00                              l4005 0E66  
                            l3223 345A                              l3231 34C0  
                            l3215 3412                              l3207 33C0  
                            l3135 405E                              l3143 41F8  
                            l3311 24B4                              l3303 2478  
                            l3127 1ECC                              l3119 1EB4  
                            l3071 1D60                              l3055 1CC0  
                            l3063 1D16                              l3047 1C88  
                            l3039 1C5C                              l4111 12BA  
                            l4103 127A                              l4031 103E  
                            l4023 0F96                              l4015 0F32  
                            l4007 0E84                              l3153 427A  
                            l3161 322A                              l3233 34D0  
                            l3225 3488                              l3217 3430  
                            l3209 33E0                              l3137 4062  
                            l3145 4210                              l3321 24FE  
                            l3313 24C2                              l3305 2488  
                            l3241 2314                              l3401 1F5C  
                            l3081 1D90                              l3073 1D6A  
                            l3065 1D3C                              l3057 1CF4  
                            l3049 1C8A                              l4121 1310  
                            l4113 12D6                              l4105 1282  
                            l4033 104E                              l4041 1088  
                            l4025 0FAA                              l4017 0F42  
                            l4009 0EB8                              l3155 4296  
                            l3171 328A                              l3163 3238  
                            l3235 34F0                              l3227 34A8  
                            l3219 3438                              l3139 41E8  
                            l3331 2544                              l3323 2510  
                            l3315 24CE                              l3307 2490  
                            l3251 2354                              l3243 2322  
                            l3411 1FB2                              l3403 1F6C  
                            l3091 1DB8                              l3083 1D94  
                            l3075 1D78                              l3067 1D4C  
                            l3059 1CF6                              l4131 134C  
                            l4123 1316                              l4115 12DE  
                            l4107 128E                              l4051 10C2  
                            l4043 109A                              l4035 1060  
                            l4027 0FB6                              l4019 0F52  
                            l4211 38A4                              l4203 3850  
                            l4221 425A                              l3181 32D4  
                            l3173 328E                              l3165 3258  
                            l3229 34BA                              l3341 25A4  
                            l3325 2526                              l3333 2556  
                            l3317 24EC                              l3309 24A0  
                            l3261 237A                              l3253 2356  
                            l3245 2324                              l3501 22F2  
                            l3421 1FEC                              l3413 1FC2  
                            l3405 1F7C                              l3093 1DC6  
                            l3085 1DA4                              l3077 1D7A  
                            l3149 4108                              l4141 139E  
                            l4133 1352                              l4125 1328  
                            l4109 1294                              l4117 12E4  
                            l4053 10CE                              l4045 10A8  
                            l4061 10EE                              l4037 1072  
                            l4029 0FDA                              l4213 38CC  
                            l4205 385E                              l4301 1824  
                            l4223 425E                              l3191 3344  
                            l3183 32E2                              l3175 329A  
                            l3167 325C                              l3159 3226  
                            l3351 2612                              l3335 2564  
                            l3327 252C                              l3319 24EE  
                            l3271 23BA                              l3263 2388  
                            l3247 2334                              l3255 235E  
                            l3239 2308                              l3503 22F6  
                            l3431 203E                              l3423 2002  
                            l3407 1F8C                              l3095 1DDC  
                            l3079 1D88                              l3087 1DA6  
                            l4143 13AA                              l4135 1358  
                            l4127 1334                              l4119 12F6  
                            l4071 1174                              l4063 1100  
                            l4055 10DE                              l4047 10B8  
                            l4039 1080                              l4207 3876  
                            l4311 18EC                              l4231 141C  
                            l4225 4270                              l4217 4252  
                            l4401 3E3A                              l4161 30B2  
                            l3193 3356                              l3185 32F4  
                            l3177 32B8                              l3169 326A  
                            l3521 3A9E                              l3513 3A80  
                            l3361 267C                              l3345 25CE  
                            l3353 2616                              l3337 2568  
                            l3329 2536                              l3281 23FA  
                            l3273 23BC                              l3265 238A  
                            l3257 236E                              l3249 2344  
                            l3601 3C70                              l3441 2084  
                            l3433 204C                              l3425 200E  
                            l3417 1FD6                              l3409 1F92  
                            l3089 1DB4                              l4145 13B2  
                            l4129 133C                              l4081 11EE  
                            l4073 11A8                              l4065 1112  
                            l4057 10E2                              l4049 10BC  
                            l4209 3892                              l4313 18FE  
                            l4321 1976                              l4305 1850  
                            l4241 149A                              l4233 142E  
                            l4411 3F1E                              l4219 4254  
                            l4403 3E66                              l4171 310E  
                            l4163 30CE                              l4155 3096  
                            l3187 3322                              l3179 32C0  
                            l3195 335C                              l3531 3AD2  
                            l3523 3AAC                              l3515 3A84  
                            l3363 2680                              l3355 2630  
                            l3347 25DA                              l3339 2576  
                            l3291 242A                              l3283 2402  
                            l3267 239A                              l3275 23C4  
                            l3259 2374                              l3603 3C94  
                            l3611 3646                              l3451 20F2  
                            l3443 209E                              l3435 2058  
                            l3427 2026                              l3419 1FE2  
                            l3099 1E06                              l3507 3FFA  
                            l4147 13C2                              l4139 138C  
                            l4091 1232                              l4083 1200  
                            l4075 11B0                              l4067 1116  
                            l4059 10E8                              l4323 199A  
                            l4331 19CA                              l4315 1932  
                            l4307 187E                              l4251 151E  
                            l4243 14A8                              l4235 1432  
                            l4227 13EA                              l4501 3064  
                            l4413 3F22                              l4421 3F36  
                            l4405 3E6C                              l4173 3124  
                            l4165 3104                              l4157 30AA  
                            l3197 336C                              l3189 3342  
                            l3701 3A66                              l3541 3B0C  
                            l3533 3ADA                              l3525 3AB4  
                            l3517 3A92                              l3365 268E  
                            l3357 2646                              l3349 25E8  
                            l3293 242A                              l3285 2406  
                            l3277 23D4                              l3269 23AA  
                            l3605 3C9A                              l3621 36B4  
                            l3613 3656                              l3461 2188  
                            l3453 211C                              l3445 20AE  
                            l3437 2068                              l3429 2032  
                            l3381 1EF8                              l3509 400A  
                            l4149 13C8                              l4093 1244  
                            l4085 120E                              l4069 111C  
                            l4077 11B4                              l4333 19D8  
                            l4325 19A8                              l4261 158E  
                            l4245 14C8                              l4253 1530  
                            l4237 1456                              l4229 140E  
                            l4503 3074                              l4351 422C  
                            l4415 3F2C                              l4423 3F62  
                            l4431 3F78                              l4191 3200  
                            l4183 319E                              l4175 312C  
                            l4167 3108                              l4159 30AE  
                            l3199 338C                              l3551 3B32  
                            l3543 3B14                              l3535 3AE2  
                            l3527 3AB8                              l3519 3A9A  
                            l3367 2694                              l3359 2660  
                            l3279 23EA                              l3623 36C2  
                            l3615 3684                              l3471 21C8  
                            l3463 2196                              l3455 2152  
                            l3447 20CA                              l3439 2074  
                            l3391 1F30                              l3383 1EFA  
                            l3631 4140                              l3711 373C  
                            l4095 124C                              l4087 121E  
                            l4079 11D2                              l4327 19BC  
                            l4271 163E                              l4263 15C8  
                            l4255 1554                              l4247 14D6  
                            l4239 148C                              l4505 3082  
                            l4353 423E                              l4345 4220  
                            l4361 3D94                              l4441 3F96  
                            l4177 3134                              l3705 40C8  
                            l2921 391E                              l3801 2A54  
                            l3553 3B3A                              l3545 3B16  
                            l3537 3AF0                              l3529 3AC0  
                            l3561 3B56                              l3369 2696  
                            l3297 243E                              l3289 241A  
                            l3625 3712                              l3617 3694  
                            l3609 3618                              l3481 223A  
                            l3473 21F6                              l3465 21A8  
                            l3457 2160                              l3449 20D6  
                            l3393 1F40                              l3385 1F0A  
                            l3377 1EDE                              l3633 4156  
                            l3641 3528                              l3713 377A  
                            l3721 37BA                              l4097 125C  
                            l4089 1222                              l4281 16C4  
                            l4265 15E8                              l4257 155C  
                            l4273 1650                              l4337 19E6  
                            l4443 42EA                              l4451 42D4  
                            l4507 3084                              l4347 4222  
                            l4371 41B0                              l4355 3D68  
                            l4187 31DC                              l4179 3168  
                            l3707 40E2                              l2923 393C  
                            l2915 38F0                              l3811 2AAE  
                            l3803 2A64                              l3547 3B1C  
                            l3539 3AF6                              l3571 3B8A  
                            l3563 3B5E                              l3299 2458  
                            l3627 3718                              l3619 36A2  
                            l3491 22B0                              l3483 2264  
                            l3467 21B6                              l3459 217E  
                            l3395 1F46                              l3387 1F1A  
                            l3379 1EEA                              l3635 4166  
                            l2931 1A2A                              l3651 3578  
                            l3723 37CC                              l3715 37A2  
                            l3731 3DC6                              l4099 1264  
                            l4339 1A0A                              l4283 16F6  
                            l4275 1672                              l4267 15F6  
                            l4259 156A                              l4363 3C9E  
                            l4531 26B2                              l4523 26A2  
                            l4445 42A0                              l4349 4228  
                            l4381 41CE                              l4373 41B4  
                            l4357 3D6C                              l4437 3F80  
                            l4429 3F6C                              l4189 31EE  
                            l2925 3972                              l2917 3902  
                            l3821 2ADA                              l3813 2ABC  
                            l3805 2A66                              l3549 3B22  
                            l3581 3BC6                              l3573 3B92  
                            l3565 3B62                              l3557 3B44  
                            l3493 22CC                              l3477 2220  
                            l3485 2268                              l3469 21BA  
                            l3397 1F4C                              l3389 1F2A  
                            l2941 1A6A                              l2933 1A38  
                            l3661 35A2                              l3653 357C  
                            l3645 353C                              l3717 37AE  
                            l3709 371C                              l3733 3DD6  
                            l3741 3D50                              l3901 09A0  
                            l4197 381A                              l4293 17BE  
                            l4285 171A                              l4277 1682  
                            l4365 3CA6                              l4461 3EB8  
                            l4453 3E7A                              l4541 26FE  
                            l4533 26B6                              l4525 26A6  
                            ?_pad 0011                              l4447 42A4  
                            l4471 2F48                              l4383 41D4  
                            l4375 41B8                              l4359 3D90  
                            l4391 3E22                              l4439 3F92  
                            l2919 3914                              l3831 2BE6  
                            l3823 2B5C                              l3815 2AC2  
                            l3807 2A80                              l3583 3BCC  
                            l3575 3B9A                              l3567 3B70  
                            l3559 3B48                              l3495 22DC  
                            l3487 2282                              l3479 222C  
                            l3399 1F5A                              l2951 1A9C  
                            l2943 1A6C                              l2935 1A3A  
                            l3671 35CA                              l3663 35AC  
                            l3655 358A                              l3647 3566  
                            l3639 3512                              l3727 3810  
                            l3751 2D5A                              l3735 3D08  
                            l3911 0A24                              l4199 3844  
                            l4295 17D0                              l4287 173E  
                            l4279 16B4                              l4367 3CB4  
                            l4455 3E8C                              l4551 27BE  
                            l4543 2712                              l4535 26C2  
                            l4527 26AA                              l4449 42B6  
                            l4481 2F86                              l4473 2F5E  
                            l4465 2EE4                              l4385 41DA  
                            l4377 41BA                              l4393 3E26  
                            l3841 2C5A                              l3833 2C04  
                            l3825 2B62                              l3817 2ACA  
                            l3809 2A9C                              l3577 3BA8  
                            l3585 3BD2                              l3569 3B78  
                            l3593 3BF4                              l3497 22EA  
                            l3489 2296                              l2961 1AC4  
                            l2953 1A9E                              l2937 1A4A  
                            l2945 1A74                              l2929 1A1E  
                            l3673 35D6                              l3665 35B6  
                            l3649 3568                              l3753 2D68  
                            l3761 2E48                              l3745 2CD0  
                            l3913 0A36                              l3905 09C8  
                            l4297 17E6                              l4289 1786  
                            l4369 3CE2                              l4457 3E94  
                            l4561 2902                              l4553 2852  
                            l4545 2718                              l4537 26DE  
                            l4529 26AE                              l4491 300E  
                            l4483 2FB8                              l4467 2EF4  
                            l4387 41E0                              l4379 41C0  
                            l4395 3E30                              l3691 39F8  
                            l3683 39BA                              l3851 2C96  
                            l3843 2C6A                              l3835 2C1E  
                            l3827 2B68                              l3819 2AD4  
                            l3587 3BE2                              l3579 3BBE  
                            l3595 3C22                              l3499 22EC  
                            l2971 1AFE                              l2963 1AD4  
                            l2955 1AA4                              l2947 1A84  
                            l2939 1A5A                              l3675 35E6  
                            l3763 2E84                              l3747 2CF0  
                            l3739 3D3E                              l3931 0AF2  
                            l3915 0A52                              l3907 09EE  
                            l3923 0A6E                              l4299 17F4  
                            l4459 3E9C                              l4571 299A  
                            l4563 2926                              l4555 28A2  
                            l4547 271A                              l4539 26F0  
                            l4493 301C                              l4485 2FBA  
                            l4477 2F72                              l4469 2F02  
                            l4389 42FC                              l3773 4178  
                            l3781 3EE4                              l3693 3A0C  
                            l3685 39CA                              l3845 2C70  
                            l3853 2CA6                              l3837 2C38  
                            l3829 2BCC                              l3589 3BEA  
                            l3597 3C32                              l2981 1B2A  
                            l2973 1B10                              l2965 1AE4  
                            l2957 1AB2                              l2949 1A8A  
                            l3677 35F6                              l3765 2E98  
                            l3757 2DD8                              l3749 2D46  
                            l3933 0AF8                              l3941 0BC0  
                            l3925 0A88                              l3861 0854  
                            l4565 2942                              l4557 28C6  
                            l4549 272E                              l4495 303A  
                            l4487 2FC6                              l4479 2F7A  
                            l3791 42C0                              l3783 3F12  
                            l3695 3A20                              l3687 39DE  
                            l3847 2C82                              l3839 2C48  
                            l3599 3C60                              l2991 1B3E  
                            l2983 1B2E                              l2975 1B1E  
                            l2967 1AE6                              l2959 1AB4  
                            l3679 3606                              l3767 2EC0  
                            l3759 2E14                              l3951 0C00  
                            l3943 0BD0                              l3935 0B52  
                            l3871 08A0                              l3863 0862  
                            l4671 29D2                              l4567 2962  
                            l4559 28E2                              l4575 29BA  
                            l4497 303C                              l4489 3002  
                            l3793 42C8                              l3785 3F16  
                            l3777 3ECC                              l4673 3152  
                            l3697 3A24                              l3689 39EC  
                            l3849 2C8E                              l2993 1B42  
                            l2985 1B32                              l2977 1B22  
                            l2969 1AEE                              l3769 2ED0  
                            l3961 0C44                              l3953 0C1A  
                            l3945 0BD4                              l3937 0B86  
                            l3929 0ABE                              l3881 08E6  
                            l3873 08B2                              l3865 086A  
                            l3857 083A                              l4569 297E  
                            l4499 3040                              l4675 3E50  
                            l3779 3ED0                              l3699 3A52  
                            l3795 29EC                              l2995 1B46  
                            l2987 1B36                              l2979 1B26  
                            l3963 0C56                              l3971 0CB4  
                            l3947 0BE6                              l3955 0C32  
                            l3939 0B8E                              l3883 08EA  
                            l3875 08C0                              l3867 088E  
                            l3859 0844                              l3789 42BE  
                            l4677 3F4C                              l3797 2A0C  
                            l2997 1B4A                              l2989 1B3A  
                            l3981 0CF2                              l3973 0CBC  
                            l3965 0C72                              l3949 0BF8  
                            l3893 0950                              l3885 08EE  
                            l3877 08D2                              l3869 0898  
                            l3799 2A34                              l2999 1B4E  
                            l3983 0D04                              l3991 0D44  
                            l3975 0CCE                              l3967 0CA8  
                            l3895 0962                              l3879 08DE  
                            l3887 08F4                              l3993 0D4C  
                            l3985 0D12                              l3977 0CE0  
                            l3969 0CB0                              l3897 097E  
                            l3889 091A                              l3995 0D5C  
                            l3987 0D2A                              l3979 0CEE  
                            l3899 0996                              l3997 0D70  
                            l3989 0D3C                              l3999 0DD4  
                            STR_1 0801                              STR_2 081C  
                            STR_3 0810                              STR_4 0836  
                            STR_5 0810                              STR_6 0823  
                            STR_7 0816                              STR_8 0834  
                            STR_9 0821                              u3000 1C1A  
                            u3001 1C16                              u3010 1C2A  
                            u3011 1C26                              u3100 1D88  
                            u3020 1C5C                              u3101 1D84  
                            u3021 1C58                              u3110 1DA4  
                            u3030 1C6A                              u3111 1DA0  
                            u3031 1C66                              _LATC 000F8B  
                            u4000 36A2                              u3200 1E7C  
                            u3120 1DB4                              u3040 1C88  
                            u4001 369E                              u3201 1E78  
                            u3121 1DB0                              u3041 1C84  
                            u4010 36C2                              u3210 1E9C  
                            u3130 1DC6                              u3050 1CC0  
                            u4011 36BE                              u3211 1E98  
                            u3131 1DC2                              u3051 1CBC  
                            u4020 3712                              u3220 1EAE  
                            u3140 1DDC                              u3060 1D06  
                            u4100 35F6                              u3301 3294  
                            u4021 370E                              u3221 1EAA  
                            u3141 1DD8                              u3061 1D02  
                            u4101 35F2                              u3310 32B8  
                            u4110 39CA                              u4030 4156  
                            u3230 1ECA                              u3150 1DF2  
                            u3070 1D3C                              u3311 32B4  
                            u4111 39C6                              u4031 4152  
                            u3231 1EC6                              u3151 1DEE  
                            u3071 1D38                              u3320 32E2  
                            u3400 34D0                              u3240 4082  
                            u4120 39EC                              u3160 1E06  
                            u3080 1D4C                              u4040 3528  
                            u5000 120E                              u3321 32DE  
                            u3401 34CC                              u3241 407E  
                            u4121 39E8                              u3161 1E02  
                            u3081 1D48                              u4041 3524  
                            u5001 120A                              u3330 3322  
                            u3250 4210                              u4130 3A42  
                            u3410 2322                              u3170 1E20  
                            u3090 1D78                              u4050 355C  
                            u4210 3806                              u5010 1244  
                            u3331 331E                              u3251 420C  
                            u4131 3A3E                              u3411 231E  
                            u3171 1E1C                              u3091 1D74  
                            u4211 3800                              u5011 1240  
                            u5100 3104                              u3340 336C  
                            u4140 3A52                              u3500 24C2  
                            u3420 2334                              u3180 1E5A  
                            u4060 358A                              u4220 3808  
                            u4300 2D68                              u3260 4138  
                            u5020 1272                              u5101 3100  
                            u3341 3368                              u4141 3A4E  
                            u3501 24BE                              u3421 2330  
                            u3181 1E56                              u4061 3586  
                            u4205 37DE                              u4301 2D64  
                            u3261 4132                              u5021 126E  
                            u5110 3120                              u3350 33C0  
                            u4150 40E2                              u3510 24EC  
                            u3430 2344                              u3190 1E6C  
                            u4070 359E                              u4230 3E0E  
                            u3270 413A                              u5030 12F6  
                            u5111 311C                              u3351 33BC  
                            u4151 40DE                              u3511 24E8  
                            u3431 2340                              u3191 1E68  
                            u4071 359A                              u4055 3552  
                            u5031 12F2                              u4400 3EE4  
                            u5120 31D6                              u3280 3238  
                            u3360 33F2                              u3600 25E8  
                            u3520 2510                              u3440 2388  
                            u4080 35C6                              u4160 375C  
                            u4320 2DD4                              u4240 3E20  
                            u5040 1310                              u5200 38CC  
                            u4401 3EE0                              u5121 31D0  
                            u3281 3234                              u3361 33EE  
                            u3601 25E4                              u3521 250C  
                            u3441 2384                              u4081 35C2  
                            u4321 2DD0                              u4241 3E1C  
                            u5041 130C                              u5201 38C8  
                            u4410 3F12                              u5130 31D8  
                            u3290 326A                              u3370 3430  
                            u2810 3902                              u3610 2630  
                            u3530 2526                              u3450 239A  
                            u4090 35E6                              u4170 377A  
                            u4330 2DF8                              u4250 3D38  
                            u5050 1328                              u5210 140E  
                            u4411 3F0E                              u3291 3266  
                            u3371 342C                              u2811 38FE  
                            u3611 262C                              u3531 2522  
                            u3451 2396                              u4091 35E2  
                            u4171 3776                              u4315 2D7C  
                            u4251 3D32                              u5051 1324  
                            u5211 140A                              u5140 31EE  
                            u3380 345A                              u2820 3914  
                            u4500 2C04                              u4420 2A1C  
                            u3620 2660                              u3540 2544  
                            u3460 23AA                              u3700 1FB2  
                            u2900 1AC4                              u4180 37A2  
                            u4340 2E14                              u4316 2D86  
                            u4260 3D3A                              u5060 1386  
                            u5300 163A                              u5220 1456  
                            u5141 31EA                              u3381 3456  
                            u2821 3910                              u4501 2C00  
                            u4421 2A16                              u3621 265C  
                            u3541 2540                              u3461 23A6  
                            u3701 1FAE                              u2901 1AC0  
                            u4181 379E                              u4165 3752  
                            u4341 2E10                              u4317 2D96  
                            u4237 3E04                              u5061 1380  
                            u5221 1452                              u5150 3200  
                            u3390 3488                              u2830 393C  
                            u4510 2C1E                              u4430 2A1E  
                            u3630 268E                              u3550 2564  
                            u3470 23EA                              u3710 1FC2  
                            u2910 1AD4                              u4190 37CC  
                            u4350 2E68                              u4270 3D50  
                            u5070 1388                              u5310 1650  
                            u5230 149A                              u5151 31FC  
                            u3391 3484                              u2831 3938  
                            u4511 2C1A                              u3631 268A  
                            u3551 2560                              u3471 23E6  
                            u3711 1FBE                              u2911 1AD0  
                            u4191 37C8                              u4335 2DEE  
                            u4271 3D4C                              u5311 164C  
                            u5231 1496                              u2840 3972  
                            u4520 2C38                              u4440 2A34  
                            u3560 2576                              u3480 242A  
                            u3800 2282                              u3720 213C  
                            u3640 1EF8                              u2920 1B10  
                            u4360 2E84                              u4280 2D18  
                            u5080 139E                              u4600 08D2  
                            u5160 3844                              u5400 18FE  
                            u5320 1682                              u5240 1518  
                            u2841 396E                              u4521 2C34  
                            u4441 2A30                              u3561 2572  
                            u3481 2426                              u3801 227E  
                            u3641 1EF4                              u2921 1B0C  
                            u4361 2E80                              u5081 139A  
                            u4601 08CE                              u5161 3840  
                            u5401 18FA                              u5321 167E  
                            u5241 1512                              u5090 30CE  
                            u4530 2C48                              u4450 2A64  
                            u3570 25A4                              u3490 24A0  
                            u3810 22B0                              u3730 2196  
                            u3650 1F0A                              u2930 1B1E  
                            u2850 1A38                              u4370 2EC0  
                            u4290 2D46                              u4610 091A  
                            u5170 3876                              u5410 199A  
                            u5330 16C4                              u5250 151A  
                            u5091 30CA                              u4531 2C44  
                            u4451 2A60                              u3571 25A0  
                            u3491 249C                              u3811 22AC  
                            u3731 2192                              u3651 1F06  
                            u2931 1B1A                              u2851 1A34  
                            u4371 2EBC                              u4355 2E5E  
                            u4291 2D42                              u4611 0916  
                            u5171 3872                              u5411 1996  
                            u5331 16C0                              u5500 2FB4  
                            u5420 3D8C                              u4380 41A8  
                            u4540 2C5A                              u4460 2A80  
                            u3900 3B70                              u3580 25BA  
                            u3820 22EA                              u3740 21B6  
                            u3660 1F1A                              u2940 1B8C  
                            u2860 1A4A                              u4700 0B4E  
                            u4620 094A                              u5180 3892  
                            u5340 171A                              u5260 1530  
                            u5501 2FB0                              u4381 41A2  
                            u4541 2C56                              u4461 2A7C  
                            u3901 3B6C                              u3581 25B6  
                            u3821 22E6                              u3741 21B2  
                            u3725 2132                              u3661 1F16  
                            u2941 1B88                              u2861 1A46  
                            u4285 2D0E                              u4701 0B4A  
                            u4621 0944                              u5181 388E  
                            u5341 1716                              u5261 152C  
                            u5510 2FFE                              u5430 3DB4  
                            u4390 41AA                              u4550 2C6A  
                            u4470 2AAE                              u3830 3A92  
                            u3910 3B8A                              u3590 25CE  
                            u3750 21C8                              u3670 1F5A  
                            u2950 1BA4                              u2870 1A5A  
                            u4710 0BC0                              u4630 094C  
                            u5190 38A4                              u5350 173E  
                            u5270 1554                              u5511 2FFA  
                            u4551 2C66                              u4471 2AAA  
                            u3831 3A8E                              u3911 3B86  
                            u3591 25CA                              u3751 21C4  
                            u3671 1F56                              u2951 1B9E  
                            u2871 1A56                              u4711 0BBC  
                            u5191 38A0                              u5351 173A  
                            u5271 1550                              u5520 301C  
                            u5440 3DC4                              u4560 2C82  
                            u4480 2ABC                              u3840 3AAC  
                            u3920 3BA8                              u3760 21F6  
                            u3680 1F6C                              u2960 1BA6  
                            u2880 1A9C                              u4800 0CE0  
                            u4720 0BE6                              u4640 0962  
                            u5360 17D0                              u5280 158E  
                            u5521 3018                              u5441 3DC0  
                            u4561 2C7E                              u4481 2AB8  
                            u3841 3AA8                              u3921 3BA4  
                            u3761 21F2                              u3681 1F68  
                            u2881 1A98                              u4801 0CDC  
                            u4721 0BE2                              u4641 095E  
                            u5361 17CC                              u5281 158A  
                            u5530 302C                              u4490 2BE6  
                            u3850 3AD2                              u3930 3BBE  
                            u3770 220C                              u3690 1F7C  
                            u2970 1BCE                              u2890 1AB2  
                            u4810 0CEE                              u4730 0BF8  
                            u4650 09EE                              u4570 0862  
                            u5370 187E                              u5290 1638  
                            u5450 3CFE                              u5531 3028  
                            u5427 3D82                              u4491 2BE2  
                            u3851 3ACE                              u3931 3BBA  
                            u3771 2208                              u3691 1F78  
                            u2971 1BCA                              u2891 1AAE  
                            u4811 0CEA                              u4731 0BF4  
                            u4651 09EA                              u4571 085E  
                            u5371 187A                              u5291 1632  
                            u5451 3CFA                              u5540 303A  
                            u5460 3FB2                              u3860 3AF0  
                            u3940 3BE2                              u3780 2220  
                            u2980 1BEC                              u4900 104E  
                            u4820 0D04                              u4740 0C1A  
                            u4660 0A1E                              u4580 08B2  
                            u5380 18E6                              u5541 3036  
                            u5437 3DAA                              u5461 3FAE  
                            u3861 3AEC                              u3941 3BDE  
                            u3781 221C                              u2981 1BE8  
                            u4901 104A                              u4821 0D00  
                            u4741 0C16                              u4661 0A18  
                            u4581 08AE                              u5381 18E0  
                            u5550 3074                              u5470 2EF4  
                            u3870 3B0C                              u3950 3C22  
                            u3790 223A                              u2990 1C0C  
                            u4910 1060                              u4830 0D12  
                            u4750 0C40                              u4670 0A20  
                            u4590 08C0                              u5390 18E8  
                            u5551 3070                              u5471 2EF0  
                            u3871 3B08                              u3951 3C1E  
                            u3791 2236                              u2991 1C08  
                            u4911 105C                              u4831 0D0E  
                            u4751 0C3C                              u4591 08BC  
                            u5560 3082                              u5480 2F02  
                            u3880 3B32                              u3960 3C60  
                            u4920 1072                              u4840 0D3C  
                            u4760 0C56                              u4680 0A36  
                            u5561 307E                              u5481 2EFE  
                            u5617 4272                              u3881 3B2E  
                            u3961 3C5C                              u4921 106E  
                            u4841 0D38                              u4761 0C52  
                            u4681 0A32                              u5490 2F5E  
                            u3890 3B56                              u3970 3C94  
                            u4930 1080                              u4850 0E84  
                            u4770 0C72                              u4690 0ABA  
                            u5491 2F5A                              u5627 41C6  
                            u3891 3B52                              u3971 3C90  
                            u4931 107C                              u4851 0E80  
                            u4771 0C6E                              u4691 0AB6  
                            u3980 3646                              u4940 109A  
                            u4860 0EEA                              u4780 0CA8  
                            u5637 4244                              u3981 3642  
                            u4941 1096                              u4861 0EE6  
                            u4781 0CA4                              u5581 26E8  
                            u3990 3684                              u4950 10A8  
                            u4870 0F32                              u4790 0CCE  
                            u5647 42C2                              u3991 3680  
                            u4951 10A4                              u4871 0F2E  
                            u4791 0CCA                              u4960 1100  
                            u4880 0F42                              u5657 42CC  
                            u4961 10FC                              u4881 0F3E  
                            u4970 11D2                              u4890 0FAA  
                            u4971 11CE                              u4891 0FA6  
                            u4980 11EE                              u4981 11EA  
                            u4990 1200                              u4991 11FC  
             __size_of_ADCon_Init 001E                              abs@a 0013  
                            _dbuf 010A                              _flag 00FD  
                            _atoi 3096                              _main 26A2  
                            _dtoa 29EC                              _prec 00F9  
                            _nout 0108                              pad@i 0018  
                            pad@p 0015                              fsr1h 000FE2  
                            fsr2h 000FDA                              indf1 000FE7  
                            indf2 000FDF                              fsr1l 000FE1  
                            pad@w 001A                              fsr2l 000FD9  
                            btemp 005F                     ___fpclassifyf 371C  
                            prodh 000FF4                              prodl 000FF3  
                            start 000E                   ___fldiv@new_exp 0026  
                    _tolower$1163 000D                      ___param_bank 000000  
                   ??_ExtInt_Init 0001                             ??_ISR 0001  
                           ??_abs 0015                             ??_pad 0017  
                   ___fltol@sign1 004F           _lcd_print_with_position 3E22  
                 __end_of___aodiv 33AE                             ?_atoi 0008  
                 __end_of___fladd 1EDE                             ?_main 0001  
                           ?_dtoa 001C                   __end_of___aomod 3512  
                 __end_of___fldiv 26A2                   __end_of___awdiv 3B44  
                 __end_of___flneg 4178                             STR_10 0829  
                           STR_13 0825                             STR_14 082D  
                           STR_17 0831                             STR_19 0831  
                 __end_of___awmod 3BF4                   __end_of___flmul 2308  
                 __end_of___flsub 4040                   __end_of___fltol 3618  
                 ___awdiv@divisor 0003                             i2l128 40C4  
                 ___awdiv@counter 0005                      vfpfcnvrt@fmt 00A6  
                           _PORTA 000F80                             _PORTB 000F81  
                           _TRISA 000F92                             _TRISB 000F93  
                           _TRISC 000F94                             _flags 00FB  
                           _fputc 38F0                             _fputs 4040  
                 __end_of_isdigit 41B0                             atoi@n 0015  
                           pad@fp 0011                             atoi@s 0008  
                           _width 00F7                             _putch 4304  
                           main@c 00F5                             main@f 00E8  
                           main@k 00EC                             dtoa@d 001E  
                           dtoa@i 003E                             dtoa@n 0036  
                           dtoa@p 0030                             dtoa@s 0034  
                           dtoa@w 0032                   __end_of_isspace 3F1E  
                 __end_of_isupper 4140                             tablat 000FF5  
                           plusw1 000FE3                             plusw2 000FDB  
                           ttemp5 0060                             ttemp6 0063  
                           ttemp7 0067                             status 000FD8  
                           wtemp8 0060                   __end_of_sprintf 3ECC  
                  ?___fpclassifyf 0001                   __end_of_tolower 3D68  
                 __end_of_strncmp 38F0                   __initialization 3FB4  
                    __end_of_atoi 3226                      __end_of_main 29EC  
                    __end_of_dtoa 2CD0                            ??_atoi 000A  
                          ??_main 00DE                            ??_dtoa 0026  
             __end_of_ExtInt_Init 42F4                     __activetblptr 000002  
                          _ADCON1 000FC1                            ?_fputc 0001  
                          ?_fputs 000A                            _ADRESH 000FC4  
                          _ADRESL 000FC3                  ___awdiv@dividend 0001  
                          ?_putch 0001                            i2l4581 4086  
                          i2l4583 4094                            i2l4585 40B2  
                          i2l4587 40BA                            i2l4589 40C2  
                __end_of___xxtofl 3096                 ?_lcd_time_control 0001  
                   lcd_print@dato 0003                ??_lcd_time_control 0001  
                __end_of_lcd_dato 427A                      vfprintf@cfmt 00CA  
                __end_of_lcd_init 41E8                  __end_of_lcd_goto 3F6A  
                          ___flge 3618                            ___fleq 3BF4  
            __size_of_lcd_control 0032                         ??___aodiv 0011  
                       ??___fladd 004F                         ??___aomod 0011  
                          ___wmul 427A                         ??___fldiv 001D  
                       ??___awdiv 0005                         ??___flneg 0005  
                       ??___awmod 0005                         ??___flmul 0036  
                       ??___flsub 005F                         ??___fltol 004B  
       ??_lcd_print_with_position 000B                            _efgtoa 083A  
                    ??_ADCon_Init 0001                            _floorf 2CD0  
               _lcd_clear_display 42FC                            clear_0 3FDA  
                          clear_1 3FE6                  ___awdiv@quotient 0007  
                 ___awmod@divisor 0003                   ___awmod@counter 0005  
                          pad@buf 0013                            dtoa@fp 001C  
              ?_lcd_clear_display 0001                            _strcpy 3DC6  
                          _strlen 41E8                            fputc@c 0001  
                          fputs@c 000E                            fputs@i 000F  
                          fputs@s 000A                         ??_isdigit 0003  
              __size_of_Port_Init 0016                   ___fpclassifyf@e 0009  
                 ___fpclassifyf@u 000B                   ___fpclassifyf@x 0001  
                    __mediumconst 0000                         ??_isspace 0003  
                          tblptrh 000FF7                         ??_isupper 0003  
                          tblptrl 000FF6                            tblptru 000FF8  
                          putch@c 0001               ??_lcd_clear_display 0003  
                __end_of_vfprintf 3D08                         ??_sprintf 005F  
                       ??_tolower 0009                         ??_strncmp 0007  
                      ___flge@ff1 0047                        ___flge@ff2 004B  
                 ??___fpclassifyf 0005                      ___xxtofl@arg 0011  
                    ___xxtofl@exp 0010                      ___xxtofl@val 0007  
                      ___fleq@ff1 0001                        ___fleq@ff2 0005  
                      __accesstop 0060           __end_of__initialization 3FEC  
                      ___flneg@f1 0001                __end_of_ADCon_Init 42BE  
 lcd_print_with_position@posicion 000D                     ___rparam_used 000001  
                      ___fltol@f1 0047                    __pcstackCOMRAM 0001  
       __end_of_lcd_clear_display 4304                      __pidataBANK1 42F4  
                     _ExtInt_Init 42EA                     __end_of_fputc 39BA  
                   __end_of_fputs 4084                     __end_of_putch 4306  
     lcd_print_with_position@dato 0009                 ?_lcd_put_caracter 0003  
              ??_lcd_put_caracter 0005                __size_of_lcd_print 005E  
                         ??_fputc 0005   __end_of_lcd_print_with_position 3E7A  
                         ??_fputs 000E                           ??_putch 0001  
                      __pbssBANK0 00F7                        __pbssBANK1 0100  
               __end_of_Port_Init 42EA                           ?___flge 0047  
                         ?___fleq 0001                           ?___wmul 0001  
                         ?_efgtoa 0060                           ?_floorf 002E  
                         ?_strcpy 0001                           ?_strlen 0001  
                       ?___xxtofl 0007                __size_of_vfpfcnvrt 0634  
                       ?_lcd_dato 0001                         ?_lcd_init 0001  
                       ?_lcd_goto 0003                           __Hparam 0000  
                         __Lparam 0000                   lcd_control@dato 0002  
      __size_of_lcd_clear_display 0008                   __size_of___flge 0104  
                 __size_of___fleq 00AA                           ___aodiv 3226  
               __end_of_lcd_print 3DC6                           ___fladd 1A1E  
                         ___aomod 33AE                           ___fldiv 2308  
                         ___awdiv 3A80                           ___flneg 4140  
                         ___awmod 3B44                           ___flmul 1EDE  
                         ___flsub 3FFA                           ___fltol 3512  
                 __size_of___wmul 0026                         ?_vfprintf 00C4  
                    __psmallconst 0800                   __size_of_efgtoa 0BB0  
                 __size_of_floorf 0212                           __pcinit 3FB4  
                         __ramtop 0800                           __ptext0 26A2  
                         __ptext1 3E7A                           __ptext2 3C9E  
                         __ptext3 13EA                           __ptext4 381A  
                         __ptext5 083A                           __ptext6 3D08  
                         __ptext7 4108                           __ptext8 3DC6  
                         __ptext9 2CD0                   __size_of_strcpy 005C  
                 __size_of_strlen 0036                      __size_of_ISR 40C0  
                    __size_of_abs 0040                      __size_of_pad 00C6  
                         _isdigit 4178                        ??___xxtofl 000B  
                ___awmod@dividend 0001                           _isspace 3ECC  
                         _isupper 4108                           efgtoa@c 0066  
                         efgtoa@d 0084                           efgtoa@e 009C  
                         efgtoa@f 0062                           efgtoa@g 0098  
                         efgtoa@h 008E                           efgtoa@i 0096  
                         efgtoa@l 0092                           efgtoa@m 0080  
                         efgtoa@n 009E                           efgtoa@p 0088  
                         efgtoa@t 007C                           efgtoa@u 00A0  
                         efgtoa@w 008B                           atoi@neg 000E  
                      ??_lcd_dato 0001                           _sprintf 3E7A  
                         _tolower 3D08                        ??_lcd_init 0003  
                      ??_lcd_goto 0007                           main@str 00F2  
                         _strncmp 381A                    __pintcode_body 4084  
            end_of_initialization 3FEC                           floorf@e 003C  
                         floorf@m 0038                           floorf@u 003E  
                         floorf@x 002E                           fputc@fp 0003  
                   __Lmediumconst 0000                           int_func 4084  
                         fputs@fp 000C          lcd_print_with_position@x 0005  
        lcd_print_with_position@y 0007                 __end_of_vfpfcnvrt 1A1E  
                      efgtoa@mode 008D                        efgtoa@sign 0086  
                         postdec1 000FE5                           postdec2 000FDD  
                         postinc0 000FEE                           postinc1 000FE6  
                         postinc2 000FDE                        ??_vfprintf 005F  
                         strcpy@d 0009                           strlen@a 0003  
                         strcpy@s 0007                           strlen@s 0001  
               lcd_put_caracter@i 0006         __size_of_lcd_time_control 0016  
                     ___fladd@grs 0056                     ___xxtofl@sign 000F  
          lcd_put_caracter@adress 0005                         _TRISEbits 000F96  
                     ___fldiv@grs 0028                       ___fldiv@rem 0021  
                     ___flmul@grs 003B                        main@degree 00E0  
                   ??_lcd_control 0001                      ?_ExtInt_Init 0001  
                  __end_of___flge 371C                    __end_of___fleq 3C9E  
                     vfpfcnvrt@ap 00A8                       vfpfcnvrt@ct 00C0  
                     vfpfcnvrt@fp 00A4                       vfpfcnvrt@ll 00AE  
                  __end_of___wmul 42A0                    __end_of_efgtoa 13EA  
                  __end_of_floorf 2EE2                        floorf@F524 0100  
                  __end_of_strcpy 3E22                    __end_of_strlen 421E  
             start_initialization 3FB4                       __end_of_ISR 40C8  
                     __end_of_abs 4108                       __end_of_pad 3A80  
           __end_of___fpclassifyf 381A         __size_of_lcd_put_caracter 004A  
        ?_lcd_print_with_position 0005                       vfprintf@fmt 00C6  
                        ??___flge 004F                          ??___fleq 0009  
                        ??___wmul 0005                         _Port_Init 42D4  
                        ??_efgtoa 0067                       __pdataBANK1 015A  
             __end_of_lcd_control 4250                          ??_floorf 0032  
                        ??_strcpy 0005                          ??_strlen 0003  
                       ___fladd@a 004B                         ___fladd@b 0047  
                       ___fldiv@a 0019                         ___fldiv@b 0015  
                       ___flmul@a 0032                         ___flmul@b 002E  
                       ___flsub@a 005B                         ___flsub@b 0057  
                   __pcstackBANK0 0060                  ___aodiv@dividend 0001  
               __size_of___xxtofl 01B4                 __size_of_lcd_dato 002A  
               __size_of_lcd_init 0038                 __size_of_lcd_goto 004C  
                       _atoi$1070 0012                         _atoi$1068 0010  
                       _atoi$1069 0014                       _efgtoa$1001 0070  
                     _efgtoa$1010 0076                       _efgtoa$1002 0072  
                     _efgtoa$1011 0078                       _efgtoa$1012 007A  
                     _efgtoa$1006 0074                         __pintcode 0008  
                        ?___aodiv 0001                          ?___fladd 0047  
                        ?___aomod 0001                          ?___fldiv 0015  
                        ?___awdiv 0001                  ___aodiv@quotient 0013  
                        ?___flneg 0001                          ?___awmod 0001  
                        ?___flmul 002E                          ?___flsub 0057  
                        ?___fltol 0047                        ?_Port_Init 0001  
                       _lcd_print 3D68                 __size_of_vfprintf 006A  
                _lcd_time_control 42BE                       __smallconst 0800  
                        ?_isdigit 0001                          ?_isspace 0001  
                        ?_isupper 0001                          ?_sprintf 00CC  
                        ?_tolower 0007                    __size_of_fputc 00CA  
                  __size_of_fputs 0044                          ?_strncmp 0001  
                  __size_of_putch 0002                    ___wmul@product 0005  
                        _LATEbits 000F8D                       _lcd_control 421E  
                        i2u560_40 40B2                          i2u560_41 40AE  
                        i2u559_40 4094                          i2u559_41 4090  
                       main@F3536 015A              __size_of_ExtInt_Init 000A  
                       _vfpfcnvrt 13EA                        ?_lcd_print 0003  
                      _ADCON0bits 000FC2                        _ADCON2bits 000FC0  
               ___wmul@multiplier 0001                         lcd_goto@x 0003  
                       lcd_goto@y 0005                      _isspace$1099 0007  
                      vfpfcnvrt@c 00C3                        vfpfcnvrt@f 00BC  
                     _INTCON2bits 000FF1                         copy_data0 3FC8  
                _lcd_put_caracter 3F6A                          __Hrparam 0000  
                      vfprintf@ap 00C8                          __Lrparam 0000  
                      vfprintf@fp 00C4                       ??_Port_Init 0001  
                __size_of___aodiv 0188                  __size_of___fladd 04C0  
                __size_of___aomod 0164                  __size_of___fldiv 039A  
                __size_of___awdiv 00C4                  __size_of___flneg 0038  
                __size_of___awmod 00B0                  __size_of___flmul 042A  
                __size_of___flsub 0046                  __size_of___fltol 0106  
                      _ADCon_Init 42A0                        ?_vfpfcnvrt 00A4  
                 ___aodiv@divisor 0009                   ___aodiv@counter 0011  
              ___fpclassifyf@F463 0104                        sprintf@fmt 00CE  
                        ___xxtofl 2EE2                  __size_of_isdigit 0038  
                        _dtoa$977 002E                  __size_of_isspace 0052  
                        __ptext10 371C                          __ptext11 3512  
                        __ptext20 3A80                          __ptext12 3FFA  
                        __ptext21 29EC                          __ptext13 1A1E  
                        __ptext30 3096                          __ptext22 39BA  
                        __ptext14 4140                          __ptext31 3ECC  
                        __ptext23 41E8                          __ptext15 1EDE  
                        __ptext40 42FC                          __ptext32 4178  
                        __ptext24 4040                          __ptext16 3618  
                        __ptext41 421E                          __ptext33 427A  
                        __ptext25 38F0                          __ptext17 3BF4  
                        __ptext42 42BE                          __ptext34 3F6A  
                        __ptext26 4304                          __ptext18 2308  
                        __ptext43 2EE2                          __ptext35 3E22  
                        __ptext27 40C8                          __ptext19 3B44  
                        __ptext44 42D4                          __ptext36 3D68  
                        __ptext28 33AE                          __ptext45 42EA  
                        __ptext37 4250                          __ptext29 3226  
                        __ptext46 42A0                          __ptext38 41B0  
                        __ptext39 3F1E                  __size_of_isupper 0038  
                        _lcd_dato 4250                          _lcd_init 41B0  
                        _lcd_goto 3F1E                  __size_of_sprintf 0052  
                __size_of_tolower 0060                        strcpy@dest 0001  
                __size_of_strncmp 00D6                     __size_of_atoi 0190  
                   __size_of_main 034A                     __size_of_dtoa 02E4  
                        efgtoa@fp 0060                          efgtoa@ne 0082  
                        efgtoa@pp 007E                          efgtoa@ou 006C  
                        int$flags 005F                          _vfprintf 3C9E  
                        main@conv 00F0                       ??_lcd_print 0005  
                ___aomod@dividend 0001  __size_of_lcd_print_with_position 0058  
                  _vfpfcnvrt$1032 00BA                    _vfpfcnvrt$1026 00B6  
                  _vfpfcnvrt$1027 00B8                        _INTCONbits 000FF2  
                        isdigit@c 0001                          intlevel2 0000  
                       sprintf@ap 00D6                          isspace@c 0001  
        __end_of_lcd_time_control 42D4                         strcpy@src 0003  
                        isupper@c 0001                         strncmp@_l 0001  
                       strncmp@_r 0003                        _OSCCONbits 000FD3  
                     efgtoa@nmode 008A                   ___aomod@divisor 0009  
                     ?_ADCon_Init 0001                       ??_vfpfcnvrt 00AA  
                 ___aomod@counter 0011                  lcd_goto@posicion 0009  
                        sprintf@f 00D8                          tolower@c 0007  
                        sprintf@s 00CC            __size_of___fpclassifyf 00FE  
                        strncmp@l 0008                          strncmp@n 0005  
                        strncmp@r 000A                     ___fladd@signs 0053  
                    ___aodiv@sign 0012                      ___fladd@aexp 0054  
                    ___fladd@bexp 0055          lcd_put_caracter@caracter 0003  
                    ___aomod@sign 0012                      ?_lcd_control 0001  
