

Microchip MPLAB XC8 Assembler V2.20 build 20200408173844 
                                                                                               Wed Aug 26 16:48:26 2020

Microchip MPLAB XC8 C Compiler v2.20 (Free license) build 20200408173844 Og1 
     1                           	processor	18F4550
     2                           	fnconf	param0,??,?,0
     3                           	pagewidth 120
     4                           	opt	flic
     5                           	psect	smallconst,global,reloc=2,class=SMALLCONST,delta=1,noexec
     6                           	psect	cinit,global,reloc=2,class=CODE,delta=1
     7                           	psect	bssBANK0,global,class=BANK0,space=1,delta=1,lowdata,noexec
     8                           	psect	cstackBANK1,global,class=BANK1,space=1,delta=1,lowdata,noexec
     9                           	psect	cstackBANK0,global,class=BANK0,space=1,delta=1,lowdata,noexec
    10                           	psect	cstackCOMRAM,global,class=COMRAM,space=1,delta=1,lowdata,noexec
    11                           	psect	text0,global,reloc=2,class=CODE,delta=1
    12                           	psect	text1,global,reloc=2,class=CODE,delta=1,group=2
    13                           	psect	text2,global,reloc=2,class=CODE,delta=1,group=2
    14                           	psect	text3,global,reloc=2,class=CODE,delta=1,group=2
    15                           	psect	text4,global,reloc=2,class=CODE,delta=1,group=1
    16                           	psect	text5,global,reloc=2,class=CODE,delta=1,group=2
    17                           	psect	text6,global,reloc=2,class=CODE,delta=1,group=1
    18                           	psect	text7,global,reloc=2,class=CODE,delta=1,group=2
    19                           	psect	text8,global,reloc=2,class=CODE,delta=1,group=1
    20                           	psect	text9,global,reloc=2,class=CODE,delta=1,group=1
    21                           	psect	text10,global,reloc=2,class=CODE,delta=1,group=1
    22                           	psect	text11,global,reloc=2,class=CODE,delta=1,group=1
    23                           	psect	text12,global,reloc=2,class=CODE,delta=1,group=1
    24                           	psect	text13,global,reloc=2,class=CODE,delta=1,group=1
    25                           	psect	intsave_regs,global,class=BIGRAM,space=1,delta=1,noexec
    26                           	psect	param0,global,class=BANK0,space=1,delta=1,noexec
    27                           	psect	idloc,global,abs,ovrld,class=IDLOC,space=5,delta=1,noexec
    28                           	psect	config,global,abs,ovrld,class=CONFIG,space=4,delta=1,noexec
    29  0000                     
    30                           ; Version 2.20
    31                           ; Generated 12/02/2020 GMT
    32                           ; 
    33                           ; Copyright © 2020, Microchip Technology Inc. and its subsidiaries ("Microchip")
    34                           ; All rights reserved.
    35                           ; 
    36                           ; This software is developed by Microchip Technology Inc. and its subsidiaries ("Microch
      +                          ip").
    37                           ; 
    38                           ; Redistribution and use in source and binary forms, with or without modification, are
    39                           ; permitted provided that the following conditions are met:
    40                           ; 
    41                           ;     1. Redistributions of source code must retain the above copyright notice, this lis
      +                          t of
    42                           ;        conditions and the following disclaimer.
    43                           ; 
    44                           ;     2. Redistributions in binary form must reproduce the above copyright notice, this 
      +                          list
    45                           ;        of conditions and the following disclaimer in the documentation and/or other
    46                           ;        materials provided with the distribution.
    47                           ; 
    48                           ;     3. Microchip's name may not be used to endorse or promote products derived from th
      +                          is
    49                           ;        software without specific prior written permission.
    50                           ; 
    51                           ; THIS SOFTWARE IS PROVIDED BY MICROCHIP "AS IS" AND ANY EXPRESS OR IMPLIED WARRANTIES,
    52                           ; INCLUDING, BUT NOT LIMITED TO, THE IMPLIED WARRANTIES OF MERCHANTABILITY AND FITNESS F
      +                          OR
    53                           ; PURPOSE ARE DISCLAIMED.  IN NO EVENT SHALL MICROCHIP BE LIABLE FOR ANY DIRECT, INDIREC
      +                          T,
    54                           ; INCIDENTAL, SPECIAL, EXEMPLARY, OR CONSEQUENTIAL DAMAGES (INCLUDING BUT NOT LIMITED TO
    55                           ; PROCUREMENT OF SUBSTITUTE GOODS OR SERVICES; LOSS OF USE, DATA OR PROFITS; OR BUSINESS
    56                           ; INTERRUPTION) HOWSOEVER CAUSED AND ON ANY THEORY OF LIABILITY, WHETHER IN CONTRACT, ST
      +                          RICT
    57                           ; LIABILITY, OR TORT (INCLUDING NEGLIGENCE OR OTHERWISE) ARISING IN ANY WAY OUT OF THE U
      +                          SE OF
    58                           ; THIS SOFTWARE, EVEN IF ADVISED OF THE POSSIBILITY OF SUCH DAMAGE.
    59                           ; 
    60                           ; 
    61                           ; Code-generator required, PIC18F4550 Definitions
    62                           ; 
    63                           ; SFR Addresses
    64  0000                     
    65                           	psect	smallconst
    66  000800                     __psmallconst:
    67                           	callstack 0
    68  000800  00                 	db	0
    69  000801                     _dp_l:
    70                           	callstack 0
    71  000801  0000               	dw	0
    72  000803  0000               	dw	0
    73  000805  CFDC               	dw	53212
    74  000807  35D1               	dw	13777
    75  000809                     __end_of_dp_l:
    76                           	callstack 0
    77  000809                     _dp_h:
    78                           	callstack 0
    79  000809  0000               	dw	0
    80  00080B  0000               	dw	0
    81  00080D  C000               	dw	49152
    82  00080F  3F15               	dw	16149
    83  000811                     __end_of_dp_h:
    84                           	callstack 0
    85  000811  4260               	dw	16992
    86  000813  0DA2               	dw	3490
    87  000815                     __end_of_tiny@sqrtf$F711:
    88                           	callstack 0
    89  000815  A570               	dw	42352
    90  000817  36EC               	dw	14060
    91  000819                     __end_of_ivln2_l:
    92                           	callstack 0
    93  000819  AA3B               	dw	43579
    94  00081B  3FB8               	dw	16312
    95  00081D                     __end_of_ivln2:
    96                           	callstack 0
    97  00081D  384F               	dw	14415
    98  00081F  3F76               	dw	16246
    99  000821                     __end_of_cp:
   100                           	callstack 0
   101  000821  AA3C               	dw	43580
   102  000823  3338               	dw	13112
   103  000825                     __end_of_ovt:
   104                           	callstack 0
   105  000825  BE8C               	dw	48780
   106  000827  35BF               	dw	13759
   107  000829                     __end_of_lg2_l:
   108                           	callstack 0
   109  000829  7200               	dw	29184
   110  00082B  3F31               	dw	16177
   111  00082D                     __end_of_lg2_h:
   112                           	callstack 0
   113  00082D  7218               	dw	29208
   114  00082F  3F31               	dw	16177
   115  000831                     __end_of_lg2:
   116                           	callstack 0
   117  000831  BB4C               	dw	47948
   118  000833  3331               	dw	13105
   119  000835                     __end_of_P5:
   120                           	callstack 0
   121  000835  EA0E               	dw	59918
   122  000837  B5DD               	dw	46557
   123  000839                     __end_of_P4:
   124                           	callstack 0
   125  000839  B355               	dw	45909
   126  00083B  388A               	dw	14474
   127  00083D                     __end_of_P3:
   128                           	callstack 0
   129  00083D  0B61               	dw	2913
   130  00083F  BB36               	dw	47926
   131  000841                     __end_of_P2:
   132                           	callstack 0
   133  000841  AAAB               	dw	43691
   134  000843  3E2A               	dw	15914
   135  000845                     __end_of_P1:
   136                           	callstack 0
   137  000845  F142               	dw	61762
   138  000847  3E53               	dw	15955
   139  000849                     __end_of_L6:
   140                           	callstack 0
   141  000849  3255               	dw	12885
   142  00084B  3E6C               	dw	15980
   143  00084D                     __end_of_L5:
   144                           	callstack 0
   145  00084D  A305               	dw	41733
   146  00084F  3E8B               	dw	16011
   147  000851                     __end_of_L4:
   148                           	callstack 0
   149  000851  AAAB               	dw	43691
   150  000853  3EAA               	dw	16042
   151  000855                     __end_of_L3:
   152                           	callstack 0
   153  000855  6DB7               	dw	28087
   154  000857  3EDB               	dw	16091
   155  000859                     __end_of_L2:
   156                           	callstack 0
   157  000859  999A               	dw	39322
   158  00085B  3F19               	dw	16153
   159  00085D                     __end_of_L1:
   160                           	callstack 0
   161  00085D  4260               	dw	16992
   162  00085F  0DA2               	dw	3490
   163  000861                     __end_of_tiny:
   164                           	callstack 0
   165  000861  F2CA               	dw	62154
   166  000863  7149               	dw	29001
   167  000865                     __end_of_huge:
   168                           	callstack 0
   169  000865  0000               	dw	0
   170  000867  4B80               	dw	19328
   171  000869                     __end_of_two24:
   172                           	callstack 0
   173  000869                     _bp:
   174                           	callstack 0
   175  000869  0000               	dw	0
   176  00086B  3F80               	dw	16256
   177  00086D  0000               	dw	0
   178  00086F  3FC0               	dw	16320
   179  000871                     __end_of_bp:
   180                           	callstack 0
   181  000871  AA00               	dw	43520
   182  000873  3FB8               	dw	16312
   183  000875                     __end_of_ivln2_h:
   184                           	callstack 0
   185  000875  23C6               	dw	9158
   186  000877  B8F6               	dw	47350
   187  000879                     __end_of_cp_l:
   188                           	callstack 0
   189  000879  4000               	dw	16384
   190  00087B  3F76               	dw	16246
   191  00087D                     __end_of_cp_h:
   192                           	callstack 0
   193  0000                     _PORTAbits	set	3968
   194  0000                     _PORTD	set	3971
   195  0000                     _PORTB	set	3969
   196  0000                     _PORTA	set	3968
   197  0000                     _TRISD	set	3989
   198  0000                     _TRISB	set	3987
   199  0000                     _TRISA	set	3986
   200  0000                     _ADCON1	set	4033
   201  0000                     _OSCCONbits	set	4051
   202  00087D                     STR_1:
   203  00087D  00                 	db	0
   204  00087E  00                 	db	0	; dummy byte at the end
   205  0000                     
   206                           ; #config settings
   207                           
   208                           	psect	cinit
   209  004EF2                     __pcinit:
   210                           	callstack 0
   211  004EF2                     start_initialization:
   212                           	callstack 0
   213  004EF2                     __initialization:
   214                           	callstack 0
   215                           
   216                           ; Clear objects allocated to BANK0 (6 bytes)
   217  004EF2  0100               	movlb	0
   218  004EF4  6BBC               	clrf	(__pbssBANK0+5)& (0+255),b
   219  004EF6  6BBB               	clrf	(__pbssBANK0+4)& (0+255),b
   220  004EF8  6BBA               	clrf	(__pbssBANK0+3)& (0+255),b
   221  004EFA  6BB9               	clrf	(__pbssBANK0+2)& (0+255),b
   222  004EFC  6BB8               	clrf	(__pbssBANK0+1)& (0+255),b
   223  004EFE  6BB7               	clrf	__pbssBANK0& (0+255),b
   224  004F00                     end_of_initialization:
   225                           	callstack 0
   226  004F00                     __end_of__initialization:
   227                           	callstack 0
   228  004F00  0E00               	movlw	low (__Lmediumconst shr (0+16))
   229  004F02  6EF8               	movwf	tblptru,c
   230  004F04  0100               	movlb	0
   231  004F06  EF07  F01E         	goto	_main	;jump to C main() function
   232                           
   233                           	psect	bssBANK0
   234  0000B7                     __pbssBANK0:
   235                           	callstack 0
   236  0000B7                     fabsf@F463:
   237                           	callstack 0
   238  0000B7                     	ds	4
   239  0000BB                     _errno:
   240                           	callstack 0
   241  0000BB                     	ds	2
   242                           
   243                           	psect	cstackBANK1
   244  000100                     __pcstackBANK1:
   245                           	callstack 0
   246  000100                     _powf$913:
   247                           	callstack 0
   248                           
   249                           ; 4 bytes @ 0x0
   250  000100                     	ds	4
   251  000104                     _powf$914:
   252                           	callstack 0
   253                           
   254                           ; 4 bytes @ 0x4
   255  000104                     	ds	4
   256  000108                     _powf$918:
   257                           	callstack 0
   258                           
   259                           ; 4 bytes @ 0x8
   260  000108                     	ds	4
   261  00010C                     _powf$919:
   262                           	callstack 0
   263                           
   264                           ; 4 bytes @ 0xC
   265  00010C                     	ds	4
   266  000110                     _powf$920:
   267                           	callstack 0
   268                           
   269                           ; 4 bytes @ 0x10
   270  000110                     	ds	4
   271  000114                     _powf$921:
   272                           	callstack 0
   273                           
   274                           ; 4 bytes @ 0x14
   275  000114                     	ds	4
   276  000118                     _powf$922:
   277                           	callstack 0
   278                           
   279                           ; 4 bytes @ 0x18
   280  000118                     	ds	4
   281  00011C                     powf@t2:
   282                           	callstack 0
   283                           
   284                           ; 4 bytes @ 0x1C
   285  00011C                     	ds	4
   286  000120                     powf@z_h:
   287                           	callstack 0
   288                           
   289                           ; 4 bytes @ 0x20
   290  000120                     	ds	4
   291  000124                     powf@z_l:
   292                           	callstack 0
   293                           
   294                           ; 4 bytes @ 0x24
   295  000124                     	ds	4
   296  000128                     powf@y1:
   297                           	callstack 0
   298                           
   299                           ; 4 bytes @ 0x28
   300  000128                     	ds	4
   301  00012C                     powf@i:
   302                           	callstack 0
   303                           
   304                           ; 4 bytes @ 0x2C
   305  00012C                     	ds	4
   306  000130                     powf@s_l:
   307                           	callstack 0
   308                           
   309                           ; 4 bytes @ 0x30
   310  000130                     	ds	4
   311  000134                     powf@t_l:
   312                           	callstack 0
   313                           
   314                           ; 4 bytes @ 0x34
   315  000134                     	ds	4
   316  000138                     _powf$912:
   317                           	callstack 0
   318                           
   319                           ; 4 bytes @ 0x38
   320  000138                     	ds	4
   321  00013C                     _powf$916:
   322                           	callstack 0
   323                           
   324                           ; 4 bytes @ 0x3C
   325  00013C                     	ds	4
   326  000140                     _powf$917:
   327                           	callstack 0
   328                           
   329                           ; 4 bytes @ 0x40
   330  000140                     	ds	4
   331  000144                     powf@w:
   332                           	callstack 0
   333                           
   334                           ; 4 bytes @ 0x44
   335  000144                     	ds	4
   336  000148                     _powf$910:
   337                           	callstack 0
   338                           
   339                           ; 4 bytes @ 0x48
   340  000148                     	ds	4
   341  00014C                     powf@r:
   342                           	callstack 0
   343                           
   344                           ; 4 bytes @ 0x4C
   345  00014C                     	ds	4
   346  000150                     powf@yisint:
   347                           	callstack 0
   348                           
   349                           ; 4 bytes @ 0x50
   350  000150                     	ds	4
   351  000154                     _powf$909:
   352                           	callstack 0
   353                           
   354                           ; 4 bytes @ 0x54
   355  000154                     	ds	4
   356  000158                     _powf$915:
   357                           	callstack 0
   358                           
   359                           ; 4 bytes @ 0x58
   360  000158                     	ds	4
   361  00015C                     powf@s:
   362                           	callstack 0
   363                           
   364                           ; 4 bytes @ 0x5C
   365  00015C                     	ds	4
   366  000160                     powf@hx:
   367                           	callstack 0
   368                           
   369                           ; 4 bytes @ 0x60
   370  000160                     	ds	4
   371  000164                     powf@p_l:
   372                           	callstack 0
   373                           
   374                           ; 4 bytes @ 0x64
   375  000164                     	ds	4
   376  000168                     powf@t_h:
   377                           	callstack 0
   378                           
   379                           ; 4 bytes @ 0x68
   380  000168                     	ds	4
   381  00016C                     powf@s_h:
   382                           	callstack 0
   383                           
   384                           ; 4 bytes @ 0x6C
   385  00016C                     	ds	4
   386  000170                     powf@ax:
   387                           	callstack 0
   388                           
   389                           ; 4 bytes @ 0x70
   390  000170                     	ds	4
   391  000174                     powf@u:
   392                           	callstack 0
   393                           
   394                           ; 4 bytes @ 0x74
   395  000174                     	ds	4
   396  000178                     powf@v:
   397                           	callstack 0
   398                           
   399                           ; 4 bytes @ 0x78
   400  000178                     	ds	4
   401  00017C                     powf@n:
   402                           	callstack 0
   403                           
   404                           ; 4 bytes @ 0x7C
   405  00017C                     	ds	4
   406  000180                     powf@t1:
   407                           	callstack 0
   408                           
   409                           ; 4 bytes @ 0x80
   410  000180                     	ds	4
   411  000184                     powf@hy:
   412                           	callstack 0
   413                           
   414                           ; 4 bytes @ 0x84
   415  000184                     	ds	4
   416  000188                     powf@sn:
   417                           	callstack 0
   418                           
   419                           ; 4 bytes @ 0x88
   420  000188                     	ds	4
   421  00018C                     powf@s2:
   422                           	callstack 0
   423                           
   424                           ; 4 bytes @ 0x8C
   425  00018C                     	ds	4
   426  000190                     powf@is:
   427                           	callstack 0
   428                           
   429                           ; 4 bytes @ 0x90
   430  000190                     	ds	4
   431  000194                     _powf$911:
   432                           	callstack 0
   433                           
   434                           ; 4 bytes @ 0x94
   435  000194                     	ds	4
   436  000198                     powf@iy:
   437                           	callstack 0
   438                           
   439                           ; 4 bytes @ 0x98
   440  000198                     	ds	4
   441  00019C                     powf@p_h:
   442                           	callstack 0
   443                           
   444                           ; 4 bytes @ 0x9C
   445  00019C                     	ds	4
   446  0001A0                     powf@k:
   447                           	callstack 0
   448                           
   449                           ; 4 bytes @ 0xA0
   450  0001A0                     	ds	4
   451  0001A4                     _powf$908:
   452                           	callstack 0
   453                           
   454                           ; 4 bytes @ 0xA4
   455  0001A4                     	ds	4
   456  0001A8                     powf@ix:
   457                           	callstack 0
   458                           
   459                           ; 4 bytes @ 0xA8
   460  0001A8                     	ds	4
   461  0001AC                     powf@j:
   462                           	callstack 0
   463                           
   464                           ; 4 bytes @ 0xAC
   465  0001AC                     	ds	4
   466  0001B0                     powf@t:
   467                           	callstack 0
   468                           
   469                           ; 4 bytes @ 0xB0
   470  0001B0                     	ds	4
   471  0001B4                     powf@z:
   472                           	callstack 0
   473                           
   474                           ; 4 bytes @ 0xB4
   475  0001B4                     	ds	4
   476  0001B8                     powf@__xc8_float_word:
   477                           	callstack 0
   478                           
   479                           ; 4 bytes @ 0xB8
   480  0001B8                     	ds	4
   481                           
   482                           	psect	cstackBANK0
   483  000060                     __pcstackBANK0:
   484                           	callstack 0
   485  000060                     	ds	4
   486  000064                     sqrtf@s:
   487                           	callstack 0
   488                           
   489                           ; 4 bytes @ 0x4
   490  000064                     	ds	4
   491  000068                     sqrtf@i:
   492                           	callstack 0
   493                           
   494                           ; 4 bytes @ 0x8
   495  000068                     	ds	4
   496  00006C                     sqrtf@__xc8_float_word:
   497                           	callstack 0
   498                           
   499                           ; 4 bytes @ 0xC
   500  00006C                     	ds	4
   501  000070                     sqrtf@q:
   502                           	callstack 0
   503                           
   504                           ; 4 bytes @ 0x10
   505  000070                     	ds	4
   506  000074                     sqrtf@t:
   507                           	callstack 0
   508                           
   509                           ; 4 bytes @ 0x14
   510  000074                     	ds	4
   511  000078                     sqrtf@z:
   512                           	callstack 0
   513                           
   514                           ; 4 bytes @ 0x18
   515  000078                     	ds	4
   516  00007C                     sqrtf@m:
   517                           	callstack 0
   518                           
   519                           ; 4 bytes @ 0x1C
   520  00007C                     	ds	4
   521  000080                     sqrtf@r:
   522                           	callstack 0
   523                           
   524                           ; 4 bytes @ 0x20
   525  000080                     	ds	4
   526  000084                     sqrtf@ix:
   527                           	callstack 0
   528                           
   529                           ; 4 bytes @ 0x24
   530  000084                     	ds	4
   531  000088                     ?_powf:
   532                           	callstack 0
   533  000088                     powf@x:
   534                           	callstack 0
   535                           
   536                           ; 4 bytes @ 0x28
   537  000088                     	ds	4
   538  00008C                     powf@y:
   539                           	callstack 0
   540                           
   541                           ; 4 bytes @ 0x2C
   542  00008C                     	ds	4
   543  000090                     ??_powf:
   544                           
   545                           ; 1 bytes @ 0x30
   546  000090                     	ds	9
   547  000099                     ??___fltol:
   548                           
   549                           ; 1 bytes @ 0x39
   550  000099                     	ds	4
   551  00009D                     ??_main:
   552                           
   553                           ; 1 bytes @ 0x3D
   554  00009D                     	ds	2
   555  00009F                     _main$906:
   556                           	callstack 0
   557                           
   558                           ; 4 bytes @ 0x3F
   559  00009F                     	ds	4
   560  0000A3                     _main$907:
   561                           	callstack 0
   562                           
   563                           ; 4 bytes @ 0x43
   564  0000A3                     	ds	4
   565  0000A7                     main@mode:
   566                           	callstack 0
   567                           
   568                           ; 2 bytes @ 0x47
   569  0000A7                     	ds	2
   570  0000A9                     main@i:
   571                           	callstack 0
   572                           
   573                           ; 2 bytes @ 0x49
   574  0000A9                     	ds	2
   575  0000AB                     main@i_156:
   576                           	callstack 0
   577                           
   578                           ; 2 bytes @ 0x4B
   579  0000AB                     	ds	2
   580  0000AD                     main@i_157:
   581                           	callstack 0
   582                           
   583                           ; 2 bytes @ 0x4D
   584  0000AD                     	ds	2
   585  0000AF                     main@i_158:
   586                           	callstack 0
   587                           
   588                           ; 2 bytes @ 0x4F
   589  0000AF                     	ds	2
   590  0000B1                     main@i_159:
   591                           	callstack 0
   592                           
   593                           ; 2 bytes @ 0x51
   594  0000B1                     	ds	2
   595  0000B3                     _main$905:
   596                           	callstack 0
   597                           
   598                           ; 4 bytes @ 0x53
   599  0000B3                     	ds	4
   600                           
   601                           	psect	cstackCOMRAM
   602  000001                     __pcstackCOMRAM:
   603                           	callstack 0
   604  000001                     ?_fabsf:
   605                           	callstack 0
   606  000001                     ?_nanf:
   607                           	callstack 0
   608  000001                     ?___flneg:
   609                           	callstack 0
   610  000001                     ?___xxtofl:
   611                           	callstack 0
   612  000001                     nanf@s:
   613                           	callstack 0
   614  000001                     ___flneg@f1:
   615                           	callstack 0
   616  000001                     ___xxtofl@val:
   617                           	callstack 0
   618  000001                     fabsf@x:
   619                           	callstack 0
   620                           
   621                           ; 4 bytes @ 0x0
   622  000001                     	ds	4
   623  000005                     ??___xxtofl:
   624  000005                     fabsf@u:
   625                           	callstack 0
   626  000005                     nanf@u:
   627                           	callstack 0
   628                           
   629                           ; 4 bytes @ 0x4
   630  000005                     	ds	4
   631  000009                     ___xxtofl@sign:
   632                           	callstack 0
   633                           
   634                           ; 1 bytes @ 0x8
   635  000009                     	ds	1
   636  00000A                     ___xxtofl@exp:
   637                           	callstack 0
   638                           
   639                           ; 1 bytes @ 0x9
   640  00000A                     	ds	1
   641  00000B                     ___xxtofl@arg:
   642                           	callstack 0
   643                           
   644                           ; 4 bytes @ 0xA
   645  00000B                     	ds	4
   646  00000F                     ?___fladd:
   647                           	callstack 0
   648  00000F                     ___fladd@b:
   649                           	callstack 0
   650                           
   651                           ; 4 bytes @ 0xE
   652  00000F                     	ds	4
   653  000013                     ___fladd@a:
   654                           	callstack 0
   655                           
   656                           ; 4 bytes @ 0x12
   657  000013                     	ds	4
   658  000017                     ??___fladd:
   659                           
   660                           ; 1 bytes @ 0x16
   661  000017                     	ds	4
   662  00001B                     ___fladd@signs:
   663                           	callstack 0
   664                           
   665                           ; 1 bytes @ 0x1A
   666  00001B                     	ds	1
   667  00001C                     ___fladd@aexp:
   668                           	callstack 0
   669                           
   670                           ; 1 bytes @ 0x1B
   671  00001C                     	ds	1
   672  00001D                     ___fladd@bexp:
   673                           	callstack 0
   674                           
   675                           ; 1 bytes @ 0x1C
   676  00001D                     	ds	1
   677  00001E                     ___fladd@grs:
   678                           	callstack 0
   679                           
   680                           ; 1 bytes @ 0x1D
   681  00001E                     	ds	1
   682  00001F                     ?___flmul:
   683                           	callstack 0
   684  00001F                     ___flmul@b:
   685                           	callstack 0
   686                           
   687                           ; 4 bytes @ 0x1E
   688  00001F                     	ds	4
   689  000023                     ___flmul@a:
   690                           	callstack 0
   691                           
   692                           ; 4 bytes @ 0x22
   693  000023                     	ds	4
   694  000027                     ??___flmul:
   695                           
   696                           ; 1 bytes @ 0x26
   697  000027                     	ds	4
   698  00002B                     ___flmul@sign:
   699                           	callstack 0
   700                           
   701                           ; 1 bytes @ 0x2A
   702  00002B                     	ds	1
   703  00002C                     ___flmul@grs:
   704                           	callstack 0
   705                           
   706                           ; 4 bytes @ 0x2B
   707  00002C                     	ds	4
   708  000030                     ___flmul@aexp:
   709                           	callstack 0
   710                           
   711                           ; 1 bytes @ 0x2F
   712  000030                     	ds	1
   713  000031                     ___flmul@bexp:
   714                           	callstack 0
   715                           
   716                           ; 1 bytes @ 0x30
   717  000031                     	ds	1
   718  000032                     ___flmul@prod:
   719                           	callstack 0
   720                           
   721                           ; 4 bytes @ 0x31
   722  000032                     	ds	4
   723  000036                     ___flmul@temp:
   724                           	callstack 0
   725                           
   726                           ; 2 bytes @ 0x35
   727  000036                     	ds	2
   728  000038                     ?___flsub:
   729                           	callstack 0
   730  000038                     ?_scalbnf:
   731                           	callstack 0
   732  000038                     ___flsub@b:
   733                           	callstack 0
   734  000038                     scalbnf@x:
   735                           	callstack 0
   736                           
   737                           ; 4 bytes @ 0x37
   738  000038                     	ds	4
   739  00003C                     scalbnf@n:
   740                           	callstack 0
   741  00003C                     ___flsub@a:
   742                           	callstack 0
   743                           
   744                           ; 4 bytes @ 0x3B
   745  00003C                     	ds	2
   746  00003E                     ??_scalbnf:
   747                           
   748                           ; 1 bytes @ 0x3D
   749  00003E                     	ds	2
   750  000040                     ?___fldiv:
   751                           	callstack 0
   752  000040                     ___flge@ff1:
   753                           	callstack 0
   754  000040                     ___fldiv@b:
   755                           	callstack 0
   756                           
   757                           ; 4 bytes @ 0x3F
   758  000040                     	ds	2
   759  000042                     scalbnf@u:
   760                           	callstack 0
   761                           
   762                           ; 4 bytes @ 0x41
   763  000042                     	ds	2
   764  000044                     ___flge@ff2:
   765                           	callstack 0
   766  000044                     ___fldiv@a:
   767                           	callstack 0
   768                           
   769                           ; 4 bytes @ 0x43
   770  000044                     	ds	2
   771  000046                     scalbnf@y:
   772                           	callstack 0
   773                           
   774                           ; 4 bytes @ 0x45
   775  000046                     	ds	2
   776  000048                     ??___fldiv:
   777  000048                     ??___flge:
   778                           
   779                           ; 1 bytes @ 0x47
   780  000048                     	ds	4
   781  00004C                     ?_sqrtf:
   782                           	callstack 0
   783  00004C                     ___fldiv@rem:
   784                           	callstack 0
   785  00004C                     sqrtf@x:
   786                           	callstack 0
   787                           
   788                           ; 4 bytes @ 0x4B
   789  00004C                     	ds	4
   790  000050                     ??_sqrtf:
   791  000050                     ___fldiv@sign:
   792                           	callstack 0
   793                           
   794                           ; 1 bytes @ 0x4F
   795  000050                     	ds	1
   796  000051                     ___fldiv@new_exp:
   797                           	callstack 0
   798                           
   799                           ; 2 bytes @ 0x50
   800  000051                     	ds	2
   801  000053                     ___fldiv@grs:
   802                           	callstack 0
   803                           
   804                           ; 4 bytes @ 0x52
   805  000053                     	ds	4
   806  000057                     ___fldiv@bexp:
   807                           	callstack 0
   808                           
   809                           ; 1 bytes @ 0x56
   810  000057                     	ds	1
   811  000058                     ___fldiv@aexp:
   812                           	callstack 0
   813                           
   814                           ; 1 bytes @ 0x57
   815  000058                     	ds	1
   816  000059                     ?___fltol:
   817                           	callstack 0
   818  000059                     ___fltol@f1:
   819                           	callstack 0
   820                           
   821                           ; 4 bytes @ 0x58
   822  000059                     	ds	4
   823  00005D                     ___fltol@sign1:
   824                           	callstack 0
   825                           
   826                           ; 1 bytes @ 0x5C
   827  00005D                     	ds	1
   828  00005E                     ___fltol@exp1:
   829                           	callstack 0
   830                           
   831                           ; 1 bytes @ 0x5D
   832  00005E                     	ds	1
   833                           
   834 ;;
   835 ;;Main: autosize = 0, tempsize = 2, incstack = 0, save=0
   836 ;;
   837 ;; *************** function _main *****************
   838 ;; Defined at:
   839 ;;		line 13 in file "newmain.c"
   840 ;; Parameters:    Size  Location     Type
   841 ;;		None
   842 ;; Auto vars:     Size  Location     Type
   843 ;;  i               2   81[BANK0 ] int 
   844 ;;  i               2   79[BANK0 ] int 
   845 ;;  i               2   77[BANK0 ] int 
   846 ;;  i               2   75[BANK0 ] int 
   847 ;;  i               2   73[BANK0 ] int 
   848 ;;  mode            2   71[BANK0 ] int 
   849 ;; Return value:  Size  Location     Type
   850 ;;                  1    wreg      void 
   851 ;; Registers used:
   852 ;;		wreg, status,2, status,0, tblptrl, tblptrh, tblptru, prodl, prodh, cstack
   853 ;; Tracked objects:
   854 ;;		On entry : 0/0
   855 ;;		On exit  : 0/0
   856 ;;		Unchanged: 0/0
   857 ;; Data sizes:     COMRAM   BANK0   BANK1   BANK2   BANK3   BANK4   BANK5   BANK6   BANK7
   858 ;;      Params:         0       0       0       0       0       0       0       0       0
   859 ;;      Locals:         0      24       0       0       0       0       0       0       0
   860 ;;      Temps:          0       2       0       0       0       0       0       0       0
   861 ;;      Totals:         0      26       0       0       0       0       0       0       0
   862 ;;Total ram usage:       26 bytes
   863 ;; Hardware stack levels required when called:    3
   864 ;; This function calls:
   865 ;;		___fladd
   866 ;;		___flsub
   867 ;;		___fltol
   868 ;;		___xxtofl
   869 ;;		_powf
   870 ;; This function is called by:
   871 ;;		Startup code after reset
   872 ;; This function uses a non-reentrant model
   873 ;;
   874                           
   875                           	psect	text0
   876  003C0E                     __ptext0:
   877                           	callstack 0
   878  003C0E                     _main:
   879                           	callstack 28
   880  003C0E                     
   881                           ;newmain.c: 14:     }
   882  003C0E  0E70               	movlw	112
   883  003C10  12D3               	iorwf	211,f,c	;volatile
   884                           
   885                           ;newmain.c: 15: 
   886  003C12  0E00               	movlw	0
   887  003C14  0100               	movlb	0	; () banked
   888  003C16  6FA8               	movwf	(main@mode+1)& (0+255),b
   889  003C18  0E00               	movlw	0
   890  003C1A  6FA7               	movwf	main@mode& (0+255),b
   891                           
   892                           ;newmain.c: 16:     switch (mode) {
   893  003C1C  0E0F               	movlw	15
   894  003C1E  6EC1               	movwf	193,c	;volatile
   895                           
   896                           ;newmain.c: 17:         case 1:
   897  003C20  0E04               	movlw	4
   898  003C22  6E92               	movwf	146,c	;volatile
   899                           
   900                           ;newmain.c: 18:             for (int i=7;i>=0;i--){
   901  003C24  0E00               	movlw	0
   902  003C26  6E93               	movwf	147,c	;volatile
   903                           
   904                           ;newmain.c: 19:                 PORTD=powf(2,i);
   905  003C28  0E00               	movlw	0
   906  003C2A  6E95               	movwf	149,c	;volatile
   907                           
   908                           ;newmain.c: 20:                 _delay((unsigned long)((100)*(8000000/4000.0)));
   909  003C2C  0E00               	movlw	0
   910  003C2E  6E80               	movwf	128,c	;volatile
   911                           
   912                           ;newmain.c: 21:             }
   913  003C30  0E00               	movlw	0
   914  003C32  6E81               	movwf	129,c	;volatile
   915                           
   916                           ;newmain.c: 22:             for (int i=0;i<=7;i++){
   917  003C34  0E00               	movlw	0
   918  003C36  6E83               	movwf	131,c	;volatile
   919  003C38                     l3443:
   920                           
   921                           ;newmain.c: 25:             }
   922  003C38  A480               	btfss	128,2,c	;volatile
   923  003C3A  EF21  F01E         	goto	u3711
   924  003C3E  EF23  F01E         	goto	u3710
   925  003C42                     u3711:
   926  003C42  EF12  F020         	goto	l3537
   927  003C46                     u3710:
   928  003C46                     
   929                           ;newmain.c: 26:         break;
   930  003C46  0100               	movlb	0	; () banked
   931  003C48  4BA7               	infsnz	main@mode& (0+255),f,b
   932  003C4A  2BA8               	incf	(main@mode+1)& (0+255),f,b
   933  003C4C  EF12  F020         	goto	l3537
   934  003C50                     l3447:
   935                           
   936                           ; BSR set to: 0
   937                           ;newmain.c: 31:                 _delay((unsigned long)((2000)*(8000000/4000.0)));
   938  003C50  0E00               	movlw	0
   939  003C52  6FAA               	movwf	(main@i+1)& (0+255),b
   940  003C54  0E07               	movlw	7
   941  003C56  6FA9               	movwf	main@i& (0+255),b
   942  003C58                     l3453:
   943                           
   944                           ; BSR set to: 0
   945                           ;newmain.c: 32:             }
   946  003C58  C0A9  F001         	movff	main@i,___xxtofl@val
   947  003C5C  C0AA  F002         	movff	main@i+1,___xxtofl@val+1
   948  003C60  0E00               	movlw	0
   949  003C62  BE02               	btfsc	(___xxtofl@val+1)^0,7,c
   950  003C64  0EFF               	movlw	-1
   951  003C66  6E03               	movwf	(___xxtofl@val+2)^0,c
   952  003C68  6E04               	movwf	(___xxtofl@val+3)^0,c
   953  003C6A  0E01               	movlw	1
   954  003C6C  EC2F  F025         	call	___xxtofl
   955  003C70  C001  F0B3         	movff	?___xxtofl,_main$905
   956  003C74  C002  F0B4         	movff	?___xxtofl+1,_main$905+1
   957  003C78  C003  F0B5         	movff	?___xxtofl+2,_main$905+2
   958  003C7C  C004  F0B6         	movff	?___xxtofl+3,_main$905+3
   959  003C80                     
   960                           ;newmain.c: 32:             }
   961  003C80  C0B3  F08C         	movff	_main$905,powf@y
   962  003C84  C0B4  F08D         	movff	_main$905+1,powf@y+1
   963  003C88  C0B5  F08E         	movff	_main$905+2,powf@y+2
   964  003C8C  C0B6  F08F         	movff	_main$905+3,powf@y+3
   965  003C90  0E00               	movlw	0
   966  003C92  0100               	movlb	0	; () banked
   967  003C94  6F88               	movwf	powf@x& (0+255),b
   968  003C96  0E00               	movlw	0
   969  003C98  6F89               	movwf	(powf@x+1)& (0+255),b
   970  003C9A  0E00               	movlw	0
   971  003C9C  6F8A               	movwf	(powf@x+2)& (0+255),b
   972  003C9E  0E40               	movlw	64
   973  003CA0  6F8B               	movwf	(powf@x+3)& (0+255),b
   974  003CA2  EC40  F004         	call	_powf	;wreg free
   975  003CA6  C088  F059         	movff	?_powf,___fltol@f1
   976  003CAA  C089  F05A         	movff	?_powf+1,___fltol@f1+1
   977  003CAE  C08A  F05B         	movff	?_powf+2,___fltol@f1+2
   978  003CB2  C08B  F05C         	movff	?_powf+3,___fltol@f1+3
   979  003CB6  EC09  F026         	call	___fltol	;wreg free
   980  003CBA  5059               	movf	?___fltol^0,w,c
   981  003CBC  6E83               	movwf	131,c	;volatile
   982  003CBE                     
   983                           ;newmain.c: 33:             for (int i=7;i>=0;i--){
   984  003CBE  0E02               	movlw	2
   985  003CC0  0100               	movlb	0	; () banked
   986  003CC2  6F9E               	movwf	(??_main+1)& (0+255),b
   987  003CC4  0E04               	movlw	4
   988  003CC6  6F9D               	movwf	??_main& (0+255),b
   989  003CC8  0EBA               	movlw	186
   990  003CCA                     u3777:
   991  003CCA  2EE8               	decfsz	wreg,f,c
   992  003CCC  D7FE               	bra	u3777
   993  003CCE  2F9D               	decfsz	??_main& (0+255),f,b
   994  003CD0  D7FC               	bra	u3777
   995  003CD2  2F9E               	decfsz	(??_main+1)& (0+255),f,b
   996  003CD4  D7FA               	bra	u3777
   997  003CD6  F000               	nop	
   998  003CD8                     
   999                           ;newmain.c: 34:                 PORTB-=powf(2,i);
  1000  003CD8  0100               	movlb	0	; () banked
  1001  003CDA  07A9               	decf	main@i& (0+255),f,b
  1002  003CDC  A0D8               	btfss	status,0,c
  1003  003CDE  07AA               	decf	(main@i+1)& (0+255),f,b
  1004  003CE0                     
  1005                           ; BSR set to: 0
  1006  003CE0  BFAA               	btfsc	(main@i+1)& (0+255),7,b
  1007  003CE2  EF77  F01E         	goto	u3720
  1008  003CE6  EF75  F01E         	goto	u3721
  1009  003CEA                     u3721:
  1010  003CEA  EF2C  F01E         	goto	l3453
  1011  003CEE                     u3720:
  1012  003CEE                     
  1013                           ; BSR set to: 0
  1014                           ;newmain.c: 35:                 _delay((unsigned long)((2000)*(8000000/4000.0)));
  1015  003CEE  0E00               	movlw	0
  1016  003CF0  6FAC               	movwf	(main@i_156+1)& (0+255),b
  1017  003CF2  0E00               	movlw	0
  1018  003CF4  6FAB               	movwf	main@i_156& (0+255),b
  1019  003CF6                     l3469:
  1020                           
  1021                           ; BSR set to: 0
  1022                           ;newmain.c: 36:             }
  1023  003CF6  C0AB  F001         	movff	main@i_156,___xxtofl@val
  1024  003CFA  C0AC  F002         	movff	main@i_156+1,___xxtofl@val+1
  1025  003CFE  0E00               	movlw	0
  1026  003D00  BE02               	btfsc	(___xxtofl@val+1)^0,7,c
  1027  003D02  0EFF               	movlw	-1
  1028  003D04  6E03               	movwf	(___xxtofl@val+2)^0,c
  1029  003D06  6E04               	movwf	(___xxtofl@val+3)^0,c
  1030  003D08  0E01               	movlw	1
  1031  003D0A  EC2F  F025         	call	___xxtofl
  1032  003D0E  C001  F0B3         	movff	?___xxtofl,_main$905
  1033  003D12  C002  F0B4         	movff	?___xxtofl+1,_main$905+1
  1034  003D16  C003  F0B5         	movff	?___xxtofl+2,_main$905+2
  1035  003D1A  C004  F0B6         	movff	?___xxtofl+3,_main$905+3
  1036  003D1E                     
  1037                           ;newmain.c: 36:             }
  1038  003D1E  C0B3  F08C         	movff	_main$905,powf@y
  1039  003D22  C0B4  F08D         	movff	_main$905+1,powf@y+1
  1040  003D26  C0B5  F08E         	movff	_main$905+2,powf@y+2
  1041  003D2A  C0B6  F08F         	movff	_main$905+3,powf@y+3
  1042  003D2E  0E00               	movlw	0
  1043  003D30  0100               	movlb	0	; () banked
  1044  003D32  6F88               	movwf	powf@x& (0+255),b
  1045  003D34  0E00               	movlw	0
  1046  003D36  6F89               	movwf	(powf@x+1)& (0+255),b
  1047  003D38  0E00               	movlw	0
  1048  003D3A  6F8A               	movwf	(powf@x+2)& (0+255),b
  1049  003D3C  0E40               	movlw	64
  1050  003D3E  6F8B               	movwf	(powf@x+3)& (0+255),b
  1051  003D40  EC40  F004         	call	_powf	;wreg free
  1052  003D44  C088  F059         	movff	?_powf,___fltol@f1
  1053  003D48  C089  F05A         	movff	?_powf+1,___fltol@f1+1
  1054  003D4C  C08A  F05B         	movff	?_powf+2,___fltol@f1+2
  1055  003D50  C08B  F05C         	movff	?_powf+3,___fltol@f1+3
  1056  003D54  EC09  F026         	call	___fltol	;wreg free
  1057  003D58  5059               	movf	?___fltol^0,w,c
  1058  003D5A  6E83               	movwf	131,c	;volatile
  1059  003D5C                     
  1060                           ;newmain.c: 37:         break;
  1061  003D5C  0E02               	movlw	2
  1062  003D5E  0100               	movlb	0	; () banked
  1063  003D60  6F9E               	movwf	(??_main+1)& (0+255),b
  1064  003D62  0E04               	movlw	4
  1065  003D64  6F9D               	movwf	??_main& (0+255),b
  1066  003D66  0EBA               	movlw	186
  1067  003D68                     u3787:
  1068  003D68  2EE8               	decfsz	wreg,f,c
  1069  003D6A  D7FE               	bra	u3787
  1070  003D6C  2F9D               	decfsz	??_main& (0+255),f,b
  1071  003D6E  D7FC               	bra	u3787
  1072  003D70  2F9E               	decfsz	(??_main+1)& (0+255),f,b
  1073  003D72  D7FA               	bra	u3787
  1074  003D74  F000               	nop	
  1075  003D76                     
  1076                           ;newmain.c: 38:         case 3:
  1077  003D76  0100               	movlb	0	; () banked
  1078  003D78  4BAB               	infsnz	main@i_156& (0+255),f,b
  1079  003D7A  2BAC               	incf	(main@i_156+1)& (0+255),f,b
  1080  003D7C                     
  1081                           ; BSR set to: 0
  1082  003D7C  BFAC               	btfsc	(main@i_156+1)& (0+255),7,b
  1083  003D7E  EFCA  F01E         	goto	u3731
  1084  003D82  51AC               	movf	(main@i_156+1)& (0+255),w,b
  1085  003D84  E109               	bnz	u3730
  1086  003D86  0E08               	movlw	8
  1087  003D88  5DAB               	subwf	main@i_156& (0+255),w,b
  1088  003D8A  A0D8               	btfss	status,0,c
  1089  003D8C  EFCA  F01E         	goto	u3731
  1090  003D90  EFCC  F01E         	goto	u3730
  1091  003D94                     u3731:
  1092  003D94  EF7B  F01E         	goto	l3469
  1093  003D98                     u3730:
  1094  003D98  EF1C  F01E         	goto	l3443
  1095  003D9C                     l3479:
  1096                           
  1097                           ; BSR set to: 0
  1098                           ;newmain.c: 41:                 _delay((unsigned long)((1000)*(8000000/4000.0)));
  1099  003D9C  0E00               	movlw	0
  1100  003D9E  6E83               	movwf	131,c	;volatile
  1101                           
  1102                           ;newmain.c: 42:             }
  1103  003DA0  0E00               	movlw	0
  1104  003DA2  6FAE               	movwf	(main@i_157+1)& (0+255),b
  1105  003DA4  0E00               	movlw	0
  1106  003DA6  6FAD               	movwf	main@i_157& (0+255),b
  1107  003DA8                     l3485:
  1108                           
  1109                           ; BSR set to: 0
  1110                           ;newmain.c: 43:         break;
  1111  003DA8  C0AD  F001         	movff	main@i_157,___xxtofl@val
  1112  003DAC  C0AE  F002         	movff	main@i_157+1,___xxtofl@val+1
  1113  003DB0  0E00               	movlw	0
  1114  003DB2  BE02               	btfsc	(___xxtofl@val+1)^0,7,c
  1115  003DB4  0EFF               	movlw	-1
  1116  003DB6  6E03               	movwf	(___xxtofl@val+2)^0,c
  1117  003DB8  6E04               	movwf	(___xxtofl@val+3)^0,c
  1118  003DBA  0E01               	movlw	1
  1119  003DBC  EC2F  F025         	call	___xxtofl
  1120  003DC0  C001  F0B3         	movff	?___xxtofl,_main$905
  1121  003DC4  C002  F0B4         	movff	?___xxtofl+1,_main$905+1
  1122  003DC8  C003  F0B5         	movff	?___xxtofl+2,_main$905+2
  1123  003DCC  C004  F0B6         	movff	?___xxtofl+3,_main$905+3
  1124  003DD0                     
  1125                           ;newmain.c: 43:         break;
  1126  003DD0  C0B3  F08C         	movff	_main$905,powf@y
  1127  003DD4  C0B4  F08D         	movff	_main$905+1,powf@y+1
  1128  003DD8  C0B5  F08E         	movff	_main$905+2,powf@y+2
  1129  003DDC  C0B6  F08F         	movff	_main$905+3,powf@y+3
  1130  003DE0  0E00               	movlw	0
  1131  003DE2  0100               	movlb	0	; () banked
  1132  003DE4  6F88               	movwf	powf@x& (0+255),b
  1133  003DE6  0E00               	movlw	0
  1134  003DE8  6F89               	movwf	(powf@x+1)& (0+255),b
  1135  003DEA  0E00               	movlw	0
  1136  003DEC  6F8A               	movwf	(powf@x+2)& (0+255),b
  1137  003DEE  0E40               	movlw	64
  1138  003DF0  6F8B               	movwf	(powf@x+3)& (0+255),b
  1139  003DF2  EC40  F004         	call	_powf	;wreg free
  1140  003DF6  C088  F09F         	movff	?_powf,_main$906
  1141  003DFA  C089  F0A0         	movff	?_powf+1,_main$906+1
  1142  003DFE  C08A  F0A1         	movff	?_powf+2,_main$906+2
  1143  003E02  C08B  F0A2         	movff	?_powf+3,_main$906+3
  1144  003E06                     
  1145                           ;newmain.c: 43:         break;
  1146  003E06  C09F  F013         	movff	_main$906,___fladd@a
  1147  003E0A  C0A0  F014         	movff	_main$906+1,___fladd@a+1
  1148  003E0E  C0A1  F015         	movff	_main$906+2,___fladd@a+2
  1149  003E12  C0A2  F016         	movff	_main$906+3,___fladd@a+3
  1150  003E16  5081               	movf	129,w,c	;volatile
  1151  003E18  6E01               	movwf	___xxtofl@val^0,c
  1152  003E1A  6A02               	clrf	(___xxtofl@val+1)^0,c
  1153  003E1C  6A03               	clrf	(___xxtofl@val+2)^0,c
  1154  003E1E  6A04               	clrf	(___xxtofl@val+3)^0,c
  1155  003E20  0E00               	movlw	0
  1156  003E22  EC2F  F025         	call	___xxtofl
  1157  003E26  C001  F00F         	movff	?___xxtofl,___fladd@b
  1158  003E2A  C002  F010         	movff	?___xxtofl+1,___fladd@b+1
  1159  003E2E  C003  F011         	movff	?___xxtofl+2,___fladd@b+2
  1160  003E32  C004  F012         	movff	?___xxtofl+3,___fladd@b+3
  1161  003E36  ECA7  F01B         	call	___fladd	;wreg free
  1162  003E3A  C00F  F059         	movff	?___fladd,___fltol@f1
  1163  003E3E  C010  F05A         	movff	?___fladd+1,___fltol@f1+1
  1164  003E42  C011  F05B         	movff	?___fladd+2,___fltol@f1+2
  1165  003E46  C012  F05C         	movff	?___fladd+3,___fltol@f1+3
  1166  003E4A  EC09  F026         	call	___fltol	;wreg free
  1167  003E4E  5059               	movf	?___fltol^0,w,c
  1168  003E50  6E81               	movwf	129,c	;volatile
  1169  003E52                     
  1170                           ;newmain.c: 44:         case 4:
  1171  003E52  0E15               	movlw	21
  1172  003E54  0100               	movlb	0	; () banked
  1173  003E56  6F9E               	movwf	(??_main+1)& (0+255),b
  1174  003E58  0E4B               	movlw	75
  1175  003E5A  6F9D               	movwf	??_main& (0+255),b
  1176  003E5C  0EBE               	movlw	190
  1177  003E5E                     u3797:
  1178  003E5E  2EE8               	decfsz	wreg,f,c
  1179  003E60  D7FE               	bra	u3797
  1180  003E62  2F9D               	decfsz	??_main& (0+255),f,b
  1181  003E64  D7FC               	bra	u3797
  1182  003E66  2F9E               	decfsz	(??_main+1)& (0+255),f,b
  1183  003E68  D7FA               	bra	u3797
  1184  003E6A  F000               	nop	
  1185  003E6C                     
  1186                           ;newmain.c: 45:             PORTAbits.RA1=1;
  1187  003E6C  0100               	movlb	0	; () banked
  1188  003E6E  4BAD               	infsnz	main@i_157& (0+255),f,b
  1189  003E70  2BAE               	incf	(main@i_157+1)& (0+255),f,b
  1190  003E72                     
  1191                           ; BSR set to: 0
  1192  003E72  BFAE               	btfsc	(main@i_157+1)& (0+255),7,b
  1193  003E74  EF45  F01F         	goto	u3741
  1194  003E78  51AE               	movf	(main@i_157+1)& (0+255),w,b
  1195  003E7A  E109               	bnz	u3740
  1196  003E7C  0E08               	movlw	8
  1197  003E7E  5DAD               	subwf	main@i_157& (0+255),w,b
  1198  003E80  A0D8               	btfss	status,0,c
  1199  003E82  EF45  F01F         	goto	u3741
  1200  003E86  EF47  F01F         	goto	u3740
  1201  003E8A                     u3741:
  1202  003E8A  EFD4  F01E         	goto	l3485
  1203  003E8E                     u3740:
  1204  003E8E                     
  1205                           ; BSR set to: 0
  1206                           ;newmain.c: 46:             _delay((unsigned long)((500)*(8000000/4000.0)));
  1207  003E8E  0E00               	movlw	0
  1208  003E90  6FB0               	movwf	(main@i_158+1)& (0+255),b
  1209  003E92  0E07               	movlw	7
  1210  003E94  6FAF               	movwf	main@i_158& (0+255),b
  1211  003E96                     l3503:
  1212                           
  1213                           ; BSR set to: 0
  1214                           ;newmain.c: 47:             PORTAbits.RA1=0;
  1215  003E96  C0AF  F001         	movff	main@i_158,___xxtofl@val
  1216  003E9A  C0B0  F002         	movff	main@i_158+1,___xxtofl@val+1
  1217  003E9E  0E00               	movlw	0
  1218  003EA0  BE02               	btfsc	(___xxtofl@val+1)^0,7,c
  1219  003EA2  0EFF               	movlw	-1
  1220  003EA4  6E03               	movwf	(___xxtofl@val+2)^0,c
  1221  003EA6  6E04               	movwf	(___xxtofl@val+3)^0,c
  1222  003EA8  0E01               	movlw	1
  1223  003EAA  EC2F  F025         	call	___xxtofl
  1224  003EAE  C001  F0B3         	movff	?___xxtofl,_main$905
  1225  003EB2  C002  F0B4         	movff	?___xxtofl+1,_main$905+1
  1226  003EB6  C003  F0B5         	movff	?___xxtofl+2,_main$905+2
  1227  003EBA  C004  F0B6         	movff	?___xxtofl+3,_main$905+3
  1228  003EBE                     
  1229                           ;newmain.c: 47:             PORTAbits.RA1=0;
  1230  003EBE  C0B3  F08C         	movff	_main$905,powf@y
  1231  003EC2  C0B4  F08D         	movff	_main$905+1,powf@y+1
  1232  003EC6  C0B5  F08E         	movff	_main$905+2,powf@y+2
  1233  003ECA  C0B6  F08F         	movff	_main$905+3,powf@y+3
  1234  003ECE  0E00               	movlw	0
  1235  003ED0  0100               	movlb	0	; () banked
  1236  003ED2  6F88               	movwf	powf@x& (0+255),b
  1237  003ED4  0E00               	movlw	0
  1238  003ED6  6F89               	movwf	(powf@x+1)& (0+255),b
  1239  003ED8  0E00               	movlw	0
  1240  003EDA  6F8A               	movwf	(powf@x+2)& (0+255),b
  1241  003EDC  0E40               	movlw	64
  1242  003EDE  6F8B               	movwf	(powf@x+3)& (0+255),b
  1243  003EE0  EC40  F004         	call	_powf	;wreg free
  1244  003EE4  C088  F0A3         	movff	?_powf,_main$907
  1245  003EE8  C089  F0A4         	movff	?_powf+1,_main$907+1
  1246  003EEC  C08A  F0A5         	movff	?_powf+2,_main$907+2
  1247  003EF0  C08B  F0A6         	movff	?_powf+3,_main$907+3
  1248  003EF4                     
  1249                           ;newmain.c: 47:             PORTAbits.RA1=0;
  1250  003EF4  C0A3  F03C         	movff	_main$907,___flsub@a
  1251  003EF8  C0A4  F03D         	movff	_main$907+1,___flsub@a+1
  1252  003EFC  C0A5  F03E         	movff	_main$907+2,___flsub@a+2
  1253  003F00  C0A6  F03F         	movff	_main$907+3,___flsub@a+3
  1254  003F04  5081               	movf	129,w,c	;volatile
  1255  003F06  6E01               	movwf	___xxtofl@val^0,c
  1256  003F08  6A02               	clrf	(___xxtofl@val+1)^0,c
  1257  003F0A  6A03               	clrf	(___xxtofl@val+2)^0,c
  1258  003F0C  6A04               	clrf	(___xxtofl@val+3)^0,c
  1259  003F0E  0E00               	movlw	0
  1260  003F10  EC2F  F025         	call	___xxtofl
  1261  003F14  C001  F038         	movff	?___xxtofl,___flsub@b
  1262  003F18  C002  F039         	movff	?___xxtofl+1,___flsub@b+1
  1263  003F1C  C003  F03A         	movff	?___xxtofl+2,___flsub@b+2
  1264  003F20  C004  F03B         	movff	?___xxtofl+3,___flsub@b+3
  1265  003F24  EC0F  F027         	call	___flsub	;wreg free
  1266  003F28  C038  F059         	movff	?___flsub,___fltol@f1
  1267  003F2C  C039  F05A         	movff	?___flsub+1,___fltol@f1+1
  1268  003F30  C03A  F05B         	movff	?___flsub+2,___fltol@f1+2
  1269  003F34  C03B  F05C         	movff	?___flsub+3,___fltol@f1+3
  1270  003F38  EC09  F026         	call	___fltol	;wreg free
  1271  003F3C  5059               	movf	?___fltol^0,w,c
  1272  003F3E  6E81               	movwf	129,c	;volatile
  1273  003F40                     
  1274                           ;newmain.c: 48:             _delay((unsigned long)((500)*(8000000/4000.0)));
  1275  003F40  0E15               	movlw	21
  1276  003F42  0100               	movlb	0	; () banked
  1277  003F44  6F9E               	movwf	(??_main+1)& (0+255),b
  1278  003F46  0E4B               	movlw	75
  1279  003F48  6F9D               	movwf	??_main& (0+255),b
  1280  003F4A  0EBE               	movlw	190
  1281  003F4C                     u3807:
  1282  003F4C  2EE8               	decfsz	wreg,f,c
  1283  003F4E  D7FE               	bra	u3807
  1284  003F50  2F9D               	decfsz	??_main& (0+255),f,b
  1285  003F52  D7FC               	bra	u3807
  1286  003F54  2F9E               	decfsz	(??_main+1)& (0+255),f,b
  1287  003F56  D7FA               	bra	u3807
  1288  003F58  F000               	nop	
  1289  003F5A                     
  1290                           ;newmain.c: 49:         break;
  1291  003F5A  0100               	movlb	0	; () banked
  1292  003F5C  07AF               	decf	main@i_158& (0+255),f,b
  1293  003F5E  A0D8               	btfss	status,0,c
  1294  003F60  07B0               	decf	(main@i_158+1)& (0+255),f,b
  1295  003F62                     
  1296                           ; BSR set to: 0
  1297  003F62  BFB0               	btfsc	(main@i_158+1)& (0+255),7,b
  1298  003F64  EFB8  F01F         	goto	u3750
  1299  003F68  EFB6  F01F         	goto	u3751
  1300  003F6C                     u3751:
  1301  003F6C  EF4B  F01F         	goto	l3503
  1302  003F70                     u3750:
  1303  003F70  EF1C  F01E         	goto	l3443
  1304  003F74                     l3515:
  1305                           
  1306                           ; BSR set to: 0
  1307                           ;newmain.c: 52:             _delay((unsigned long)((200)*(8000000/4000.0)));
  1308  003F74  0E00               	movlw	0
  1309  003F76  6FB2               	movwf	(main@i_159+1)& (0+255),b
  1310  003F78  0E00               	movlw	0
  1311  003F7A  6FB1               	movwf	main@i_159& (0+255),b
  1312  003F7C                     l42:
  1313                           
  1314                           ; BSR set to: 0
  1315                           ;newmain.c: 53:         break;
  1316  003F7C  C0B1  FF80         	movff	main@i_159,3968	;volatile
  1317  003F80                     
  1318                           ; BSR set to: 0
  1319                           ;newmain.c: 54:     }
  1320  003F80  0E0B               	movlw	11
  1321  003F82  0100               	movlb	0	; () banked
  1322  003F84  6F9E               	movwf	(??_main+1)& (0+255),b
  1323  003F86  0E26               	movlw	38
  1324  003F88  6F9D               	movwf	??_main& (0+255),b
  1325  003F8A  0E5D               	movlw	93
  1326  003F8C                     u3817:
  1327  003F8C  2EE8               	decfsz	wreg,f,c
  1328  003F8E  D7FE               	bra	u3817
  1329  003F90  2F9D               	decfsz	??_main& (0+255),f,b
  1330  003F92  D7FC               	bra	u3817
  1331  003F94  2F9E               	decfsz	(??_main+1)& (0+255),f,b
  1332  003F96  D7FA               	bra	u3817
  1333  003F98  D000               	nop2	
  1334  003F9A                     
  1335                           ;newmain.c: 55:     }
  1336  003F9A  0E08               	movlw	8
  1337  003F9C  0100               	movlb	0	; () banked
  1338  003F9E  27B1               	addwf	main@i_159& (0+255),f,b
  1339  003FA0  0E00               	movlw	0
  1340  003FA2  23B2               	addwfc	(main@i_159+1)& (0+255),f,b
  1341  003FA4                     
  1342                           ; BSR set to: 0
  1343  003FA4  BFB2               	btfsc	(main@i_159+1)& (0+255),7,b
  1344  003FA6  EFDE  F01F         	goto	u3761
  1345  003FAA  51B2               	movf	(main@i_159+1)& (0+255),w,b
  1346  003FAC  E109               	bnz	u3760
  1347  003FAE  0E81               	movlw	129
  1348  003FB0  5DB1               	subwf	main@i_159& (0+255),w,b
  1349  003FB2  A0D8               	btfss	status,0,c
  1350  003FB4  EFDE  F01F         	goto	u3761
  1351  003FB8  EFE0  F01F         	goto	u3760
  1352  003FBC                     u3761:
  1353  003FBC  EFBE  F01F         	goto	l42
  1354  003FC0                     u3760:
  1355  003FC0  EF1C  F01E         	goto	l3443
  1356  003FC4                     l44:
  1357                           
  1358                           ; BSR set to: 0
  1359  003FC4  8280               	bsf	128,1,c	;volatile
  1360  003FC6                     
  1361                           ; BSR set to: 0
  1362  003FC6  0E06               	movlw	6
  1363  003FC8  0100               	movlb	0	; () banked
  1364  003FCA  6F9E               	movwf	(??_main+1)& (0+255),b
  1365  003FCC  0E13               	movlw	19
  1366  003FCE  6F9D               	movwf	??_main& (0+255),b
  1367  003FD0  0EAD               	movlw	173
  1368  003FD2                     u3827:
  1369  003FD2  2EE8               	decfsz	wreg,f,c
  1370  003FD4  D7FE               	bra	u3827
  1371  003FD6  2F9D               	decfsz	??_main& (0+255),f,b
  1372  003FD8  D7FC               	bra	u3827
  1373  003FDA  2F9E               	decfsz	(??_main+1)& (0+255),f,b
  1374  003FDC  D7FA               	bra	u3827
  1375  003FDE  D000               	nop2	
  1376  003FE0  9280               	bcf	128,1,c	;volatile
  1377  003FE2  0E06               	movlw	6
  1378  003FE4  0100               	movlb	0	; () banked
  1379  003FE6  6F9E               	movwf	(??_main+1)& (0+255),b
  1380  003FE8  0E13               	movlw	19
  1381  003FEA  6F9D               	movwf	??_main& (0+255),b
  1382  003FEC  0EAD               	movlw	173
  1383  003FEE                     u3837:
  1384  003FEE  2EE8               	decfsz	wreg,f,c
  1385  003FF0  D7FE               	bra	u3837
  1386  003FF2  2F9D               	decfsz	??_main& (0+255),f,b
  1387  003FF4  D7FC               	bra	u3837
  1388  003FF6  2F9E               	decfsz	(??_main+1)& (0+255),f,b
  1389  003FF8  D7FA               	bra	u3837
  1390  003FFA  D000               	nop2	
  1391  003FFC  EF1C  F01E         	goto	l3443
  1392  004000                     l3531:
  1393                           
  1394                           ; BSR set to: 0
  1395  004000  0E00               	movlw	0
  1396  004002  6FA8               	movwf	(main@mode+1)& (0+255),b
  1397  004004  0E00               	movlw	0
  1398  004006  6FA7               	movwf	main@mode& (0+255),b
  1399  004008                     
  1400                           ; BSR set to: 0
  1401  004008  0E03               	movlw	3
  1402  00400A  0100               	movlb	0	; () banked
  1403  00400C  6F9E               	movwf	(??_main+1)& (0+255),b
  1404  00400E  0E08               	movlw	8
  1405  004010  6F9D               	movwf	??_main& (0+255),b
  1406  004012  0E77               	movlw	119
  1407  004014                     u3847:
  1408  004014  2EE8               	decfsz	wreg,f,c
  1409  004016  D7FE               	bra	u3847
  1410  004018  2F9D               	decfsz	??_main& (0+255),f,b
  1411  00401A  D7FC               	bra	u3847
  1412  00401C  2F9E               	decfsz	(??_main+1)& (0+255),f,b
  1413  00401E  D7FA               	bra	u3847
  1414  004020  EF1C  F01E         	goto	l3443
  1415  004024                     l3537:
  1416  004024  C0A7  F09D         	movff	main@mode,??_main
  1417  004028  C0A8  F09E         	movff	main@mode+1,??_main+1
  1418                           
  1419                           ; Switch on 2 bytes has been partitioned into a top level switch of size 1, and 1 sub-sw
      +                          itches
  1420                           ; Switch size 1, requested type "simple"
  1421                           ; Number of cases is 1, Range of values is 0 to 0
  1422                           ; switch strategies available:
  1423                           ; Name         Instructions Cycles
  1424                           ; simple_byte            4     3 (average)
  1425                           ;	Chosen strategy is simple_byte
  1426  00402C  0100               	movlb	0	; () banked
  1427  00402E  519E               	movf	(??_main+1)& (0+255),w,b
  1428  004030  0A00               	xorlw	0	; case 0
  1429  004032  B4D8               	btfsc	status,2,c
  1430  004034  EF1E  F020         	goto	l3575
  1431  004038  EF00  F020         	goto	l3531
  1432  00403C                     l3575:
  1433                           
  1434                           ; BSR set to: 0
  1435                           ; Switch size 1, requested type "simple"
  1436                           ; Number of cases is 4, Range of values is 1 to 4
  1437                           ; switch strategies available:
  1438                           ; Name         Instructions Cycles
  1439                           ; simple_byte           13     7 (average)
  1440                           ;	Chosen strategy is simple_byte
  1441  00403C  519D               	movf	??_main& (0+255),w,b
  1442  00403E  0A01               	xorlw	1	; case 1
  1443  004040  B4D8               	btfsc	status,2,c
  1444  004042  EF28  F01E         	goto	l3447
  1445  004046  0A03               	xorlw	3	; case 2
  1446  004048  B4D8               	btfsc	status,2,c
  1447  00404A  EFCE  F01E         	goto	l3479
  1448  00404E  0A01               	xorlw	1	; case 3
  1449  004050  B4D8               	btfsc	status,2,c
  1450  004052  EFBA  F01F         	goto	l3515
  1451  004056  0A07               	xorlw	7	; case 4
  1452  004058  B4D8               	btfsc	status,2,c
  1453  00405A  EFE2  F01F         	goto	l44
  1454  00405E  EF00  F020         	goto	l3531
  1455  004062  EF00  F000         	goto	start
  1456  004066                     __end_of_main:
  1457                           	callstack 0
  1458                           
  1459 ;; *************** function _powf *****************
  1460 ;; Defined at:
  1461 ;;		line 52 in file "C:\Program Files\Microchip\xc8\v2.20\pic\sources\c99\common\powf.c"
  1462 ;; Parameters:    Size  Location     Type
  1463 ;;  x               4   40[BANK0 ] float 
  1464 ;;  y               4   44[BANK0 ] float 
  1465 ;; Auto vars:     Size  Location     Type
  1466 ;;  s2              4  140[BANK1 ] float 
  1467 ;;  s_h             4  108[BANK1 ] float 
  1468 ;;  t_h             4  104[BANK1 ] float 
  1469 ;;  t_l             4   52[BANK1 ] float 
  1470 ;;  s_l             4   48[BANK1 ] float 
  1471 ;;  __xc8_float_    4  184[BANK1 ] struct .
  1472 ;;  z               4  180[BANK1 ] float 
  1473 ;;  t               4  176[BANK1 ] float 
  1474 ;;  j               4  172[BANK1 ] long 
  1475 ;;  ix              4  168[BANK1 ] long 
  1476 ;;  k               4  160[BANK1 ] long 
  1477 ;;  p_h             4  156[BANK1 ] float 
  1478 ;;  iy              4  152[BANK1 ] long 
  1479 ;;  is              4  144[BANK1 ] long 
  1480 ;;  sn              4  136[BANK1 ] float 
  1481 ;;  hy              4  132[BANK1 ] long 
  1482 ;;  t1              4  128[BANK1 ] float 
  1483 ;;  n               4  124[BANK1 ] long 
  1484 ;;  v               4  120[BANK1 ] float 
  1485 ;;  u               4  116[BANK1 ] float 
  1486 ;;  ax              4  112[BANK1 ] float 
  1487 ;;  p_l             4  100[BANK1 ] float 
  1488 ;;  hx              4   96[BANK1 ] long 
  1489 ;;  s               4   92[BANK1 ] float 
  1490 ;;  yisint          4   80[BANK1 ] long 
  1491 ;;  r               4   76[BANK1 ] float 
  1492 ;;  w               4   68[BANK1 ] float 
  1493 ;;  i               4   44[BANK1 ] long 
  1494 ;;  y1              4   40[BANK1 ] float 
  1495 ;;  z_l             4   36[BANK1 ] float 
  1496 ;;  z_h             4   32[BANK1 ] float 
  1497 ;;  t2              4   28[BANK1 ] float 
  1498 ;; Return value:  Size  Location     Type
  1499 ;;                  4   40[BANK0 ] float 
  1500 ;; Registers used:
  1501 ;;		wreg, status,2, status,0, tblptrl, tblptrh, tblptru, prodl, prodh, cstack
  1502 ;; Tracked objects:
  1503 ;;		On entry : 0/0
  1504 ;;		On exit  : 0/0
  1505 ;;		Unchanged: 0/0
  1506 ;; Data sizes:     COMRAM   BANK0   BANK1   BANK2   BANK3   BANK4   BANK5   BANK6   BANK7
  1507 ;;      Params:         0       8       0       0       0       0       0       0       0
  1508 ;;      Locals:         0       0     188       0       0       0       0       0       0
  1509 ;;      Temps:          0       9       0       0       0       0       0       0       0
  1510 ;;      Totals:         0      17     188       0       0       0       0       0       0
  1511 ;;Total ram usage:      205 bytes
  1512 ;; Hardware stack levels used:    1
  1513 ;; Hardware stack levels required when called:    2
  1514 ;; This function calls:
  1515 ;;		___fladd
  1516 ;;		___fldiv
  1517 ;;		___flge
  1518 ;;		___flmul
  1519 ;;		___flneg
  1520 ;;		___flsub
  1521 ;;		___xxtofl
  1522 ;;		_fabsf
  1523 ;;		_scalbnf
  1524 ;;		_sqrtf
  1525 ;; This function is called by:
  1526 ;;		_main
  1527 ;; This function uses a non-reentrant model
  1528 ;;
  1529                           
  1530                           	psect	text1
  1531  000880                     __ptext1:
  1532                           	callstack 0
  1533  000880                     _powf:
  1534                           	callstack 28
  1535  000880  C088  F1B8         	movff	powf@x,powf@__xc8_float_word
  1536  000884  C089  F1B9         	movff	powf@x+1,powf@__xc8_float_word+1
  1537  000888  C08A  F1BA         	movff	powf@x+2,powf@__xc8_float_word+2
  1538  00088C  C08B  F1BB         	movff	powf@x+3,powf@__xc8_float_word+3
  1539  000890  C1B8  F160         	movff	powf@__xc8_float_word,powf@hx
  1540  000894  C1B9  F161         	movff	powf@__xc8_float_word+1,powf@hx+1
  1541  000898  C1BA  F162         	movff	powf@__xc8_float_word+2,powf@hx+2
  1542  00089C  C1BB  F163         	movff	powf@__xc8_float_word+3,powf@hx+3
  1543  0008A0  C08C  F1B8         	movff	powf@y,powf@__xc8_float_word
  1544  0008A4  C08D  F1B9         	movff	powf@y+1,powf@__xc8_float_word+1
  1545  0008A8  C08E  F1BA         	movff	powf@y+2,powf@__xc8_float_word+2
  1546  0008AC  C08F  F1BB         	movff	powf@y+3,powf@__xc8_float_word+3
  1547  0008B0  C1B8  F184         	movff	powf@__xc8_float_word,powf@hy
  1548  0008B4  C1B9  F185         	movff	powf@__xc8_float_word+1,powf@hy+1
  1549  0008B8  C1BA  F186         	movff	powf@__xc8_float_word+2,powf@hy+2
  1550  0008BC  C1BB  F187         	movff	powf@__xc8_float_word+3,powf@hy+3
  1551  0008C0  0EFF               	movlw	255
  1552  0008C2  0101               	movlb	1	; () banked
  1553  0008C4  1560               	andwf	powf@hx& (0+255),w,b
  1554  0008C6  6FA8               	movwf	powf@ix& (0+255),b
  1555  0008C8  0EFF               	movlw	255
  1556  0008CA  1561               	andwf	(powf@hx+1)& (0+255),w,b
  1557  0008CC  6FA9               	movwf	(powf@ix+1)& (0+255),b
  1558  0008CE  0EFF               	movlw	255
  1559  0008D0  1562               	andwf	(powf@hx+2)& (0+255),w,b
  1560  0008D2  6FAA               	movwf	(powf@ix+2)& (0+255),b
  1561  0008D4  0E7F               	movlw	127
  1562  0008D6  1563               	andwf	(powf@hx+3)& (0+255),w,b
  1563  0008D8  6FAB               	movwf	(powf@ix+3)& (0+255),b
  1564  0008DA  0EFF               	movlw	255
  1565  0008DC  1584               	andwf	powf@hy& (0+255),w,b
  1566  0008DE  6F98               	movwf	powf@iy& (0+255),b
  1567  0008E0  0EFF               	movlw	255
  1568  0008E2  1585               	andwf	(powf@hy+1)& (0+255),w,b
  1569  0008E4  6F99               	movwf	(powf@iy+1)& (0+255),b
  1570  0008E6  0EFF               	movlw	255
  1571  0008E8  1586               	andwf	(powf@hy+2)& (0+255),w,b
  1572  0008EA  6F9A               	movwf	(powf@iy+2)& (0+255),b
  1573  0008EC  0E7F               	movlw	127
  1574  0008EE  1587               	andwf	(powf@hy+3)& (0+255),w,b
  1575  0008F0  6F9B               	movwf	(powf@iy+3)& (0+255),b
  1576  0008F2  5198               	movf	powf@iy& (0+255),w,b
  1577  0008F4  1199               	iorwf	(powf@iy+1)& (0+255),w,b
  1578  0008F6  119A               	iorwf	(powf@iy+2)& (0+255),w,b
  1579  0008F8  119B               	iorwf	(powf@iy+3)& (0+255),w,b
  1580  0008FA  A4D8               	btfss	status,2,c
  1581  0008FC  EF82  F004         	goto	u3071
  1582  000900  EF84  F004         	goto	u3070
  1583  000904                     u3071:
  1584  000904  EF8F  F004         	goto	l2955
  1585  000908                     u3070:
  1586  000908                     
  1587                           ; BSR set to: 1
  1588  000908  0E00               	movlw	0
  1589  00090A  0100               	movlb	0	; () banked
  1590  00090C  6F88               	movwf	?_powf& (0+255),b
  1591  00090E  0E00               	movlw	0
  1592  000910  6F89               	movwf	(?_powf+1)& (0+255),b
  1593  000912  0E80               	movlw	128
  1594  000914  6F8A               	movwf	(?_powf+2)& (0+255),b
  1595  000916  0E3F               	movlw	63
  1596  000918  6F8B               	movwf	(?_powf+3)& (0+255),b
  1597  00091A  EF46  F019         	goto	l790
  1598  00091E                     l2955:
  1599                           
  1600                           ; BSR set to: 1
  1601  00091E  0E80               	movlw	128
  1602  000920  1962               	xorwf	(powf@hx+2)& (0+255),w,b
  1603  000922  E109               	bnz	u3081
  1604  000924  0E3F               	movlw	63
  1605  000926  1963               	xorwf	(powf@hx+3)& (0+255),w,b
  1606  000928  1160               	iorwf	powf@hx& (0+255),w,b
  1607  00092A  1161               	iorwf	(powf@hx+1)& (0+255),w,b
  1608  00092C  A4D8               	btfss	status,2,c
  1609  00092E  EF9B  F004         	goto	u3081
  1610  000932  EF9D  F004         	goto	u3080
  1611  000936                     u3081:
  1612  000936  EFA8  F004         	goto	l2961
  1613  00093A                     u3080:
  1614  00093A                     
  1615                           ; BSR set to: 1
  1616  00093A  0E00               	movlw	0
  1617  00093C  0100               	movlb	0	; () banked
  1618  00093E  6F88               	movwf	?_powf& (0+255),b
  1619  000940  0E00               	movlw	0
  1620  000942  6F89               	movwf	(?_powf+1)& (0+255),b
  1621  000944  0E80               	movlw	128
  1622  000946  6F8A               	movwf	(?_powf+2)& (0+255),b
  1623  000948  0E3F               	movlw	63
  1624  00094A  6F8B               	movwf	(?_powf+3)& (0+255),b
  1625  00094C  EF46  F019         	goto	l790
  1626  000950                     l2961:
  1627                           
  1628                           ; BSR set to: 1
  1629  000950  BFAB               	btfsc	(powf@ix+3)& (0+255),7,b
  1630  000952  EFB9  F004         	goto	u3090
  1631  000956  05A8               	decf	powf@ix& (0+255),w,b
  1632  000958  0E00               	movlw	0
  1633  00095A  59A9               	subwfb	(powf@ix+1)& (0+255),w,b
  1634  00095C  0E80               	movlw	128
  1635  00095E  59AA               	subwfb	(powf@ix+2)& (0+255),w,b
  1636  000960  0E7F               	movlw	127
  1637  000962  59AB               	subwfb	(powf@ix+3)& (0+255),w,b
  1638  000964  B0D8               	btfsc	status,0,c
  1639  000966  EFB7  F004         	goto	u3091
  1640  00096A  EFB9  F004         	goto	u3090
  1641  00096E                     u3091:
  1642  00096E  EFCA  F004         	goto	l2965
  1643  000972                     u3090:
  1644  000972                     
  1645                           ; BSR set to: 1
  1646  000972  BF9B               	btfsc	(powf@iy+3)& (0+255),7,b
  1647  000974  EFC8  F004         	goto	u3101
  1648  000978  0598               	decf	powf@iy& (0+255),w,b
  1649  00097A  0E00               	movlw	0
  1650  00097C  5999               	subwfb	(powf@iy+1)& (0+255),w,b
  1651  00097E  0E80               	movlw	128
  1652  000980  599A               	subwfb	(powf@iy+2)& (0+255),w,b
  1653  000982  0E7F               	movlw	127
  1654  000984  599B               	subwfb	(powf@iy+3)& (0+255),w,b
  1655  000986  A0D8               	btfss	status,0,c
  1656  000988  EFC8  F004         	goto	u3101
  1657  00098C  EFCA  F004         	goto	u3100
  1658  000990                     u3101:
  1659  000990  EFE6  F004         	goto	l2969
  1660  000994                     u3100:
  1661  000994                     l2965:
  1662                           
  1663                           ; BSR set to: 1
  1664  000994  C088  F00F         	movff	powf@x,___fladd@b
  1665  000998  C089  F010         	movff	powf@x+1,___fladd@b+1
  1666  00099C  C08A  F011         	movff	powf@x+2,___fladd@b+2
  1667  0009A0  C08B  F012         	movff	powf@x+3,___fladd@b+3
  1668  0009A4  C08C  F013         	movff	powf@y,___fladd@a
  1669  0009A8  C08D  F014         	movff	powf@y+1,___fladd@a+1
  1670  0009AC  C08E  F015         	movff	powf@y+2,___fladd@a+2
  1671  0009B0  C08F  F016         	movff	powf@y+3,___fladd@a+3
  1672  0009B4  ECA7  F01B         	call	___fladd	;wreg free
  1673  0009B8  C00F  F088         	movff	?___fladd,?_powf
  1674  0009BC  C010  F089         	movff	?___fladd+1,?_powf+1
  1675  0009C0  C011  F08A         	movff	?___fladd+2,?_powf+2
  1676  0009C4  C012  F08B         	movff	?___fladd+3,?_powf+3
  1677  0009C8  EF46  F019         	goto	l790
  1678  0009CC                     l2969:
  1679                           
  1680                           ; BSR set to: 1
  1681  0009CC  0E00               	movlw	0
  1682  0009CE  6F50               	movwf	powf@yisint& (0+255),b
  1683  0009D0  0E00               	movlw	0
  1684  0009D2  6F51               	movwf	(powf@yisint+1)& (0+255),b
  1685  0009D4  0E00               	movlw	0
  1686  0009D6  6F52               	movwf	(powf@yisint+2)& (0+255),b
  1687  0009D8  0E00               	movlw	0
  1688  0009DA  6F53               	movwf	(powf@yisint+3)& (0+255),b
  1689  0009DC                     
  1690                           ; BSR set to: 1
  1691  0009DC  BF63               	btfsc	(powf@hx+3)& (0+255),7,b
  1692  0009DE  EFF5  F004         	goto	u3110
  1693  0009E2  EFF3  F004         	goto	u3111
  1694  0009E6                     u3111:
  1695  0009E6  EFC1  F005         	goto	l795
  1696  0009EA                     u3110:
  1697  0009EA                     
  1698                           ; BSR set to: 1
  1699  0009EA  BF9B               	btfsc	(powf@iy+3)& (0+255),7,b
  1700  0009EC  EF01  F005         	goto	u3121
  1701  0009F0  0E80               	movlw	128
  1702  0009F2  5D9A               	subwf	(powf@iy+2)& (0+255),w,b
  1703  0009F4  0E4B               	movlw	75
  1704  0009F6  599B               	subwfb	(powf@iy+3)& (0+255),w,b
  1705  0009F8  A0D8               	btfss	status,0,c
  1706  0009FA  EF01  F005         	goto	u3121
  1707  0009FE  EF03  F005         	goto	u3120
  1708  000A02                     u3121:
  1709  000A02  EF0D  F005         	goto	l2977
  1710  000A06                     u3120:
  1711  000A06                     
  1712                           ; BSR set to: 1
  1713  000A06  0E02               	movlw	2
  1714  000A08  6F50               	movwf	powf@yisint& (0+255),b
  1715  000A0A  0E00               	movlw	0
  1716  000A0C  6F51               	movwf	(powf@yisint+1)& (0+255),b
  1717  000A0E  0E00               	movlw	0
  1718  000A10  6F52               	movwf	(powf@yisint+2)& (0+255),b
  1719  000A12  0E00               	movlw	0
  1720  000A14  6F53               	movwf	(powf@yisint+3)& (0+255),b
  1721  000A16  EFC1  F005         	goto	l795
  1722  000A1A                     l2977:
  1723                           
  1724                           ; BSR set to: 1
  1725  000A1A  BF9B               	btfsc	(powf@iy+3)& (0+255),7,b
  1726  000A1C  EF19  F005         	goto	u3131
  1727  000A20  0E80               	movlw	128
  1728  000A22  5D9A               	subwf	(powf@iy+2)& (0+255),w,b
  1729  000A24  0E3F               	movlw	63
  1730  000A26  599B               	subwfb	(powf@iy+3)& (0+255),w,b
  1731  000A28  A0D8               	btfss	status,0,c
  1732  000A2A  EF19  F005         	goto	u3131
  1733  000A2E  EF1B  F005         	goto	u3130
  1734  000A32                     u3131:
  1735  000A32  EFC1  F005         	goto	l795
  1736  000A36                     u3130:
  1737  000A36                     
  1738                           ; BSR set to: 1
  1739  000A36  0E17               	movlw	23
  1740  000A38  0100               	movlb	0	; () banked
  1741  000A3A  6F90               	movwf	??_powf& (0+255),b
  1742  000A3C  C198  F091         	movff	powf@iy,??_powf+1
  1743  000A40  C199  F092         	movff	powf@iy+1,??_powf+2
  1744  000A44  C19A  F093         	movff	powf@iy+2,??_powf+3
  1745  000A48  C19B  F094         	movff	powf@iy+3,??_powf+4
  1746  000A4C                     u3145:
  1747  000A4C  6790               	tstfsz	??_powf& (0+255),b
  1748  000A4E  EF2B  F005         	goto	u3146
  1749  000A52  EF33  F005         	goto	u3147
  1750  000A56                     u3146:
  1751  000A56  3594               	rlcf	(??_powf+4)& (0+255),w,b
  1752  000A58  3394               	rrcf	(??_powf+4)& (0+255),f,b
  1753  000A5A  3393               	rrcf	(??_powf+3)& (0+255),f,b
  1754  000A5C  3392               	rrcf	(??_powf+2)& (0+255),f,b
  1755  000A5E  3391               	rrcf	(??_powf+1)& (0+255),f,b
  1756  000A60  2F90               	decfsz	??_powf& (0+255),f,b
  1757  000A62  EF26  F005         	goto	u3145
  1758  000A66                     u3147:
  1759  000A66  0E81               	movlw	129
  1760  000A68  0100               	movlb	0	; () banked
  1761  000A6A  2591               	addwf	(??_powf+1)& (0+255),w,b
  1762  000A6C  0101               	movlb	1	; () banked
  1763  000A6E  6FA0               	movwf	powf@k& (0+255),b
  1764  000A70  0EFF               	movlw	255
  1765  000A72  0100               	movlb	0	; () banked
  1766  000A74  2192               	addwfc	(??_powf+2)& (0+255),w,b
  1767  000A76  0101               	movlb	1	; () banked
  1768  000A78  6FA1               	movwf	(powf@k+1)& (0+255),b
  1769  000A7A  0EFF               	movlw	255
  1770  000A7C  0100               	movlb	0	; () banked
  1771  000A7E  2193               	addwfc	(??_powf+3)& (0+255),w,b
  1772  000A80  0101               	movlb	1	; () banked
  1773  000A82  6FA2               	movwf	(powf@k+2)& (0+255),b
  1774  000A84  0EFF               	movlw	255
  1775  000A86  0100               	movlb	0	; () banked
  1776  000A88  2194               	addwfc	(??_powf+4)& (0+255),w,b
  1777  000A8A  0101               	movlb	1	; () banked
  1778  000A8C  6FA3               	movwf	(powf@k+3)& (0+255),b
  1779  000A8E  51A0               	movf	powf@k& (0+255),w,b
  1780  000A90  0817               	sublw	23
  1781  000A92  0100               	movlb	0	; () banked
  1782  000A94  6F90               	movwf	??_powf& (0+255),b
  1783  000A96  C198  F091         	movff	powf@iy,??_powf+1
  1784  000A9A  C199  F092         	movff	powf@iy+1,??_powf+2
  1785  000A9E  C19A  F093         	movff	powf@iy+2,??_powf+3
  1786  000AA2  C19B  F094         	movff	powf@iy+3,??_powf+4
  1787  000AA6                     u3155:
  1788  000AA6  6790               	tstfsz	??_powf& (0+255),b
  1789  000AA8  EF58  F005         	goto	u3156
  1790  000AAC  EF60  F005         	goto	u3157
  1791  000AB0                     u3156:
  1792  000AB0  3594               	rlcf	(??_powf+4)& (0+255),w,b
  1793  000AB2  3394               	rrcf	(??_powf+4)& (0+255),f,b
  1794  000AB4  3393               	rrcf	(??_powf+3)& (0+255),f,b
  1795  000AB6  3392               	rrcf	(??_powf+2)& (0+255),f,b
  1796  000AB8  3391               	rrcf	(??_powf+1)& (0+255),f,b
  1797  000ABA  2F90               	decfsz	??_powf& (0+255),f,b
  1798  000ABC  EF53  F005         	goto	u3155
  1799  000AC0                     u3157:
  1800  000AC0  C091  F1AC         	movff	??_powf+1,powf@j
  1801  000AC4  C092  F1AD         	movff	??_powf+2,powf@j+1
  1802  000AC8  C093  F1AE         	movff	??_powf+3,powf@j+2
  1803  000ACC  C094  F1AF         	movff	??_powf+4,powf@j+3
  1804  000AD0  0101               	movlb	1	; () banked
  1805  000AD2  51A0               	movf	powf@k& (0+255),w,b
  1806  000AD4  0817               	sublw	23
  1807  000AD6  0100               	movlb	0	; () banked
  1808  000AD8  6F90               	movwf	??_powf& (0+255),b
  1809  000ADA  C1AC  F091         	movff	powf@j,??_powf+1
  1810  000ADE  C1AD  F092         	movff	powf@j+1,??_powf+2
  1811  000AE2  C1AE  F093         	movff	powf@j+2,??_powf+3
  1812  000AE6  C1AF  F094         	movff	powf@j+3,??_powf+4
  1813  000AEA  2B90               	incf	??_powf& (0+255),f,b
  1814  000AEC  EF7D  F005         	goto	u3160
  1815  000AF0                     u3165:
  1816  000AF0  90D8               	bcf	status,0,c
  1817  000AF2  3791               	rlcf	(??_powf+1)& (0+255),f,b
  1818  000AF4  3792               	rlcf	(??_powf+2)& (0+255),f,b
  1819  000AF6  3793               	rlcf	(??_powf+3)& (0+255),f,b
  1820  000AF8  3794               	rlcf	(??_powf+4)& (0+255),f,b
  1821  000AFA                     u3160:
  1822  000AFA  2F90               	decfsz	??_powf& (0+255),f,b
  1823  000AFC  EF78  F005         	goto	u3165
  1824  000B00  0101               	movlb	1	; () banked
  1825  000B02  5198               	movf	powf@iy& (0+255),w,b
  1826  000B04  0100               	movlb	0	; () banked
  1827  000B06  1991               	xorwf	(??_powf+1)& (0+255),w,b
  1828  000B08  E113               	bnz	u3171
  1829  000B0A  0101               	movlb	1	; () banked
  1830  000B0C  5199               	movf	(powf@iy+1)& (0+255),w,b
  1831  000B0E  0100               	movlb	0	; () banked
  1832  000B10  1992               	xorwf	(??_powf+2)& (0+255),w,b
  1833  000B12  E10E               	bnz	u3171
  1834  000B14  0101               	movlb	1	; () banked
  1835  000B16  519A               	movf	(powf@iy+2)& (0+255),w,b
  1836  000B18  0100               	movlb	0	; () banked
  1837  000B1A  1993               	xorwf	(??_powf+3)& (0+255),w,b
  1838  000B1C  E109               	bnz	u3171
  1839  000B1E  0101               	movlb	1	; () banked
  1840  000B20  519B               	movf	(powf@iy+3)& (0+255),w,b
  1841  000B22  0100               	movlb	0	; () banked
  1842  000B24  1994               	xorwf	(??_powf+4)& (0+255),w,b
  1843  000B26  A4D8               	btfss	status,2,c
  1844  000B28  EF98  F005         	goto	u3171
  1845  000B2C  EF9A  F005         	goto	u3170
  1846  000B30                     u3171:
  1847  000B30  EFC1  F005         	goto	l795
  1848  000B34                     u3170:
  1849  000B34                     
  1850                           ; BSR set to: 0
  1851  000B34  0E01               	movlw	1
  1852  000B36  0101               	movlb	1	; () banked
  1853  000B38  15AC               	andwf	powf@j& (0+255),w,b
  1854  000B3A  0100               	movlb	0	; () banked
  1855  000B3C  6F90               	movwf	??_powf& (0+255),b
  1856  000B3E  0E00               	movlw	0
  1857  000B40  0101               	movlb	1	; () banked
  1858  000B42  15AD               	andwf	(powf@j+1)& (0+255),w,b
  1859  000B44  0100               	movlb	0	; () banked
  1860  000B46  6F91               	movwf	(??_powf+1)& (0+255),b
  1861  000B48  0E00               	movlw	0
  1862  000B4A  0101               	movlb	1	; () banked
  1863  000B4C  15AE               	andwf	(powf@j+2)& (0+255),w,b
  1864  000B4E  0100               	movlb	0	; () banked
  1865  000B50  6F92               	movwf	(??_powf+2)& (0+255),b
  1866  000B52  0E00               	movlw	0
  1867  000B54  0101               	movlb	1	; () banked
  1868  000B56  15AF               	andwf	(powf@j+3)& (0+255),w,b
  1869  000B58  0100               	movlb	0	; () banked
  1870  000B5A  6F93               	movwf	(??_powf+3)& (0+255),b
  1871  000B5C  5190               	movf	??_powf& (0+255),w,b
  1872  000B5E  0802               	sublw	2
  1873  000B60  0101               	movlb	1	; () banked
  1874  000B62  6F50               	movwf	powf@yisint& (0+255),b
  1875  000B64  0E00               	movlw	0
  1876  000B66  0100               	movlb	0	; () banked
  1877  000B68  5591               	subfwb	(??_powf+1)& (0+255),w,b
  1878  000B6A  0101               	movlb	1	; () banked
  1879  000B6C  6F51               	movwf	(powf@yisint+1)& (0+255),b
  1880  000B6E  0E00               	movlw	0
  1881  000B70  0100               	movlb	0	; () banked
  1882  000B72  5592               	subfwb	(??_powf+2)& (0+255),w,b
  1883  000B74  0101               	movlb	1	; () banked
  1884  000B76  6F52               	movwf	(powf@yisint+2)& (0+255),b
  1885  000B78  0E00               	movlw	0
  1886  000B7A  0100               	movlb	0	; () banked
  1887  000B7C  5593               	subfwb	(??_powf+3)& (0+255),w,b
  1888  000B7E  0101               	movlb	1	; () banked
  1889  000B80  6F53               	movwf	(powf@yisint+3)& (0+255),b
  1890  000B82                     l795:
  1891  000B82  0E80               	movlw	128
  1892  000B84  0101               	movlb	1	; () banked
  1893  000B86  199A               	xorwf	(powf@iy+2)& (0+255),w,b
  1894  000B88  E109               	bnz	u3181
  1895  000B8A  0E7F               	movlw	127
  1896  000B8C  199B               	xorwf	(powf@iy+3)& (0+255),w,b
  1897  000B8E  1198               	iorwf	powf@iy& (0+255),w,b
  1898  000B90  1199               	iorwf	(powf@iy+1)& (0+255),w,b
  1899  000B92  A4D8               	btfss	status,2,c
  1900  000B94  EFCE  F005         	goto	u3181
  1901  000B98  EFD0  F005         	goto	u3180
  1902  000B9C                     u3181:
  1903  000B9C  EF3C  F006         	goto	l3007
  1904  000BA0                     u3180:
  1905  000BA0                     
  1906                           ; BSR set to: 1
  1907  000BA0  0E80               	movlw	128
  1908  000BA2  19AA               	xorwf	(powf@ix+2)& (0+255),w,b
  1909  000BA4  E109               	bnz	u3191
  1910  000BA6  0E3F               	movlw	63
  1911  000BA8  19AB               	xorwf	(powf@ix+3)& (0+255),w,b
  1912  000BAA  11A8               	iorwf	powf@ix& (0+255),w,b
  1913  000BAC  11A9               	iorwf	(powf@ix+1)& (0+255),w,b
  1914  000BAE  A4D8               	btfss	status,2,c
  1915  000BB0  EFDC  F005         	goto	u3191
  1916  000BB4  EFDE  F005         	goto	u3190
  1917  000BB8                     u3191:
  1918  000BB8  EFE9  F005         	goto	l2991
  1919  000BBC                     u3190:
  1920  000BBC                     
  1921                           ; BSR set to: 1
  1922  000BBC  0E00               	movlw	0
  1923  000BBE  0100               	movlb	0	; () banked
  1924  000BC0  6F88               	movwf	?_powf& (0+255),b
  1925  000BC2  0E00               	movlw	0
  1926  000BC4  6F89               	movwf	(?_powf+1)& (0+255),b
  1927  000BC6  0E80               	movlw	128
  1928  000BC8  6F8A               	movwf	(?_powf+2)& (0+255),b
  1929  000BCA  0E3F               	movlw	63
  1930  000BCC  6F8B               	movwf	(?_powf+3)& (0+255),b
  1931  000BCE  EF46  F019         	goto	l790
  1932  000BD2                     l2991:
  1933                           
  1934                           ; BSR set to: 1
  1935  000BD2  BFAB               	btfsc	(powf@ix+3)& (0+255),7,b
  1936  000BD4  EFF8  F005         	goto	u3201
  1937  000BD8  05A8               	decf	powf@ix& (0+255),w,b
  1938  000BDA  0E00               	movlw	0
  1939  000BDC  59A9               	subwfb	(powf@ix+1)& (0+255),w,b
  1940  000BDE  0E80               	movlw	128
  1941  000BE0  59AA               	subwfb	(powf@ix+2)& (0+255),w,b
  1942  000BE2  0E3F               	movlw	63
  1943  000BE4  59AB               	subwfb	(powf@ix+3)& (0+255),w,b
  1944  000BE6  A0D8               	btfss	status,0,c
  1945  000BE8  EFF8  F005         	goto	u3201
  1946  000BEC  EFFA  F005         	goto	u3200
  1947  000BF0                     u3201:
  1948  000BF0  EF16  F006         	goto	l2999
  1949  000BF4                     u3200:
  1950  000BF4                     
  1951                           ; BSR set to: 1
  1952  000BF4  BF87               	btfsc	(powf@hy+3)& (0+255),7,b
  1953  000BF6  EF01  F006         	goto	u3210
  1954  000BFA  EFFF  F005         	goto	u3211
  1955  000BFE                     u3211:
  1956  000BFE  EF0C  F006         	goto	l805
  1957  000C02                     u3210:
  1958  000C02                     
  1959                           ; BSR set to: 1
  1960  000C02  0E00               	movlw	0
  1961  000C04  0100               	movlb	0	; () banked
  1962  000C06  6F88               	movwf	?_powf& (0+255),b
  1963  000C08  0E00               	movlw	0
  1964  000C0A  6F89               	movwf	(?_powf+1)& (0+255),b
  1965  000C0C  0E00               	movlw	0
  1966  000C0E  6F8A               	movwf	(?_powf+2)& (0+255),b
  1967  000C10  0E00               	movlw	0
  1968  000C12  6F8B               	movwf	(?_powf+3)& (0+255),b
  1969  000C14  EF46  F019         	goto	l790
  1970  000C18                     l805:
  1971                           
  1972                           ; BSR set to: 1
  1973  000C18  C08C  F088         	movff	powf@y,?_powf
  1974  000C1C  C08D  F089         	movff	powf@y+1,?_powf+1
  1975  000C20  C08E  F08A         	movff	powf@y+2,?_powf+2
  1976  000C24  C08F  F08B         	movff	powf@y+3,?_powf+3
  1977  000C28  EF46  F019         	goto	l790
  1978  000C2C                     l2999:
  1979                           
  1980                           ; BSR set to: 1
  1981  000C2C  BF87               	btfsc	(powf@hy+3)& (0+255),7,b
  1982  000C2E  EF1D  F006         	goto	u3220
  1983  000C32  EF1B  F006         	goto	u3221
  1984  000C36                     u3221:
  1985  000C36  EF31  F006         	goto	l3003
  1986  000C3A                     u3220:
  1987  000C3A                     
  1988                           ; BSR set to: 1
  1989  000C3A  C08C  F001         	movff	powf@y,___flneg@f1
  1990  000C3E  C08D  F002         	movff	powf@y+1,___flneg@f1+1
  1991  000C42  C08E  F003         	movff	powf@y+2,___flneg@f1+2
  1992  000C46  C08F  F004         	movff	powf@y+3,___flneg@f1+3
  1993  000C4A  EC32  F027         	call	___flneg	;wreg free
  1994  000C4E  C001  F088         	movff	?___flneg,?_powf
  1995  000C52  C002  F089         	movff	?___flneg+1,?_powf+1
  1996  000C56  C003  F08A         	movff	?___flneg+2,?_powf+2
  1997  000C5A  C004  F08B         	movff	?___flneg+3,?_powf+3
  1998  000C5E  EF46  F019         	goto	l790
  1999  000C62                     l3003:
  2000                           
  2001                           ; BSR set to: 1
  2002  000C62  0E00               	movlw	0
  2003  000C64  0100               	movlb	0	; () banked
  2004  000C66  6F88               	movwf	?_powf& (0+255),b
  2005  000C68  0E00               	movlw	0
  2006  000C6A  6F89               	movwf	(?_powf+1)& (0+255),b
  2007  000C6C  0E00               	movlw	0
  2008  000C6E  6F8A               	movwf	(?_powf+2)& (0+255),b
  2009  000C70  0E00               	movlw	0
  2010  000C72  6F8B               	movwf	(?_powf+3)& (0+255),b
  2011  000C74  EF46  F019         	goto	l790
  2012  000C78                     l3007:
  2013                           
  2014                           ; BSR set to: 1
  2015  000C78  0E80               	movlw	128
  2016  000C7A  199A               	xorwf	(powf@iy+2)& (0+255),w,b
  2017  000C7C  E109               	bnz	u3231
  2018  000C7E  0E3F               	movlw	63
  2019  000C80  199B               	xorwf	(powf@iy+3)& (0+255),w,b
  2020  000C82  1198               	iorwf	powf@iy& (0+255),w,b
  2021  000C84  1199               	iorwf	(powf@iy+1)& (0+255),w,b
  2022  000C86  A4D8               	btfss	status,2,c
  2023  000C88  EF48  F006         	goto	u3231
  2024  000C8C  EF4A  F006         	goto	u3230
  2025  000C90                     u3231:
  2026  000C90  EF77  F006         	goto	l3013
  2027  000C94                     u3230:
  2028  000C94                     
  2029                           ; BSR set to: 1
  2030  000C94  BF87               	btfsc	(powf@hy+3)& (0+255),7,b
  2031  000C96  EF51  F006         	goto	u3240
  2032  000C9A  EF4F  F006         	goto	u3241
  2033  000C9E                     u3241:
  2034  000C9E  EF6D  F006         	goto	l815
  2035  000CA2                     u3240:
  2036  000CA2                     
  2037                           ; BSR set to: 1
  2038  000CA2  0E00               	movlw	0
  2039  000CA4  6E40               	movwf	___fldiv@b^0,c
  2040  000CA6  0E00               	movlw	0
  2041  000CA8  6E41               	movwf	(___fldiv@b+1)^0,c
  2042  000CAA  0E80               	movlw	128
  2043  000CAC  6E42               	movwf	(___fldiv@b+2)^0,c
  2044  000CAE  0E3F               	movlw	63
  2045  000CB0  6E43               	movwf	(___fldiv@b+3)^0,c
  2046  000CB2  C088  F044         	movff	powf@x,___fldiv@a
  2047  000CB6  C089  F045         	movff	powf@x+1,___fldiv@a+1
  2048  000CBA  C08A  F046         	movff	powf@x+2,___fldiv@a+2
  2049  000CBE  C08B  F047         	movff	powf@x+3,___fldiv@a+3
  2050  000CC2  EC48  F022         	call	___fldiv	;wreg free
  2051  000CC6  C040  F088         	movff	?___fldiv,?_powf
  2052  000CCA  C041  F089         	movff	?___fldiv+1,?_powf+1
  2053  000CCE  C042  F08A         	movff	?___fldiv+2,?_powf+2
  2054  000CD2  C043  F08B         	movff	?___fldiv+3,?_powf+3
  2055  000CD6  EF46  F019         	goto	l790
  2056  000CDA                     l815:
  2057                           
  2058                           ; BSR set to: 1
  2059  000CDA  C088  F088         	movff	powf@x,?_powf
  2060  000CDE  C089  F089         	movff	powf@x+1,?_powf+1
  2061  000CE2  C08A  F08A         	movff	powf@x+2,?_powf+2
  2062  000CE6  C08B  F08B         	movff	powf@x+3,?_powf+3
  2063  000CEA  EF46  F019         	goto	l790
  2064  000CEE                     l3013:
  2065                           
  2066                           ; BSR set to: 1
  2067  000CEE  0E40               	movlw	64
  2068  000CF0  1987               	xorwf	(powf@hy+3)& (0+255),w,b
  2069  000CF2  1184               	iorwf	powf@hy& (0+255),w,b
  2070  000CF4  1185               	iorwf	(powf@hy+1)& (0+255),w,b
  2071  000CF6  1186               	iorwf	(powf@hy+2)& (0+255),w,b
  2072  000CF8  A4D8               	btfss	status,2,c
  2073  000CFA  EF81  F006         	goto	u3251
  2074  000CFE  EF83  F006         	goto	u3250
  2075  000D02                     u3251:
  2076  000D02  EF9F  F006         	goto	l3019
  2077  000D06                     u3250:
  2078  000D06                     
  2079                           ; BSR set to: 1
  2080  000D06  C088  F01F         	movff	powf@x,___flmul@b
  2081  000D0A  C089  F020         	movff	powf@x+1,___flmul@b+1
  2082  000D0E  C08A  F021         	movff	powf@x+2,___flmul@b+2
  2083  000D12  C08B  F022         	movff	powf@x+3,___flmul@b+3
  2084  000D16  C088  F023         	movff	powf@x,___flmul@a
  2085  000D1A  C089  F024         	movff	powf@x+1,___flmul@a+1
  2086  000D1E  C08A  F025         	movff	powf@x+2,___flmul@a+2
  2087  000D22  C08B  F026         	movff	powf@x+3,___flmul@a+3
  2088  000D26  EC33  F020         	call	___flmul	;wreg free
  2089  000D2A  C01F  F088         	movff	?___flmul,?_powf
  2090  000D2E  C020  F089         	movff	?___flmul+1,?_powf+1
  2091  000D32  C021  F08A         	movff	?___flmul+2,?_powf+2
  2092  000D36  C022  F08B         	movff	?___flmul+3,?_powf+3
  2093  000D3A  EF46  F019         	goto	l790
  2094  000D3E                     l3019:
  2095                           
  2096                           ; BSR set to: 1
  2097  000D3E  0E3F               	movlw	63
  2098  000D40  1987               	xorwf	(powf@hy+3)& (0+255),w,b
  2099  000D42  1184               	iorwf	powf@hy& (0+255),w,b
  2100  000D44  1185               	iorwf	(powf@hy+1)& (0+255),w,b
  2101  000D46  1186               	iorwf	(powf@hy+2)& (0+255),w,b
  2102  000D48  A4D8               	btfss	status,2,c
  2103  000D4A  EFA9  F006         	goto	u3261
  2104  000D4E  EFAB  F006         	goto	u3260
  2105  000D52                     u3261:
  2106  000D52  EFC6  F006         	goto	l3027
  2107  000D56                     u3260:
  2108  000D56                     
  2109                           ; BSR set to: 1
  2110  000D56  BF63               	btfsc	(powf@hx+3)& (0+255),7,b
  2111  000D58  EFB0  F006         	goto	u3271
  2112  000D5C  EFB2  F006         	goto	u3270
  2113  000D60                     u3271:
  2114  000D60  EFC6  F006         	goto	l3027
  2115  000D64                     u3270:
  2116  000D64                     
  2117                           ; BSR set to: 1
  2118  000D64  C088  F04C         	movff	powf@x,sqrtf@x
  2119  000D68  C089  F04D         	movff	powf@x+1,sqrtf@x+1
  2120  000D6C  C08A  F04E         	movff	powf@x+2,sqrtf@x+2
  2121  000D70  C08B  F04F         	movff	powf@x+3,sqrtf@x+3
  2122  000D74  EC47  F019         	call	_sqrtf	;wreg free
  2123  000D78  C04C  F088         	movff	?_sqrtf,?_powf
  2124  000D7C  C04D  F089         	movff	?_sqrtf+1,?_powf+1
  2125  000D80  C04E  F08A         	movff	?_sqrtf+2,?_powf+2
  2126  000D84  C04F  F08B         	movff	?_sqrtf+3,?_powf+3
  2127  000D88  EF46  F019         	goto	l790
  2128  000D8C                     l3027:
  2129                           
  2130                           ; BSR set to: 1
  2131  000D8C  C088  F001         	movff	powf@x,fabsf@x
  2132  000D90  C089  F002         	movff	powf@x+1,fabsf@x+1
  2133  000D94  C08A  F003         	movff	powf@x+2,fabsf@x+2
  2134  000D98  C08B  F004         	movff	powf@x+3,fabsf@x+3
  2135  000D9C  EC4E  F027         	call	_fabsf	;wreg free
  2136  000DA0  C001  F170         	movff	?_fabsf,powf@ax
  2137  000DA4  C002  F171         	movff	?_fabsf+1,powf@ax+1
  2138  000DA8  C003  F172         	movff	?_fabsf+2,powf@ax+2
  2139  000DAC  C004  F173         	movff	?_fabsf+3,powf@ax+3
  2140  000DB0  0E80               	movlw	128
  2141  000DB2  0101               	movlb	1	; () banked
  2142  000DB4  19AA               	xorwf	(powf@ix+2)& (0+255),w,b
  2143  000DB6  E10B               	bnz	u3280
  2144  000DB8  0E7F               	movlw	127
  2145  000DBA  19AB               	xorwf	(powf@ix+3)& (0+255),w,b
  2146  000DBC  11A8               	iorwf	powf@ix& (0+255),w,b
  2147  000DBE  11A9               	iorwf	(powf@ix+1)& (0+255),w,b
  2148  000DC0  B4D8               	btfsc	status,2,c
  2149  000DC2  EFE5  F006         	goto	u3281
  2150  000DC6  EFE7  F006         	goto	u3280
  2151  000DCA                     u3281:
  2152  000DCA  EF00  F007         	goto	l823
  2153  000DCE                     u3280:
  2154  000DCE                     
  2155                           ; BSR set to: 1
  2156  000DCE  51A8               	movf	powf@ix& (0+255),w,b
  2157  000DD0  11A9               	iorwf	(powf@ix+1)& (0+255),w,b
  2158  000DD2  11AA               	iorwf	(powf@ix+2)& (0+255),w,b
  2159  000DD4  11AB               	iorwf	(powf@ix+3)& (0+255),w,b
  2160  000DD6  B4D8               	btfsc	status,2,c
  2161  000DD8  EFF0  F006         	goto	u3291
  2162  000DDC  EFF2  F006         	goto	u3290
  2163  000DE0                     u3291:
  2164  000DE0  EF00  F007         	goto	l823
  2165  000DE4                     u3290:
  2166  000DE4                     
  2167                           ; BSR set to: 1
  2168  000DE4  0E80               	movlw	128
  2169  000DE6  19AA               	xorwf	(powf@ix+2)& (0+255),w,b
  2170  000DE8  E109               	bnz	u3301
  2171  000DEA  0E3F               	movlw	63
  2172  000DEC  19AB               	xorwf	(powf@ix+3)& (0+255),w,b
  2173  000DEE  11A8               	iorwf	powf@ix& (0+255),w,b
  2174  000DF0  11A9               	iorwf	(powf@ix+1)& (0+255),w,b
  2175  000DF2  A4D8               	btfss	status,2,c
  2176  000DF4  EFFE  F006         	goto	u3301
  2177  000DF8  EF00  F007         	goto	u3300
  2178  000DFC                     u3301:
  2179  000DFC  EFCB  F007         	goto	l3053
  2180  000E00                     u3300:
  2181  000E00                     l823:
  2182                           
  2183                           ; BSR set to: 1
  2184  000E00  C170  F1B4         	movff	powf@ax,powf@z
  2185  000E04  C171  F1B5         	movff	powf@ax+1,powf@z+1
  2186  000E08  C172  F1B6         	movff	powf@ax+2,powf@z+2
  2187  000E0C  C173  F1B7         	movff	powf@ax+3,powf@z+3
  2188  000E10                     
  2189                           ; BSR set to: 1
  2190  000E10  BF87               	btfsc	(powf@hy+3)& (0+255),7,b
  2191  000E12  EF0F  F007         	goto	u3310
  2192  000E16  EF0D  F007         	goto	u3311
  2193  000E1A                     u3311:
  2194  000E1A  EF29  F007         	goto	l3039
  2195  000E1E                     u3310:
  2196  000E1E                     
  2197                           ; BSR set to: 1
  2198  000E1E  0E00               	movlw	0
  2199  000E20  6E40               	movwf	___fldiv@b^0,c
  2200  000E22  0E00               	movlw	0
  2201  000E24  6E41               	movwf	(___fldiv@b+1)^0,c
  2202  000E26  0E80               	movlw	128
  2203  000E28  6E42               	movwf	(___fldiv@b+2)^0,c
  2204  000E2A  0E3F               	movlw	63
  2205  000E2C  6E43               	movwf	(___fldiv@b+3)^0,c
  2206  000E2E  C1B4  F044         	movff	powf@z,___fldiv@a
  2207  000E32  C1B5  F045         	movff	powf@z+1,___fldiv@a+1
  2208  000E36  C1B6  F046         	movff	powf@z+2,___fldiv@a+2
  2209  000E3A  C1B7  F047         	movff	powf@z+3,___fldiv@a+3
  2210  000E3E  EC48  F022         	call	___fldiv	;wreg free
  2211  000E42  C040  F1B4         	movff	?___fldiv,powf@z
  2212  000E46  C041  F1B5         	movff	?___fldiv+1,powf@z+1
  2213  000E4A  C042  F1B6         	movff	?___fldiv+2,powf@z+2
  2214  000E4E  C043  F1B7         	movff	?___fldiv+3,powf@z+3
  2215  000E52                     l3039:
  2216  000E52  0101               	movlb	1	; () banked
  2217  000E54  BF63               	btfsc	(powf@hx+3)& (0+255),7,b
  2218  000E56  EF31  F007         	goto	u3320
  2219  000E5A  EF2F  F007         	goto	u3321
  2220  000E5E                     u3321:
  2221  000E5E  EFC1  F007         	goto	l3049
  2222  000E62                     u3320:
  2223  000E62                     
  2224                           ; BSR set to: 1
  2225  000E62  0E00               	movlw	0
  2226  000E64  25A8               	addwf	powf@ix& (0+255),w,b
  2227  000E66  0100               	movlb	0	; () banked
  2228  000E68  6F90               	movwf	??_powf& (0+255),b
  2229  000E6A  0E00               	movlw	0
  2230  000E6C  0101               	movlb	1	; () banked
  2231  000E6E  21A9               	addwfc	(powf@ix+1)& (0+255),w,b
  2232  000E70  0100               	movlb	0	; () banked
  2233  000E72  6F91               	movwf	(??_powf+1)& (0+255),b
  2234  000E74  0E80               	movlw	128
  2235  000E76  0101               	movlb	1	; () banked
  2236  000E78  21AA               	addwfc	(powf@ix+2)& (0+255),w,b
  2237  000E7A  0100               	movlb	0	; () banked
  2238  000E7C  6F92               	movwf	(??_powf+2)& (0+255),b
  2239  000E7E  0EC0               	movlw	192
  2240  000E80  0101               	movlb	1	; () banked
  2241  000E82  21AB               	addwfc	(powf@ix+3)& (0+255),w,b
  2242  000E84  0100               	movlb	0	; () banked
  2243  000E86  6F93               	movwf	(??_powf+3)& (0+255),b
  2244  000E88  0101               	movlb	1	; () banked
  2245  000E8A  5150               	movf	powf@yisint& (0+255),w,b
  2246  000E8C  0100               	movlb	0	; () banked
  2247  000E8E  1190               	iorwf	??_powf& (0+255),w,b
  2248  000E90  6F94               	movwf	(??_powf+4)& (0+255),b
  2249  000E92  0101               	movlb	1	; () banked
  2250  000E94  5151               	movf	(powf@yisint+1)& (0+255),w,b
  2251  000E96  0100               	movlb	0	; () banked
  2252  000E98  1191               	iorwf	(??_powf+1)& (0+255),w,b
  2253  000E9A  6F95               	movwf	(??_powf+5)& (0+255),b
  2254  000E9C  0101               	movlb	1	; () banked
  2255  000E9E  5152               	movf	(powf@yisint+2)& (0+255),w,b
  2256  000EA0  0100               	movlb	0	; () banked
  2257  000EA2  1192               	iorwf	(??_powf+2)& (0+255),w,b
  2258  000EA4  6F96               	movwf	(??_powf+6)& (0+255),b
  2259  000EA6  0101               	movlb	1	; () banked
  2260  000EA8  5153               	movf	(powf@yisint+3)& (0+255),w,b
  2261  000EAA  0100               	movlb	0	; () banked
  2262  000EAC  1193               	iorwf	(??_powf+3)& (0+255),w,b
  2263  000EAE  6F97               	movwf	(??_powf+7)& (0+255),b
  2264  000EB0  5194               	movf	(??_powf+4)& (0+255),w,b
  2265  000EB2  1195               	iorwf	(??_powf+5)& (0+255),w,b
  2266  000EB4  1196               	iorwf	(??_powf+6)& (0+255),w,b
  2267  000EB6  1197               	iorwf	(??_powf+7)& (0+255),w,b
  2268  000EB8  A4D8               	btfss	status,2,c
  2269  000EBA  EF61  F007         	goto	u3331
  2270  000EBE  EF63  F007         	goto	u3330
  2271  000EC2                     u3331:
  2272  000EC2  EFA3  F007         	goto	l3045
  2273  000EC6                     u3330:
  2274  000EC6                     
  2275                           ; BSR set to: 0
  2276  000EC6  C1B4  F03C         	movff	powf@z,___flsub@a
  2277  000ECA  C1B5  F03D         	movff	powf@z+1,___flsub@a+1
  2278  000ECE  C1B6  F03E         	movff	powf@z+2,___flsub@a+2
  2279  000ED2  C1B7  F03F         	movff	powf@z+3,___flsub@a+3
  2280  000ED6  C1B4  F038         	movff	powf@z,___flsub@b
  2281  000EDA  C1B5  F039         	movff	powf@z+1,___flsub@b+1
  2282  000EDE  C1B6  F03A         	movff	powf@z+2,___flsub@b+2
  2283  000EE2  C1B7  F03B         	movff	powf@z+3,___flsub@b+3
  2284  000EE6  EC0F  F027         	call	___flsub	;wreg free
  2285  000EEA  C038  F040         	movff	?___flsub,___fldiv@b
  2286  000EEE  C039  F041         	movff	?___flsub+1,___fldiv@b+1
  2287  000EF2  C03A  F042         	movff	?___flsub+2,___fldiv@b+2
  2288  000EF6  C03B  F043         	movff	?___flsub+3,___fldiv@b+3
  2289  000EFA  C1B4  F03C         	movff	powf@z,___flsub@a
  2290  000EFE  C1B5  F03D         	movff	powf@z+1,___flsub@a+1
  2291  000F02  C1B6  F03E         	movff	powf@z+2,___flsub@a+2
  2292  000F06  C1B7  F03F         	movff	powf@z+3,___flsub@a+3
  2293  000F0A  C1B4  F038         	movff	powf@z,___flsub@b
  2294  000F0E  C1B5  F039         	movff	powf@z+1,___flsub@b+1
  2295  000F12  C1B6  F03A         	movff	powf@z+2,___flsub@b+2
  2296  000F16  C1B7  F03B         	movff	powf@z+3,___flsub@b+3
  2297  000F1A  EC0F  F027         	call	___flsub	;wreg free
  2298  000F1E  C038  F044         	movff	?___flsub,___fldiv@a
  2299  000F22  C039  F045         	movff	?___flsub+1,___fldiv@a+1
  2300  000F26  C03A  F046         	movff	?___flsub+2,___fldiv@a+2
  2301  000F2A  C03B  F047         	movff	?___flsub+3,___fldiv@a+3
  2302  000F2E  EC48  F022         	call	___fldiv	;wreg free
  2303  000F32  C040  F1B4         	movff	?___fldiv,powf@z
  2304  000F36  C041  F1B5         	movff	?___fldiv+1,powf@z+1
  2305  000F3A  C042  F1B6         	movff	?___fldiv+2,powf@z+2
  2306  000F3E  C043  F1B7         	movff	?___fldiv+3,powf@z+3
  2307  000F42  EFC1  F007         	goto	l3049
  2308  000F46                     l3045:
  2309                           
  2310                           ; BSR set to: 0
  2311  000F46  0101               	movlb	1	; () banked
  2312  000F48  0550               	decf	powf@yisint& (0+255),w,b
  2313  000F4A  1151               	iorwf	(powf@yisint+1)& (0+255),w,b
  2314  000F4C  1152               	iorwf	(powf@yisint+2)& (0+255),w,b
  2315  000F4E  1153               	iorwf	(powf@yisint+3)& (0+255),w,b
  2316  000F50  A4D8               	btfss	status,2,c
  2317  000F52  EFAD  F007         	goto	u3341
  2318  000F56  EFAF  F007         	goto	u3340
  2319  000F5A                     u3341:
  2320  000F5A  EFC1  F007         	goto	l3049
  2321  000F5E                     u3340:
  2322  000F5E                     
  2323                           ; BSR set to: 1
  2324  000F5E  C1B4  F001         	movff	powf@z,___flneg@f1
  2325  000F62  C1B5  F002         	movff	powf@z+1,___flneg@f1+1
  2326  000F66  C1B6  F003         	movff	powf@z+2,___flneg@f1+2
  2327  000F6A  C1B7  F004         	movff	powf@z+3,___flneg@f1+3
  2328  000F6E  EC32  F027         	call	___flneg	;wreg free
  2329  000F72  C001  F1B4         	movff	?___flneg,powf@z
  2330  000F76  C002  F1B5         	movff	?___flneg+1,powf@z+1
  2331  000F7A  C003  F1B6         	movff	?___flneg+2,powf@z+2
  2332  000F7E  C004  F1B7         	movff	?___flneg+3,powf@z+3
  2333  000F82                     l3049:
  2334  000F82  C1B4  F088         	movff	powf@z,?_powf
  2335  000F86  C1B5  F089         	movff	powf@z+1,?_powf+1
  2336  000F8A  C1B6  F08A         	movff	powf@z+2,?_powf+2
  2337  000F8E  C1B7  F08B         	movff	powf@z+3,?_powf+3
  2338  000F92  EF46  F019         	goto	l790
  2339  000F96                     l3053:
  2340                           
  2341                           ; BSR set to: 1
  2342  000F96  0E00               	movlw	0
  2343  000F98  6F88               	movwf	powf@sn& (0+255),b
  2344  000F9A  0E00               	movlw	0
  2345  000F9C  6F89               	movwf	(powf@sn+1)& (0+255),b
  2346  000F9E  0E80               	movlw	128
  2347  000FA0  6F8A               	movwf	(powf@sn+2)& (0+255),b
  2348  000FA2  0E3F               	movlw	63
  2349  000FA4  6F8B               	movwf	(powf@sn+3)& (0+255),b
  2350  000FA6                     
  2351                           ; BSR set to: 1
  2352  000FA6  BF63               	btfsc	(powf@hx+3)& (0+255),7,b
  2353  000FA8  EFDA  F007         	goto	u3350
  2354  000FAC  EFD8  F007         	goto	u3351
  2355  000FB0                     u3351:
  2356  000FB0  EF38  F008         	goto	l3067
  2357  000FB4                     u3350:
  2358  000FB4                     
  2359                           ; BSR set to: 1
  2360  000FB4  5150               	movf	powf@yisint& (0+255),w,b
  2361  000FB6  1151               	iorwf	(powf@yisint+1)& (0+255),w,b
  2362  000FB8  1152               	iorwf	(powf@yisint+2)& (0+255),w,b
  2363  000FBA  1153               	iorwf	(powf@yisint+3)& (0+255),w,b
  2364  000FBC  A4D8               	btfss	status,2,c
  2365  000FBE  EFE3  F007         	goto	u3361
  2366  000FC2  EFE5  F007         	goto	u3360
  2367  000FC6                     u3361:
  2368  000FC6  EF25  F008         	goto	l3063
  2369  000FCA                     u3360:
  2370  000FCA                     
  2371                           ; BSR set to: 1
  2372  000FCA  C088  F03C         	movff	powf@x,___flsub@a
  2373  000FCE  C089  F03D         	movff	powf@x+1,___flsub@a+1
  2374  000FD2  C08A  F03E         	movff	powf@x+2,___flsub@a+2
  2375  000FD6  C08B  F03F         	movff	powf@x+3,___flsub@a+3
  2376  000FDA  C088  F038         	movff	powf@x,___flsub@b
  2377  000FDE  C089  F039         	movff	powf@x+1,___flsub@b+1
  2378  000FE2  C08A  F03A         	movff	powf@x+2,___flsub@b+2
  2379  000FE6  C08B  F03B         	movff	powf@x+3,___flsub@b+3
  2380  000FEA  EC0F  F027         	call	___flsub	;wreg free
  2381  000FEE  C038  F040         	movff	?___flsub,___fldiv@b
  2382  000FF2  C039  F041         	movff	?___flsub+1,___fldiv@b+1
  2383  000FF6  C03A  F042         	movff	?___flsub+2,___fldiv@b+2
  2384  000FFA  C03B  F043         	movff	?___flsub+3,___fldiv@b+3
  2385  000FFE  C088  F03C         	movff	powf@x,___flsub@a
  2386  001002  C089  F03D         	movff	powf@x+1,___flsub@a+1
  2387  001006  C08A  F03E         	movff	powf@x+2,___flsub@a+2
  2388  00100A  C08B  F03F         	movff	powf@x+3,___flsub@a+3
  2389  00100E  C088  F038         	movff	powf@x,___flsub@b
  2390  001012  C089  F039         	movff	powf@x+1,___flsub@b+1
  2391  001016  C08A  F03A         	movff	powf@x+2,___flsub@b+2
  2392  00101A  C08B  F03B         	movff	powf@x+3,___flsub@b+3
  2393  00101E  EC0F  F027         	call	___flsub	;wreg free
  2394  001022  C038  F044         	movff	?___flsub,___fldiv@a
  2395  001026  C039  F045         	movff	?___flsub+1,___fldiv@a+1
  2396  00102A  C03A  F046         	movff	?___flsub+2,___fldiv@a+2
  2397  00102E  C03B  F047         	movff	?___flsub+3,___fldiv@a+3
  2398  001032  EC48  F022         	call	___fldiv	;wreg free
  2399  001036  C040  F088         	movff	?___fldiv,?_powf
  2400  00103A  C041  F089         	movff	?___fldiv+1,?_powf+1
  2401  00103E  C042  F08A         	movff	?___fldiv+2,?_powf+2
  2402  001042  C043  F08B         	movff	?___fldiv+3,?_powf+3
  2403  001046  EF46  F019         	goto	l790
  2404  00104A                     l3063:
  2405                           
  2406                           ; BSR set to: 1
  2407  00104A  0550               	decf	powf@yisint& (0+255),w,b
  2408  00104C  1151               	iorwf	(powf@yisint+1)& (0+255),w,b
  2409  00104E  1152               	iorwf	(powf@yisint+2)& (0+255),w,b
  2410  001050  1153               	iorwf	(powf@yisint+3)& (0+255),w,b
  2411  001052  A4D8               	btfss	status,2,c
  2412  001054  EF2E  F008         	goto	u3371
  2413  001058  EF30  F008         	goto	u3370
  2414  00105C                     u3371:
  2415  00105C  EF38  F008         	goto	l3067
  2416  001060                     u3370:
  2417  001060                     
  2418                           ; BSR set to: 1
  2419  001060  0E00               	movlw	0
  2420  001062  6F88               	movwf	powf@sn& (0+255),b
  2421  001064  0E00               	movlw	0
  2422  001066  6F89               	movwf	(powf@sn+1)& (0+255),b
  2423  001068  0E80               	movlw	128
  2424  00106A  6F8A               	movwf	(powf@sn+2)& (0+255),b
  2425  00106C  0EBF               	movlw	191
  2426  00106E  6F8B               	movwf	(powf@sn+3)& (0+255),b
  2427  001070                     l3067:
  2428                           
  2429                           ; BSR set to: 1
  2430  001070  BF9B               	btfsc	(powf@iy+3)& (0+255),7,b
  2431  001072  EF47  F008         	goto	u3381
  2432  001076  0598               	decf	powf@iy& (0+255),w,b
  2433  001078  0E00               	movlw	0
  2434  00107A  5999               	subwfb	(powf@iy+1)& (0+255),w,b
  2435  00107C  0E00               	movlw	0
  2436  00107E  599A               	subwfb	(powf@iy+2)& (0+255),w,b
  2437  001080  0E4D               	movlw	77
  2438  001082  599B               	subwfb	(powf@iy+3)& (0+255),w,b
  2439  001084  A0D8               	btfss	status,0,c
  2440  001086  EF47  F008         	goto	u3381
  2441  00108A  EF49  F008         	goto	u3380
  2442  00108E                     u3381:
  2443  00108E  EFCE  F00A         	goto	l3115
  2444  001092                     u3380:
  2445  001092                     
  2446                           ; BSR set to: 1
  2447  001092  BFAB               	btfsc	(powf@ix+3)& (0+255),7,b
  2448  001094  EF5B  F008         	goto	u3390
  2449  001098  0EF8               	movlw	248
  2450  00109A  5DA8               	subwf	powf@ix& (0+255),w,b
  2451  00109C  0EFF               	movlw	255
  2452  00109E  59A9               	subwfb	(powf@ix+1)& (0+255),w,b
  2453  0010A0  0E7F               	movlw	127
  2454  0010A2  59AA               	subwfb	(powf@ix+2)& (0+255),w,b
  2455  0010A4  0E3F               	movlw	63
  2456  0010A6  59AB               	subwfb	(powf@ix+3)& (0+255),w,b
  2457  0010A8  B0D8               	btfsc	status,0,c
  2458  0010AA  EF59  F008         	goto	u3391
  2459  0010AE  EF5B  F008         	goto	u3390
  2460  0010B2                     u3391:
  2461  0010B2  EFCE  F008         	goto	l3079
  2462  0010B6                     u3390:
  2463  0010B6                     
  2464                           ; BSR set to: 1
  2465  0010B6  BF87               	btfsc	(powf@hy+3)& (0+255),7,b
  2466  0010B8  EF60  F008         	goto	u3401
  2467  0010BC  EF62  F008         	goto	u3400
  2468  0010C0                     u3401:
  2469  0010C0  EF98  F008         	goto	l3075
  2470  0010C4                     u3400:
  2471  0010C4                     
  2472                           ; BSR set to: 1
  2473  0010C4  0E60               	movlw	96
  2474  0010C6  6E23               	movwf	___flmul@a^0,c
  2475  0010C8  0E42               	movlw	66
  2476  0010CA  6E24               	movwf	(___flmul@a+1)^0,c
  2477  0010CC  0EA2               	movlw	162
  2478  0010CE  6E25               	movwf	(___flmul@a+2)^0,c
  2479  0010D0  0E0D               	movlw	13
  2480  0010D2  6E26               	movwf	(___flmul@a+3)^0,c
  2481  0010D4  C188  F01F         	movff	powf@sn,___flmul@b
  2482  0010D8  C189  F020         	movff	powf@sn+1,___flmul@b+1
  2483  0010DC  C18A  F021         	movff	powf@sn+2,___flmul@b+2
  2484  0010E0  C18B  F022         	movff	powf@sn+3,___flmul@b+3
  2485  0010E4  EC33  F020         	call	___flmul	;wreg free
  2486  0010E8  C01F  F1A4         	movff	?___flmul,_powf$908
  2487  0010EC  C020  F1A5         	movff	?___flmul+1,_powf$908+1
  2488  0010F0  C021  F1A6         	movff	?___flmul+2,_powf$908+2
  2489  0010F4  C022  F1A7         	movff	?___flmul+3,_powf$908+3
  2490  0010F8  C1A4  F01F         	movff	_powf$908,___flmul@b
  2491  0010FC  C1A5  F020         	movff	_powf$908+1,___flmul@b+1
  2492  001100  C1A6  F021         	movff	_powf$908+2,___flmul@b+2
  2493  001104  C1A7  F022         	movff	_powf$908+3,___flmul@b+3
  2494  001108  0E60               	movlw	96
  2495  00110A  6E23               	movwf	___flmul@a^0,c
  2496  00110C  0E42               	movlw	66
  2497  00110E  6E24               	movwf	(___flmul@a+1)^0,c
  2498  001110  0EA2               	movlw	162
  2499  001112  6E25               	movwf	(___flmul@a+2)^0,c
  2500  001114  0E0D               	movlw	13
  2501  001116  6E26               	movwf	(___flmul@a+3)^0,c
  2502  001118  EC33  F020         	call	___flmul	;wreg free
  2503  00111C  C01F  F088         	movff	?___flmul,?_powf
  2504  001120  C020  F089         	movff	?___flmul+1,?_powf+1
  2505  001124  C021  F08A         	movff	?___flmul+2,?_powf+2
  2506  001128  C022  F08B         	movff	?___flmul+3,?_powf+3
  2507  00112C  EF46  F019         	goto	l790
  2508  001130                     l3075:
  2509                           
  2510                           ; BSR set to: 1
  2511  001130  0ECA               	movlw	202
  2512  001132  6E23               	movwf	___flmul@a^0,c
  2513  001134  0EF2               	movlw	242
  2514  001136  6E24               	movwf	(___flmul@a+1)^0,c
  2515  001138  0E49               	movlw	73
  2516  00113A  6E25               	movwf	(___flmul@a+2)^0,c
  2517  00113C  0E71               	movlw	113
  2518  00113E  6E26               	movwf	(___flmul@a+3)^0,c
  2519  001140  C188  F01F         	movff	powf@sn,___flmul@b
  2520  001144  C189  F020         	movff	powf@sn+1,___flmul@b+1
  2521  001148  C18A  F021         	movff	powf@sn+2,___flmul@b+2
  2522  00114C  C18B  F022         	movff	powf@sn+3,___flmul@b+3
  2523  001150  EC33  F020         	call	___flmul	;wreg free
  2524  001154  C01F  F1A4         	movff	?___flmul,_powf$908
  2525  001158  C020  F1A5         	movff	?___flmul+1,_powf$908+1
  2526  00115C  C021  F1A6         	movff	?___flmul+2,_powf$908+2
  2527  001160  C022  F1A7         	movff	?___flmul+3,_powf$908+3
  2528  001164  C1A4  F01F         	movff	_powf$908,___flmul@b
  2529  001168  C1A5  F020         	movff	_powf$908+1,___flmul@b+1
  2530  00116C  C1A6  F021         	movff	_powf$908+2,___flmul@b+2
  2531  001170  C1A7  F022         	movff	_powf$908+3,___flmul@b+3
  2532  001174  0ECA               	movlw	202
  2533  001176  6E23               	movwf	___flmul@a^0,c
  2534  001178  0EF2               	movlw	242
  2535  00117A  6E24               	movwf	(___flmul@a+1)^0,c
  2536  00117C  0E49               	movlw	73
  2537  00117E  6E25               	movwf	(___flmul@a+2)^0,c
  2538  001180  0E71               	movlw	113
  2539  001182  6E26               	movwf	(___flmul@a+3)^0,c
  2540  001184  EC33  F020         	call	___flmul	;wreg free
  2541  001188  C01F  F088         	movff	?___flmul,?_powf
  2542  00118C  C020  F089         	movff	?___flmul+1,?_powf+1
  2543  001190  C021  F08A         	movff	?___flmul+2,?_powf+2
  2544  001194  C022  F08B         	movff	?___flmul+3,?_powf+3
  2545  001198  EF46  F019         	goto	l790
  2546  00119C                     l3079:
  2547                           
  2548                           ; BSR set to: 1
  2549  00119C  BFAB               	btfsc	(powf@ix+3)& (0+255),7,b
  2550  00119E  EFDE  F008         	goto	u3411
  2551  0011A2  0E08               	movlw	8
  2552  0011A4  5DA8               	subwf	powf@ix& (0+255),w,b
  2553  0011A6  0E00               	movlw	0
  2554  0011A8  59A9               	subwfb	(powf@ix+1)& (0+255),w,b
  2555  0011AA  0E80               	movlw	128
  2556  0011AC  59AA               	subwfb	(powf@ix+2)& (0+255),w,b
  2557  0011AE  0E3F               	movlw	63
  2558  0011B0  59AB               	subwfb	(powf@ix+3)& (0+255),w,b
  2559  0011B2  A0D8               	btfss	status,0,c
  2560  0011B4  EFDE  F008         	goto	u3411
  2561  0011B8  EFE0  F008         	goto	u3410
  2562  0011BC                     u3411:
  2563  0011BC  EF5B  F009         	goto	l3089
  2564  0011C0                     u3410:
  2565  0011C0                     
  2566                           ; BSR set to: 1
  2567  0011C0  BF87               	btfsc	(powf@hy+3)& (0+255),7,b
  2568  0011C2  EFEF  F008         	goto	u3420
  2569  0011C6  5187               	movf	(powf@hy+3)& (0+255),w,b
  2570  0011C8  1186               	iorwf	(powf@hy+2)& (0+255),w,b
  2571  0011CA  1185               	iorwf	(powf@hy+1)& (0+255),w,b
  2572  0011CC  E106               	bnz	u3421
  2573  0011CE  0584               	decf	powf@hy& (0+255),w,b
  2574  0011D0  B0D8               	btfsc	status,0,c
  2575  0011D2  EFED  F008         	goto	u3421
  2576  0011D6  EFEF  F008         	goto	u3420
  2577  0011DA                     u3421:
  2578  0011DA  EF25  F009         	goto	l3085
  2579  0011DE                     u3420:
  2580  0011DE                     
  2581                           ; BSR set to: 1
  2582  0011DE  0E60               	movlw	96
  2583  0011E0  6E23               	movwf	___flmul@a^0,c
  2584  0011E2  0E42               	movlw	66
  2585  0011E4  6E24               	movwf	(___flmul@a+1)^0,c
  2586  0011E6  0EA2               	movlw	162
  2587  0011E8  6E25               	movwf	(___flmul@a+2)^0,c
  2588  0011EA  0E0D               	movlw	13
  2589  0011EC  6E26               	movwf	(___flmul@a+3)^0,c
  2590  0011EE  C188  F01F         	movff	powf@sn,___flmul@b
  2591  0011F2  C189  F020         	movff	powf@sn+1,___flmul@b+1
  2592  0011F6  C18A  F021         	movff	powf@sn+2,___flmul@b+2
  2593  0011FA  C18B  F022         	movff	powf@sn+3,___flmul@b+3
  2594  0011FE  EC33  F020         	call	___flmul	;wreg free
  2595  001202  C01F  F1A4         	movff	?___flmul,_powf$908
  2596  001206  C020  F1A5         	movff	?___flmul+1,_powf$908+1
  2597  00120A  C021  F1A6         	movff	?___flmul+2,_powf$908+2
  2598  00120E  C022  F1A7         	movff	?___flmul+3,_powf$908+3
  2599  001212  C1A4  F01F         	movff	_powf$908,___flmul@b
  2600  001216  C1A5  F020         	movff	_powf$908+1,___flmul@b+1
  2601  00121A  C1A6  F021         	movff	_powf$908+2,___flmul@b+2
  2602  00121E  C1A7  F022         	movff	_powf$908+3,___flmul@b+3
  2603  001222  0E60               	movlw	96
  2604  001224  6E23               	movwf	___flmul@a^0,c
  2605  001226  0E42               	movlw	66
  2606  001228  6E24               	movwf	(___flmul@a+1)^0,c
  2607  00122A  0EA2               	movlw	162
  2608  00122C  6E25               	movwf	(___flmul@a+2)^0,c
  2609  00122E  0E0D               	movlw	13
  2610  001230  6E26               	movwf	(___flmul@a+3)^0,c
  2611  001232  EC33  F020         	call	___flmul	;wreg free
  2612  001236  C01F  F088         	movff	?___flmul,?_powf
  2613  00123A  C020  F089         	movff	?___flmul+1,?_powf+1
  2614  00123E  C021  F08A         	movff	?___flmul+2,?_powf+2
  2615  001242  C022  F08B         	movff	?___flmul+3,?_powf+3
  2616  001246  EF46  F019         	goto	l790
  2617  00124A                     l3085:
  2618                           
  2619                           ; BSR set to: 1
  2620  00124A  0ECA               	movlw	202
  2621  00124C  6E23               	movwf	___flmul@a^0,c
  2622  00124E  0EF2               	movlw	242
  2623  001250  6E24               	movwf	(___flmul@a+1)^0,c
  2624  001252  0E49               	movlw	73
  2625  001254  6E25               	movwf	(___flmul@a+2)^0,c
  2626  001256  0E71               	movlw	113
  2627  001258  6E26               	movwf	(___flmul@a+3)^0,c
  2628  00125A  C188  F01F         	movff	powf@sn,___flmul@b
  2629  00125E  C189  F020         	movff	powf@sn+1,___flmul@b+1
  2630  001262  C18A  F021         	movff	powf@sn+2,___flmul@b+2
  2631  001266  C18B  F022         	movff	powf@sn+3,___flmul@b+3
  2632  00126A  EC33  F020         	call	___flmul	;wreg free
  2633  00126E  C01F  F1A4         	movff	?___flmul,_powf$908
  2634  001272  C020  F1A5         	movff	?___flmul+1,_powf$908+1
  2635  001276  C021  F1A6         	movff	?___flmul+2,_powf$908+2
  2636  00127A  C022  F1A7         	movff	?___flmul+3,_powf$908+3
  2637  00127E  C1A4  F01F         	movff	_powf$908,___flmul@b
  2638  001282  C1A5  F020         	movff	_powf$908+1,___flmul@b+1
  2639  001286  C1A6  F021         	movff	_powf$908+2,___flmul@b+2
  2640  00128A  C1A7  F022         	movff	_powf$908+3,___flmul@b+3
  2641  00128E  0ECA               	movlw	202
  2642  001290  6E23               	movwf	___flmul@a^0,c
  2643  001292  0EF2               	movlw	242
  2644  001294  6E24               	movwf	(___flmul@a+1)^0,c
  2645  001296  0E49               	movlw	73
  2646  001298  6E25               	movwf	(___flmul@a+2)^0,c
  2647  00129A  0E71               	movlw	113
  2648  00129C  6E26               	movwf	(___flmul@a+3)^0,c
  2649  00129E  EC33  F020         	call	___flmul	;wreg free
  2650  0012A2  C01F  F088         	movff	?___flmul,?_powf
  2651  0012A6  C020  F089         	movff	?___flmul+1,?_powf+1
  2652  0012AA  C021  F08A         	movff	?___flmul+2,?_powf+2
  2653  0012AE  C022  F08B         	movff	?___flmul+3,?_powf+3
  2654  0012B2  EF46  F019         	goto	l790
  2655  0012B6                     l3089:
  2656                           
  2657                           ; BSR set to: 1
  2658  0012B6  C170  F00F         	movff	powf@ax,___fladd@b
  2659  0012BA  C171  F010         	movff	powf@ax+1,___fladd@b+1
  2660  0012BE  C172  F011         	movff	powf@ax+2,___fladd@b+2
  2661  0012C2  C173  F012         	movff	powf@ax+3,___fladd@b+3
  2662  0012C6  0E00               	movlw	0
  2663  0012C8  6E13               	movwf	___fladd@a^0,c
  2664  0012CA  0E00               	movlw	0
  2665  0012CC  6E14               	movwf	(___fladd@a+1)^0,c
  2666  0012CE  0E80               	movlw	128
  2667  0012D0  6E15               	movwf	(___fladd@a+2)^0,c
  2668  0012D2  0EBF               	movlw	191
  2669  0012D4  6E16               	movwf	(___fladd@a+3)^0,c
  2670  0012D6  ECA7  F01B         	call	___fladd	;wreg free
  2671  0012DA  C00F  F1B0         	movff	?___fladd,powf@t
  2672  0012DE  C010  F1B1         	movff	?___fladd+1,powf@t+1
  2673  0012E2  C011  F1B2         	movff	?___fladd+2,powf@t+2
  2674  0012E6  C012  F1B3         	movff	?___fladd+3,powf@t+3
  2675  0012EA  0E00               	movlw	0
  2676  0012EC  6E23               	movwf	___flmul@a^0,c
  2677  0012EE  0E00               	movlw	0
  2678  0012F0  6E24               	movwf	(___flmul@a+1)^0,c
  2679  0012F2  0E80               	movlw	128
  2680  0012F4  6E25               	movwf	(___flmul@a+2)^0,c
  2681  0012F6  0E3E               	movlw	62
  2682  0012F8  6E26               	movwf	(___flmul@a+3)^0,c
  2683  0012FA  C1B0  F01F         	movff	powf@t,___flmul@b
  2684  0012FE  C1B1  F020         	movff	powf@t+1,___flmul@b+1
  2685  001302  C1B2  F021         	movff	powf@t+2,___flmul@b+2
  2686  001306  C1B3  F022         	movff	powf@t+3,___flmul@b+3
  2687  00130A  EC33  F020         	call	___flmul	;wreg free
  2688  00130E  C01F  F03C         	movff	?___flmul,___flsub@a
  2689  001312  C020  F03D         	movff	?___flmul+1,___flsub@a+1
  2690  001316  C021  F03E         	movff	?___flmul+2,___flsub@a+2
  2691  00131A  C022  F03F         	movff	?___flmul+3,___flsub@a+3
  2692  00131E  0EAB               	movlw	171
  2693  001320  6E38               	movwf	___flsub@b^0,c
  2694  001322  0EAA               	movlw	170
  2695  001324  6E39               	movwf	(___flsub@b+1)^0,c
  2696  001326  0EAA               	movlw	170
  2697  001328  6E3A               	movwf	(___flsub@b+2)^0,c
  2698  00132A  0E3E               	movlw	62
  2699  00132C  6E3B               	movwf	(___flsub@b+3)^0,c
  2700  00132E  EC0F  F027         	call	___flsub	;wreg free
  2701  001332  C038  F1A4         	movff	?___flsub,_powf$908
  2702  001336  C039  F1A5         	movff	?___flsub+1,_powf$908+1
  2703  00133A  C03A  F1A6         	movff	?___flsub+2,_powf$908+2
  2704  00133E  C03B  F1A7         	movff	?___flsub+3,_powf$908+3
  2705  001342  C1B0  F023         	movff	powf@t,___flmul@a
  2706  001346  C1B1  F024         	movff	powf@t+1,___flmul@a+1
  2707  00134A  C1B2  F025         	movff	powf@t+2,___flmul@a+2
  2708  00134E  C1B3  F026         	movff	powf@t+3,___flmul@a+3
  2709  001352  C1B0  F01F         	movff	powf@t,___flmul@b
  2710  001356  C1B1  F020         	movff	powf@t+1,___flmul@b+1
  2711  00135A  C1B2  F021         	movff	powf@t+2,___flmul@b+2
  2712  00135E  C1B3  F022         	movff	powf@t+3,___flmul@b+3
  2713  001362  EC33  F020         	call	___flmul	;wreg free
  2714  001366  C01F  F154         	movff	?___flmul,_powf$909
  2715  00136A  C020  F155         	movff	?___flmul+1,_powf$909+1
  2716  00136E  C021  F156         	movff	?___flmul+2,_powf$909+2
  2717  001372  C022  F157         	movff	?___flmul+3,_powf$909+3
  2718  001376  C1B0  F023         	movff	powf@t,___flmul@a
  2719  00137A  C1B1  F024         	movff	powf@t+1,___flmul@a+1
  2720  00137E  C1B2  F025         	movff	powf@t+2,___flmul@a+2
  2721  001382  C1B3  F026         	movff	powf@t+3,___flmul@a+3
  2722  001386  C1A4  F01F         	movff	_powf$908,___flmul@b
  2723  00138A  C1A5  F020         	movff	_powf$908+1,___flmul@b+1
  2724  00138E  C1A6  F021         	movff	_powf$908+2,___flmul@b+2
  2725  001392  C1A7  F022         	movff	_powf$908+3,___flmul@b+3
  2726  001396  EC33  F020         	call	___flmul	;wreg free
  2727  00139A  C01F  F03C         	movff	?___flmul,___flsub@a
  2728  00139E  C020  F03D         	movff	?___flmul+1,___flsub@a+1
  2729  0013A2  C021  F03E         	movff	?___flmul+2,___flsub@a+2
  2730  0013A6  C022  F03F         	movff	?___flmul+3,___flsub@a+3
  2731  0013AA  0E00               	movlw	0
  2732  0013AC  6E38               	movwf	___flsub@b^0,c
  2733  0013AE  0E00               	movlw	0
  2734  0013B0  6E39               	movwf	(___flsub@b+1)^0,c
  2735  0013B2  0E00               	movlw	0
  2736  0013B4  6E3A               	movwf	(___flsub@b+2)^0,c
  2737  0013B6  0E3F               	movlw	63
  2738  0013B8  6E3B               	movwf	(___flsub@b+3)^0,c
  2739  0013BA  EC0F  F027         	call	___flsub	;wreg free
  2740  0013BE  C038  F148         	movff	?___flsub,_powf$910
  2741  0013C2  C039  F149         	movff	?___flsub+1,_powf$910+1
  2742  0013C6  C03A  F14A         	movff	?___flsub+2,_powf$910+2
  2743  0013CA  C03B  F14B         	movff	?___flsub+3,_powf$910+3
  2744  0013CE  C154  F01F         	movff	_powf$909,___flmul@b
  2745  0013D2  C155  F020         	movff	_powf$909+1,___flmul@b+1
  2746  0013D6  C156  F021         	movff	_powf$909+2,___flmul@b+2
  2747  0013DA  C157  F022         	movff	_powf$909+3,___flmul@b+3
  2748  0013DE  C148  F023         	movff	_powf$910,___flmul@a
  2749  0013E2  C149  F024         	movff	_powf$910+1,___flmul@a+1
  2750  0013E6  C14A  F025         	movff	_powf$910+2,___flmul@a+2
  2751  0013EA  C14B  F026         	movff	_powf$910+3,___flmul@a+3
  2752  0013EE  EC33  F020         	call	___flmul	;wreg free
  2753  0013F2  C01F  F144         	movff	?___flmul,powf@w
  2754  0013F6  C020  F145         	movff	?___flmul+1,powf@w+1
  2755  0013FA  C021  F146         	movff	?___flmul+2,powf@w+2
  2756  0013FE  C022  F147         	movff	?___flmul+3,powf@w+3
  2757  001402  C1B0  F01F         	movff	powf@t,___flmul@b
  2758  001406  C1B1  F020         	movff	powf@t+1,___flmul@b+1
  2759  00140A  C1B2  F021         	movff	powf@t+2,___flmul@b+2
  2760  00140E  C1B3  F022         	movff	powf@t+3,___flmul@b+3
  2761  001412  0E00               	movlw	0
  2762  001414  6E23               	movwf	___flmul@a^0,c
  2763  001416  0EAA               	movlw	170
  2764  001418  6E24               	movwf	(___flmul@a+1)^0,c
  2765  00141A  0EB8               	movlw	184
  2766  00141C  6E25               	movwf	(___flmul@a+2)^0,c
  2767  00141E  0E3F               	movlw	63
  2768  001420  6E26               	movwf	(___flmul@a+3)^0,c
  2769  001422  EC33  F020         	call	___flmul	;wreg free
  2770  001426  C01F  F174         	movff	?___flmul,powf@u
  2771  00142A  C020  F175         	movff	?___flmul+1,powf@u+1
  2772  00142E  C021  F176         	movff	?___flmul+2,powf@u+2
  2773  001432  C022  F177         	movff	?___flmul+3,powf@u+3
  2774  001436  0E70               	movlw	112
  2775  001438  6E23               	movwf	___flmul@a^0,c
  2776  00143A  0EA5               	movlw	165
  2777  00143C  6E24               	movwf	(___flmul@a+1)^0,c
  2778  00143E  0EEC               	movlw	236
  2779  001440  6E25               	movwf	(___flmul@a+2)^0,c
  2780  001442  0E36               	movlw	54
  2781  001444  6E26               	movwf	(___flmul@a+3)^0,c
  2782  001446  C1B0  F01F         	movff	powf@t,___flmul@b
  2783  00144A  C1B1  F020         	movff	powf@t+1,___flmul@b+1
  2784  00144E  C1B2  F021         	movff	powf@t+2,___flmul@b+2
  2785  001452  C1B3  F022         	movff	powf@t+3,___flmul@b+3
  2786  001456  EC33  F020         	call	___flmul	;wreg free
  2787  00145A  C01F  F038         	movff	?___flmul,___flsub@b
  2788  00145E  C020  F039         	movff	?___flmul+1,___flsub@b+1
  2789  001462  C021  F03A         	movff	?___flmul+2,___flsub@b+2
  2790  001466  C022  F03B         	movff	?___flmul+3,___flsub@b+3
  2791  00146A  0E3B               	movlw	59
  2792  00146C  6E23               	movwf	___flmul@a^0,c
  2793  00146E  0EAA               	movlw	170
  2794  001470  6E24               	movwf	(___flmul@a+1)^0,c
  2795  001472  0EB8               	movlw	184
  2796  001474  6E25               	movwf	(___flmul@a+2)^0,c
  2797  001476  0E3F               	movlw	63
  2798  001478  6E26               	movwf	(___flmul@a+3)^0,c
  2799  00147A  C144  F01F         	movff	powf@w,___flmul@b
  2800  00147E  C145  F020         	movff	powf@w+1,___flmul@b+1
  2801  001482  C146  F021         	movff	powf@w+2,___flmul@b+2
  2802  001486  C147  F022         	movff	powf@w+3,___flmul@b+3
  2803  00148A  EC33  F020         	call	___flmul	;wreg free
  2804  00148E  C01F  F03C         	movff	?___flmul,___flsub@a
  2805  001492  C020  F03D         	movff	?___flmul+1,___flsub@a+1
  2806  001496  C021  F03E         	movff	?___flmul+2,___flsub@a+2
  2807  00149A  C022  F03F         	movff	?___flmul+3,___flsub@a+3
  2808  00149E  EC0F  F027         	call	___flsub	;wreg free
  2809  0014A2  C038  F178         	movff	?___flsub,powf@v
  2810  0014A6  C039  F179         	movff	?___flsub+1,powf@v+1
  2811  0014AA  C03A  F17A         	movff	?___flsub+2,powf@v+2
  2812  0014AE  C03B  F17B         	movff	?___flsub+3,powf@v+3
  2813  0014B2  C174  F00F         	movff	powf@u,___fladd@b
  2814  0014B6  C175  F010         	movff	powf@u+1,___fladd@b+1
  2815  0014BA  C176  F011         	movff	powf@u+2,___fladd@b+2
  2816  0014BE  C177  F012         	movff	powf@u+3,___fladd@b+3
  2817  0014C2  C178  F013         	movff	powf@v,___fladd@a
  2818  0014C6  C179  F014         	movff	powf@v+1,___fladd@a+1
  2819  0014CA  C17A  F015         	movff	powf@v+2,___fladd@a+2
  2820  0014CE  C17B  F016         	movff	powf@v+3,___fladd@a+3
  2821  0014D2  ECA7  F01B         	call	___fladd	;wreg free
  2822  0014D6  C00F  F180         	movff	?___fladd,powf@t1
  2823  0014DA  C010  F181         	movff	?___fladd+1,powf@t1+1
  2824  0014DE  C011  F182         	movff	?___fladd+2,powf@t1+2
  2825  0014E2  C012  F183         	movff	?___fladd+3,powf@t1+3
  2826  0014E6  C180  F1B8         	movff	powf@t1,powf@__xc8_float_word
  2827  0014EA  C181  F1B9         	movff	powf@t1+1,powf@__xc8_float_word+1
  2828  0014EE  C182  F1BA         	movff	powf@t1+2,powf@__xc8_float_word+2
  2829  0014F2  C183  F1BB         	movff	powf@t1+3,powf@__xc8_float_word+3
  2830  0014F6  C1B8  F190         	movff	powf@__xc8_float_word,powf@is
  2831  0014FA  C1B9  F191         	movff	powf@__xc8_float_word+1,powf@is+1
  2832  0014FE  C1BA  F192         	movff	powf@__xc8_float_word+2,powf@is+2
  2833  001502  C1BB  F193         	movff	powf@__xc8_float_word+3,powf@is+3
  2834  001506  0E00               	movlw	0
  2835  001508  0101               	movlb	1	; () banked
  2836  00150A  1590               	andwf	powf@is& (0+255),w,b
  2837  00150C  6FB8               	movwf	powf@__xc8_float_word& (0+255),b
  2838  00150E  0EF0               	movlw	240
  2839  001510  1591               	andwf	(powf@is+1)& (0+255),w,b
  2840  001512  6FB9               	movwf	(powf@__xc8_float_word+1)& (0+255),b
  2841  001514  0EFF               	movlw	255
  2842  001516  1592               	andwf	(powf@is+2)& (0+255),w,b
  2843  001518  6FBA               	movwf	(powf@__xc8_float_word+2)& (0+255),b
  2844  00151A  0EFF               	movlw	255
  2845  00151C  1593               	andwf	(powf@is+3)& (0+255),w,b
  2846  00151E  6FBB               	movwf	(powf@__xc8_float_word+3)& (0+255),b
  2847  001520                     
  2848                           ; BSR set to: 1
  2849  001520  C1B8  F180         	movff	powf@__xc8_float_word,powf@t1
  2850  001524  C1B9  F181         	movff	powf@__xc8_float_word+1,powf@t1+1
  2851  001528  C1BA  F182         	movff	powf@__xc8_float_word+2,powf@t1+2
  2852  00152C  C1BB  F183         	movff	powf@__xc8_float_word+3,powf@t1+3
  2853  001530                     
  2854                           ; BSR set to: 1
  2855  001530  C174  F03C         	movff	powf@u,___flsub@a
  2856  001534  C175  F03D         	movff	powf@u+1,___flsub@a+1
  2857  001538  C176  F03E         	movff	powf@u+2,___flsub@a+2
  2858  00153C  C177  F03F         	movff	powf@u+3,___flsub@a+3
  2859  001540  C180  F038         	movff	powf@t1,___flsub@b
  2860  001544  C181  F039         	movff	powf@t1+1,___flsub@b+1
  2861  001548  C182  F03A         	movff	powf@t1+2,___flsub@b+2
  2862  00154C  C183  F03B         	movff	powf@t1+3,___flsub@b+3
  2863  001550  EC0F  F027         	call	___flsub	;wreg free
  2864  001554  C038  F194         	movff	?___flsub,_powf$911
  2865  001558  C039  F195         	movff	?___flsub+1,_powf$911+1
  2866  00155C  C03A  F196         	movff	?___flsub+2,_powf$911+2
  2867  001560  C03B  F197         	movff	?___flsub+3,_powf$911+3
  2868  001564  C178  F038         	movff	powf@v,___flsub@b
  2869  001568  C179  F039         	movff	powf@v+1,___flsub@b+1
  2870  00156C  C17A  F03A         	movff	powf@v+2,___flsub@b+2
  2871  001570  C17B  F03B         	movff	powf@v+3,___flsub@b+3
  2872  001574  C194  F03C         	movff	_powf$911,___flsub@a
  2873  001578  C195  F03D         	movff	_powf$911+1,___flsub@a+1
  2874  00157C  C196  F03E         	movff	_powf$911+2,___flsub@a+2
  2875  001580  C197  F03F         	movff	_powf$911+3,___flsub@a+3
  2876  001584  EC0F  F027         	call	___flsub	;wreg free
  2877  001588  C038  F11C         	movff	?___flsub,powf@t2
  2878  00158C  C039  F11D         	movff	?___flsub+1,powf@t2+1
  2879  001590  C03A  F11E         	movff	?___flsub+2,powf@t2+2
  2880  001594  C03B  F11F         	movff	?___flsub+3,powf@t2+3
  2881  001598  EF3C  F012         	goto	l3271
  2882  00159C                     l3115:
  2883                           
  2884                           ; BSR set to: 1
  2885  00159C  0E00               	movlw	0
  2886  00159E  6F7C               	movwf	powf@n& (0+255),b
  2887  0015A0  0E00               	movlw	0
  2888  0015A2  6F7D               	movwf	(powf@n+1)& (0+255),b
  2889  0015A4  0E00               	movlw	0
  2890  0015A6  6F7E               	movwf	(powf@n+2)& (0+255),b
  2891  0015A8  0E00               	movlw	0
  2892  0015AA  6F7F               	movwf	(powf@n+3)& (0+255),b
  2893  0015AC                     
  2894                           ; BSR set to: 1
  2895  0015AC  BFAB               	btfsc	(powf@ix+3)& (0+255),7,b
  2896  0015AE  EFE4  F00A         	goto	u3430
  2897  0015B2  51AB               	movf	(powf@ix+3)& (0+255),w,b
  2898  0015B4  E107               	bnz	u3431
  2899  0015B6  0E80               	movlw	128
  2900  0015B8  5DAA               	subwf	(powf@ix+2)& (0+255),w,b
  2901  0015BA  B0D8               	btfsc	status,0,c
  2902  0015BC  EFE2  F00A         	goto	u3431
  2903  0015C0  EFE4  F00A         	goto	u3430
  2904  0015C4                     u3431:
  2905  0015C4  EF17  F00B         	goto	l3127
  2906  0015C8                     u3430:
  2907  0015C8                     
  2908                           ; BSR set to: 1
  2909  0015C8  C170  F01F         	movff	powf@ax,___flmul@b
  2910  0015CC  C171  F020         	movff	powf@ax+1,___flmul@b+1
  2911  0015D0  C172  F021         	movff	powf@ax+2,___flmul@b+2
  2912  0015D4  C173  F022         	movff	powf@ax+3,___flmul@b+3
  2913  0015D8  0E00               	movlw	0
  2914  0015DA  6E23               	movwf	___flmul@a^0,c
  2915  0015DC  0E00               	movlw	0
  2916  0015DE  6E24               	movwf	(___flmul@a+1)^0,c
  2917  0015E0  0E80               	movlw	128
  2918  0015E2  6E25               	movwf	(___flmul@a+2)^0,c
  2919  0015E4  0E4B               	movlw	75
  2920  0015E6  6E26               	movwf	(___flmul@a+3)^0,c
  2921  0015E8  EC33  F020         	call	___flmul	;wreg free
  2922  0015EC  C01F  F170         	movff	?___flmul,powf@ax
  2923  0015F0  C020  F171         	movff	?___flmul+1,powf@ax+1
  2924  0015F4  C021  F172         	movff	?___flmul+2,powf@ax+2
  2925  0015F8  C022  F173         	movff	?___flmul+3,powf@ax+3
  2926  0015FC  0EE8               	movlw	232
  2927  0015FE  0101               	movlb	1	; () banked
  2928  001600  277C               	addwf	powf@n& (0+255),f,b
  2929  001602  0EFF               	movlw	255
  2930  001604  237D               	addwfc	(powf@n+1)& (0+255),f,b
  2931  001606  0EFF               	movlw	255
  2932  001608  237E               	addwfc	(powf@n+2)& (0+255),f,b
  2933  00160A  0EFF               	movlw	255
  2934  00160C  237F               	addwfc	(powf@n+3)& (0+255),f,b
  2935  00160E                     
  2936                           ; BSR set to: 1
  2937  00160E  C170  F1B8         	movff	powf@ax,powf@__xc8_float_word
  2938  001612  C171  F1B9         	movff	powf@ax+1,powf@__xc8_float_word+1
  2939  001616  C172  F1BA         	movff	powf@ax+2,powf@__xc8_float_word+2
  2940  00161A  C173  F1BB         	movff	powf@ax+3,powf@__xc8_float_word+3
  2941  00161E                     
  2942                           ; BSR set to: 1
  2943  00161E  C1B8  F1A8         	movff	powf@__xc8_float_word,powf@ix
  2944  001622  C1B9  F1A9         	movff	powf@__xc8_float_word+1,powf@ix+1
  2945  001626  C1BA  F1AA         	movff	powf@__xc8_float_word+2,powf@ix+2
  2946  00162A  C1BB  F1AB         	movff	powf@__xc8_float_word+3,powf@ix+3
  2947  00162E                     l3127:
  2948                           
  2949                           ; BSR set to: 1
  2950  00162E  0E17               	movlw	23
  2951  001630  0100               	movlb	0	; () banked
  2952  001632  6F90               	movwf	??_powf& (0+255),b
  2953  001634  C1A8  F091         	movff	powf@ix,??_powf+1
  2954  001638  C1A9  F092         	movff	powf@ix+1,??_powf+2
  2955  00163C  C1AA  F093         	movff	powf@ix+2,??_powf+3
  2956  001640  C1AB  F094         	movff	powf@ix+3,??_powf+4
  2957  001644                     u3445:
  2958  001644  6790               	tstfsz	??_powf& (0+255),b
  2959  001646  EF27  F00B         	goto	u3446
  2960  00164A  EF2F  F00B         	goto	u3447
  2961  00164E                     u3446:
  2962  00164E  3594               	rlcf	(??_powf+4)& (0+255),w,b
  2963  001650  3394               	rrcf	(??_powf+4)& (0+255),f,b
  2964  001652  3393               	rrcf	(??_powf+3)& (0+255),f,b
  2965  001654  3392               	rrcf	(??_powf+2)& (0+255),f,b
  2966  001656  3391               	rrcf	(??_powf+1)& (0+255),f,b
  2967  001658  2F90               	decfsz	??_powf& (0+255),f,b
  2968  00165A  EF22  F00B         	goto	u3445
  2969  00165E                     u3447:
  2970  00165E  0E81               	movlw	129
  2971  001660  0100               	movlb	0	; () banked
  2972  001662  2591               	addwf	(??_powf+1)& (0+255),w,b
  2973  001664  6F95               	movwf	(??_powf+5)& (0+255),b
  2974  001666  0EFF               	movlw	255
  2975  001668  2192               	addwfc	(??_powf+2)& (0+255),w,b
  2976  00166A  6F96               	movwf	(??_powf+6)& (0+255),b
  2977  00166C  0EFF               	movlw	255
  2978  00166E  2193               	addwfc	(??_powf+3)& (0+255),w,b
  2979  001670  6F97               	movwf	(??_powf+7)& (0+255),b
  2980  001672  0EFF               	movlw	255
  2981  001674  2194               	addwfc	(??_powf+4)& (0+255),w,b
  2982  001676  6F98               	movwf	(??_powf+8)& (0+255),b
  2983  001678  5195               	movf	(??_powf+5)& (0+255),w,b
  2984  00167A  0101               	movlb	1	; () banked
  2985  00167C  277C               	addwf	powf@n& (0+255),f,b
  2986  00167E  0100               	movlb	0	; () banked
  2987  001680  5196               	movf	(??_powf+6)& (0+255),w,b
  2988  001682  0101               	movlb	1	; () banked
  2989  001684  237D               	addwfc	(powf@n+1)& (0+255),f,b
  2990  001686  0100               	movlb	0	; () banked
  2991  001688  5197               	movf	(??_powf+7)& (0+255),w,b
  2992  00168A  0101               	movlb	1	; () banked
  2993  00168C  237E               	addwfc	(powf@n+2)& (0+255),f,b
  2994  00168E  0100               	movlb	0	; () banked
  2995  001690  5198               	movf	(??_powf+8)& (0+255),w,b
  2996  001692  0101               	movlb	1	; () banked
  2997  001694  237F               	addwfc	(powf@n+3)& (0+255),f,b
  2998  001696                     
  2999                           ; BSR set to: 1
  3000  001696  0EFF               	movlw	255
  3001  001698  15A8               	andwf	powf@ix& (0+255),w,b
  3002  00169A  6FAC               	movwf	powf@j& (0+255),b
  3003  00169C  0EFF               	movlw	255
  3004  00169E  15A9               	andwf	(powf@ix+1)& (0+255),w,b
  3005  0016A0  6FAD               	movwf	(powf@j+1)& (0+255),b
  3006  0016A2  0E7F               	movlw	127
  3007  0016A4  15AA               	andwf	(powf@ix+2)& (0+255),w,b
  3008  0016A6  6FAE               	movwf	(powf@j+2)& (0+255),b
  3009  0016A8  0E00               	movlw	0
  3010  0016AA  15AB               	andwf	(powf@ix+3)& (0+255),w,b
  3011  0016AC  6FAF               	movwf	(powf@j+3)& (0+255),b
  3012  0016AE                     
  3013                           ; BSR set to: 1
  3014  0016AE  0E00               	movlw	0
  3015  0016B0  11AC               	iorwf	powf@j& (0+255),w,b
  3016  0016B2  6FA8               	movwf	powf@ix& (0+255),b
  3017  0016B4  0E00               	movlw	0
  3018  0016B6  11AD               	iorwf	(powf@j+1)& (0+255),w,b
  3019  0016B8  6FA9               	movwf	(powf@ix+1)& (0+255),b
  3020  0016BA  0E80               	movlw	128
  3021  0016BC  11AE               	iorwf	(powf@j+2)& (0+255),w,b
  3022  0016BE  6FAA               	movwf	(powf@ix+2)& (0+255),b
  3023  0016C0  0E3F               	movlw	63
  3024  0016C2  11AF               	iorwf	(powf@j+3)& (0+255),w,b
  3025  0016C4  6FAB               	movwf	(powf@ix+3)& (0+255),b
  3026  0016C6                     
  3027                           ; BSR set to: 1
  3028  0016C6  BFAF               	btfsc	(powf@j+3)& (0+255),7,b
  3029  0016C8  EF75  F00B         	goto	u3450
  3030  0016CC  51AF               	movf	(powf@j+3)& (0+255),w,b
  3031  0016CE  E10B               	bnz	u3451
  3032  0016D0  0E72               	movlw	114
  3033  0016D2  5DAC               	subwf	powf@j& (0+255),w,b
  3034  0016D4  0EC4               	movlw	196
  3035  0016D6  59AD               	subwfb	(powf@j+1)& (0+255),w,b
  3036  0016D8  0E1C               	movlw	28
  3037  0016DA  59AE               	subwfb	(powf@j+2)& (0+255),w,b
  3038  0016DC  B0D8               	btfsc	status,0,c
  3039  0016DE  EF73  F00B         	goto	u3451
  3040  0016E2  EF75  F00B         	goto	u3450
  3041  0016E6                     u3451:
  3042  0016E6  EF7F  F00B         	goto	l3137
  3043  0016EA                     u3450:
  3044  0016EA                     
  3045                           ; BSR set to: 1
  3046  0016EA  0E00               	movlw	0
  3047  0016EC  6FA0               	movwf	powf@k& (0+255),b
  3048  0016EE  0E00               	movlw	0
  3049  0016F0  6FA1               	movwf	(powf@k+1)& (0+255),b
  3050  0016F2  0E00               	movlw	0
  3051  0016F4  6FA2               	movwf	(powf@k+2)& (0+255),b
  3052  0016F6  0E00               	movlw	0
  3053  0016F8  6FA3               	movwf	(powf@k+3)& (0+255),b
  3054  0016FA  EFB1  F00B         	goto	l3147
  3055  0016FE                     l3137:
  3056                           
  3057                           ; BSR set to: 1
  3058  0016FE  BFAF               	btfsc	(powf@j+3)& (0+255),7,b
  3059  001700  EF91  F00B         	goto	u3460
  3060  001704  51AF               	movf	(powf@j+3)& (0+255),w,b
  3061  001706  E10B               	bnz	u3461
  3062  001708  0ED7               	movlw	215
  3063  00170A  5DAC               	subwf	powf@j& (0+255),w,b
  3064  00170C  0EB3               	movlw	179
  3065  00170E  59AD               	subwfb	(powf@j+1)& (0+255),w,b
  3066  001710  0E5D               	movlw	93
  3067  001712  59AE               	subwfb	(powf@j+2)& (0+255),w,b
  3068  001714  B0D8               	btfsc	status,0,c
  3069  001716  EF8F  F00B         	goto	u3461
  3070  00171A  EF91  F00B         	goto	u3460
  3071  00171E                     u3461:
  3072  00171E  EF9B  F00B         	goto	l3141
  3073  001722                     u3460:
  3074  001722                     
  3075                           ; BSR set to: 1
  3076  001722  0E01               	movlw	1
  3077  001724  6FA0               	movwf	powf@k& (0+255),b
  3078  001726  0E00               	movlw	0
  3079  001728  6FA1               	movwf	(powf@k+1)& (0+255),b
  3080  00172A  0E00               	movlw	0
  3081  00172C  6FA2               	movwf	(powf@k+2)& (0+255),b
  3082  00172E  0E00               	movlw	0
  3083  001730  6FA3               	movwf	(powf@k+3)& (0+255),b
  3084  001732  EFB1  F00B         	goto	l3147
  3085  001736                     l3141:
  3086                           
  3087                           ; BSR set to: 1
  3088  001736  0E00               	movlw	0
  3089  001738  6FA0               	movwf	powf@k& (0+255),b
  3090  00173A  0E00               	movlw	0
  3091  00173C  6FA1               	movwf	(powf@k+1)& (0+255),b
  3092  00173E  0E00               	movlw	0
  3093  001740  6FA2               	movwf	(powf@k+2)& (0+255),b
  3094  001742  0E00               	movlw	0
  3095  001744  6FA3               	movwf	(powf@k+3)& (0+255),b
  3096  001746                     
  3097                           ; BSR set to: 1
  3098  001746  0E01               	movlw	1
  3099  001748  277C               	addwf	powf@n& (0+255),f,b
  3100  00174A  0E00               	movlw	0
  3101  00174C  237D               	addwfc	(powf@n+1)& (0+255),f,b
  3102  00174E  237E               	addwfc	(powf@n+2)& (0+255),f,b
  3103  001750  237F               	addwfc	(powf@n+3)& (0+255),f,b
  3104  001752                     
  3105                           ; BSR set to: 1
  3106  001752  0E00               	movlw	0
  3107  001754  27A8               	addwf	powf@ix& (0+255),f,b
  3108  001756  0E00               	movlw	0
  3109  001758  23A9               	addwfc	(powf@ix+1)& (0+255),f,b
  3110  00175A  0E80               	movlw	128
  3111  00175C  23AA               	addwfc	(powf@ix+2)& (0+255),f,b
  3112  00175E  0EFF               	movlw	255
  3113  001760  23AB               	addwfc	(powf@ix+3)& (0+255),f,b
  3114  001762                     l3147:
  3115                           
  3116                           ; BSR set to: 1
  3117  001762  C1A8  F1B8         	movff	powf@ix,powf@__xc8_float_word
  3118  001766  C1A9  F1B9         	movff	powf@ix+1,powf@__xc8_float_word+1
  3119  00176A  C1AA  F1BA         	movff	powf@ix+2,powf@__xc8_float_word+2
  3120  00176E  C1AB  F1BB         	movff	powf@ix+3,powf@__xc8_float_word+3
  3121  001772                     
  3122                           ; BSR set to: 1
  3123  001772  C1B8  F170         	movff	powf@__xc8_float_word,powf@ax
  3124  001776  C1B9  F171         	movff	powf@__xc8_float_word+1,powf@ax+1
  3125  00177A  C1BA  F172         	movff	powf@__xc8_float_word+2,powf@ax+2
  3126  00177E  C1BB  F173         	movff	powf@__xc8_float_word+3,powf@ax+3
  3127  001782                     
  3128                           ; BSR set to: 1
  3129  001782  C170  F038         	movff	powf@ax,___flsub@b
  3130  001786  C171  F039         	movff	powf@ax+1,___flsub@b+1
  3131  00178A  C172  F03A         	movff	powf@ax+2,___flsub@b+2
  3132  00178E  C173  F03B         	movff	powf@ax+3,___flsub@b+3
  3133  001792  C1A0  F090         	movff	powf@k,??_powf
  3134  001796  C1A1  F091         	movff	powf@k+1,??_powf+1
  3135  00179A  0100               	movlb	0	; () banked
  3136  00179C  90D8               	bcf	status,0,c
  3137  00179E  3790               	rlcf	??_powf& (0+255),f,b
  3138  0017A0  3791               	rlcf	(??_powf+1)& (0+255),f,b
  3139  0017A2  90D8               	bcf	status,0,c
  3140  0017A4  3790               	rlcf	??_powf& (0+255),f,b
  3141  0017A6  3791               	rlcf	(??_powf+1)& (0+255),f,b
  3142  0017A8  0E69               	movlw	low _bp
  3143  0017AA  2590               	addwf	??_powf& (0+255),w,b
  3144  0017AC  6EF6               	movwf	tblptrl,c
  3145  0017AE  0E08               	movlw	high _bp
  3146  0017B0  2191               	addwfc	(??_powf+1)& (0+255),w,b
  3147  0017B2  6EF7               	movwf	tblptrh,c
  3148  0017B4                     	if	0	;There are less than 3 active tblptr bytes
  3149  0017B4                     	endif
  3150  0017B4  0009               	tblrd		*+
  3151  0017B6  CFF5 F03C          	movff	tablat,___flsub@a
  3152  0017BA  0009               	tblrd		*+
  3153  0017BC  CFF5 F03D          	movff	tablat,___flsub@a+1
  3154  0017C0  0009               	tblrd		*+
  3155  0017C2  CFF5 F03E          	movff	tablat,___flsub@a+2
  3156  0017C6  000A               	tblrd		*-
  3157  0017C8  CFF5 F03F          	movff	tablat,___flsub@a+3
  3158  0017CC  EC0F  F027         	call	___flsub	;wreg free
  3159  0017D0  C038  F174         	movff	?___flsub,powf@u
  3160  0017D4  C039  F175         	movff	?___flsub+1,powf@u+1
  3161  0017D8  C03A  F176         	movff	?___flsub+2,powf@u+2
  3162  0017DC  C03B  F177         	movff	?___flsub+3,powf@u+3
  3163  0017E0  0E00               	movlw	0
  3164  0017E2  6E40               	movwf	___fldiv@b^0,c
  3165  0017E4  0E00               	movlw	0
  3166  0017E6  6E41               	movwf	(___fldiv@b+1)^0,c
  3167  0017E8  0E80               	movlw	128
  3168  0017EA  6E42               	movwf	(___fldiv@b+2)^0,c
  3169  0017EC  0E3F               	movlw	63
  3170  0017EE  6E43               	movwf	(___fldiv@b+3)^0,c
  3171  0017F0  C170  F013         	movff	powf@ax,___fladd@a
  3172  0017F4  C171  F014         	movff	powf@ax+1,___fladd@a+1
  3173  0017F8  C172  F015         	movff	powf@ax+2,___fladd@a+2
  3174  0017FC  C173  F016         	movff	powf@ax+3,___fladd@a+3
  3175  001800  C1A0  F090         	movff	powf@k,??_powf
  3176  001804  C1A1  F091         	movff	powf@k+1,??_powf+1
  3177  001808  0100               	movlb	0	; () banked
  3178  00180A  90D8               	bcf	status,0,c
  3179  00180C  3790               	rlcf	??_powf& (0+255),f,b
  3180  00180E  3791               	rlcf	(??_powf+1)& (0+255),f,b
  3181  001810  90D8               	bcf	status,0,c
  3182  001812  3790               	rlcf	??_powf& (0+255),f,b
  3183  001814  3791               	rlcf	(??_powf+1)& (0+255),f,b
  3184  001816  0E69               	movlw	low _bp
  3185  001818  2590               	addwf	??_powf& (0+255),w,b
  3186  00181A  6EF6               	movwf	tblptrl,c
  3187  00181C  0E08               	movlw	high _bp
  3188  00181E  2191               	addwfc	(??_powf+1)& (0+255),w,b
  3189  001820  6EF7               	movwf	tblptrh,c
  3190  001822                     	if	0	;There are less than 3 active tblptr bytes
  3191  001822                     	endif
  3192  001822  0009               	tblrd		*+
  3193  001824  CFF5 F00F          	movff	tablat,___fladd@b
  3194  001828  0009               	tblrd		*+
  3195  00182A  CFF5 F010          	movff	tablat,___fladd@b+1
  3196  00182E  0009               	tblrd		*+
  3197  001830  CFF5 F011          	movff	tablat,___fladd@b+2
  3198  001834  000A               	tblrd		*-
  3199  001836  CFF5 F012          	movff	tablat,___fladd@b+3
  3200  00183A  ECA7  F01B         	call	___fladd	;wreg free
  3201  00183E  C00F  F044         	movff	?___fladd,___fldiv@a
  3202  001842  C010  F045         	movff	?___fladd+1,___fldiv@a+1
  3203  001846  C011  F046         	movff	?___fladd+2,___fldiv@a+2
  3204  00184A  C012  F047         	movff	?___fladd+3,___fldiv@a+3
  3205  00184E  EC48  F022         	call	___fldiv	;wreg free
  3206  001852  C040  F178         	movff	?___fldiv,powf@v
  3207  001856  C041  F179         	movff	?___fldiv+1,powf@v+1
  3208  00185A  C042  F17A         	movff	?___fldiv+2,powf@v+2
  3209  00185E  C043  F17B         	movff	?___fldiv+3,powf@v+3
  3210  001862  C174  F01F         	movff	powf@u,___flmul@b
  3211  001866  C175  F020         	movff	powf@u+1,___flmul@b+1
  3212  00186A  C176  F021         	movff	powf@u+2,___flmul@b+2
  3213  00186E  C177  F022         	movff	powf@u+3,___flmul@b+3
  3214  001872  C178  F023         	movff	powf@v,___flmul@a
  3215  001876  C179  F024         	movff	powf@v+1,___flmul@a+1
  3216  00187A  C17A  F025         	movff	powf@v+2,___flmul@a+2
  3217  00187E  C17B  F026         	movff	powf@v+3,___flmul@a+3
  3218  001882  EC33  F020         	call	___flmul	;wreg free
  3219  001886  C01F  F15C         	movff	?___flmul,powf@s
  3220  00188A  C020  F15D         	movff	?___flmul+1,powf@s+1
  3221  00188E  C021  F15E         	movff	?___flmul+2,powf@s+2
  3222  001892  C022  F15F         	movff	?___flmul+3,powf@s+3
  3223  001896  C15C  F16C         	movff	powf@s,powf@s_h
  3224  00189A  C15D  F16D         	movff	powf@s+1,powf@s_h+1
  3225  00189E  C15E  F16E         	movff	powf@s+2,powf@s_h+2
  3226  0018A2  C15F  F16F         	movff	powf@s+3,powf@s_h+3
  3227  0018A6  C16C  F1B8         	movff	powf@s_h,powf@__xc8_float_word
  3228  0018AA  C16D  F1B9         	movff	powf@s_h+1,powf@__xc8_float_word+1
  3229  0018AE  C16E  F1BA         	movff	powf@s_h+2,powf@__xc8_float_word+2
  3230  0018B2  C16F  F1BB         	movff	powf@s_h+3,powf@__xc8_float_word+3
  3231  0018B6  C1B8  F190         	movff	powf@__xc8_float_word,powf@is
  3232  0018BA  C1B9  F191         	movff	powf@__xc8_float_word+1,powf@is+1
  3233  0018BE  C1BA  F192         	movff	powf@__xc8_float_word+2,powf@is+2
  3234  0018C2  C1BB  F193         	movff	powf@__xc8_float_word+3,powf@is+3
  3235  0018C6  0E00               	movlw	0
  3236  0018C8  0101               	movlb	1	; () banked
  3237  0018CA  1590               	andwf	powf@is& (0+255),w,b
  3238  0018CC  6FB8               	movwf	powf@__xc8_float_word& (0+255),b
  3239  0018CE  0EF0               	movlw	240
  3240  0018D0  1591               	andwf	(powf@is+1)& (0+255),w,b
  3241  0018D2  6FB9               	movwf	(powf@__xc8_float_word+1)& (0+255),b
  3242  0018D4  0EFF               	movlw	255
  3243  0018D6  1592               	andwf	(powf@is+2)& (0+255),w,b
  3244  0018D8  6FBA               	movwf	(powf@__xc8_float_word+2)& (0+255),b
  3245  0018DA  0EFF               	movlw	255
  3246  0018DC  1593               	andwf	(powf@is+3)& (0+255),w,b
  3247  0018DE  6FBB               	movwf	(powf@__xc8_float_word+3)& (0+255),b
  3248  0018E0                     
  3249                           ; BSR set to: 1
  3250  0018E0  C1B8  F16C         	movff	powf@__xc8_float_word,powf@s_h
  3251  0018E4  C1B9  F16D         	movff	powf@__xc8_float_word+1,powf@s_h+1
  3252  0018E8  C1BA  F16E         	movff	powf@__xc8_float_word+2,powf@s_h+2
  3253  0018EC  C1BB  F16F         	movff	powf@__xc8_float_word+3,powf@s_h+3
  3254  0018F0                     
  3255                           ; BSR set to: 1
  3256  0018F0  C1A8  F090         	movff	powf@ix,??_powf
  3257  0018F4  C1A9  F091         	movff	powf@ix+1,??_powf+1
  3258  0018F8  C1AA  F092         	movff	powf@ix+2,??_powf+2
  3259  0018FC  C1AB  F093         	movff	powf@ix+3,??_powf+3
  3260  001900  0100               	movlb	0	; () banked
  3261  001902  3593               	rlcf	(??_powf+3)& (0+255),w,b
  3262  001904  3393               	rrcf	(??_powf+3)& (0+255),f,b
  3263  001906  3392               	rrcf	(??_powf+2)& (0+255),f,b
  3264  001908  3391               	rrcf	(??_powf+1)& (0+255),f,b
  3265  00190A  3390               	rrcf	??_powf& (0+255),f,b
  3266  00190C  0E00               	movlw	0
  3267  00190E  1590               	andwf	??_powf& (0+255),w,b
  3268  001910  6F94               	movwf	(??_powf+4)& (0+255),b
  3269  001912  0EF0               	movlw	240
  3270  001914  1591               	andwf	(??_powf+1)& (0+255),w,b
  3271  001916  6F95               	movwf	(??_powf+5)& (0+255),b
  3272  001918  0EFF               	movlw	255
  3273  00191A  1592               	andwf	(??_powf+2)& (0+255),w,b
  3274  00191C  6F96               	movwf	(??_powf+6)& (0+255),b
  3275  00191E  0EFF               	movlw	255
  3276  001920  1593               	andwf	(??_powf+3)& (0+255),w,b
  3277  001922  6F97               	movwf	(??_powf+7)& (0+255),b
  3278  001924  0E00               	movlw	0
  3279  001926  1194               	iorwf	(??_powf+4)& (0+255),w,b
  3280  001928  0101               	movlb	1	; () banked
  3281  00192A  6F90               	movwf	powf@is& (0+255),b
  3282  00192C  0E00               	movlw	0
  3283  00192E  0100               	movlb	0	; () banked
  3284  001930  1195               	iorwf	(??_powf+5)& (0+255),w,b
  3285  001932  0101               	movlb	1	; () banked
  3286  001934  6F91               	movwf	(powf@is+1)& (0+255),b
  3287  001936  0E00               	movlw	0
  3288  001938  0100               	movlb	0	; () banked
  3289  00193A  1196               	iorwf	(??_powf+6)& (0+255),w,b
  3290  00193C  0101               	movlb	1	; () banked
  3291  00193E  6F92               	movwf	(powf@is+2)& (0+255),b
  3292  001940  0E20               	movlw	32
  3293  001942  0100               	movlb	0	; () banked
  3294  001944  1197               	iorwf	(??_powf+7)& (0+255),w,b
  3295  001946  0101               	movlb	1	; () banked
  3296  001948  6F93               	movwf	(powf@is+3)& (0+255),b
  3297  00194A                     
  3298                           ; BSR set to: 1
  3299  00194A  C1A0  F090         	movff	powf@k,??_powf
  3300  00194E  C1A1  F091         	movff	powf@k+1,??_powf+1
  3301  001952  C1A2  F092         	movff	powf@k+2,??_powf+2
  3302  001956  C1A3  F093         	movff	powf@k+3,??_powf+3
  3303  00195A  0E15               	movlw	21
  3304  00195C                     u3475:
  3305  00195C  90D8               	bcf	status,0,c
  3306  00195E  0100               	movlb	0	; () banked
  3307  001960  3790               	rlcf	??_powf& (0+255),f,b
  3308  001962  3791               	rlcf	(??_powf+1)& (0+255),f,b
  3309  001964  3792               	rlcf	(??_powf+2)& (0+255),f,b
  3310  001966  3793               	rlcf	(??_powf+3)& (0+255),f,b
  3311  001968  2EE8               	decfsz	wreg,f,c
  3312  00196A  EFAE  F00C         	goto	u3475
  3313  00196E  0101               	movlb	1	; () banked
  3314  001970  5190               	movf	powf@is& (0+255),w,b
  3315  001972  0100               	movlb	0	; () banked
  3316  001974  2590               	addwf	??_powf& (0+255),w,b
  3317  001976  6F94               	movwf	(??_powf+4)& (0+255),b
  3318  001978  0101               	movlb	1	; () banked
  3319  00197A  5191               	movf	(powf@is+1)& (0+255),w,b
  3320  00197C  0100               	movlb	0	; () banked
  3321  00197E  2191               	addwfc	(??_powf+1)& (0+255),w,b
  3322  001980  6F95               	movwf	(??_powf+5)& (0+255),b
  3323  001982  0101               	movlb	1	; () banked
  3324  001984  5192               	movf	(powf@is+2)& (0+255),w,b
  3325  001986  0100               	movlb	0	; () banked
  3326  001988  2192               	addwfc	(??_powf+2)& (0+255),w,b
  3327  00198A  6F96               	movwf	(??_powf+6)& (0+255),b
  3328  00198C  0101               	movlb	1	; () banked
  3329  00198E  5193               	movf	(powf@is+3)& (0+255),w,b
  3330  001990  0100               	movlb	0	; () banked
  3331  001992  2193               	addwfc	(??_powf+3)& (0+255),w,b
  3332  001994  6F97               	movwf	(??_powf+7)& (0+255),b
  3333  001996  0E00               	movlw	0
  3334  001998  2594               	addwf	(??_powf+4)& (0+255),w,b
  3335  00199A  0101               	movlb	1	; () banked
  3336  00199C  6FB8               	movwf	powf@__xc8_float_word& (0+255),b
  3337  00199E  0E00               	movlw	0
  3338  0019A0  0100               	movlb	0	; () banked
  3339  0019A2  2195               	addwfc	(??_powf+5)& (0+255),w,b
  3340  0019A4  0101               	movlb	1	; () banked
  3341  0019A6  6FB9               	movwf	(powf@__xc8_float_word+1)& (0+255),b
  3342  0019A8  0E40               	movlw	64
  3343  0019AA  0100               	movlb	0	; () banked
  3344  0019AC  2196               	addwfc	(??_powf+6)& (0+255),w,b
  3345  0019AE  0101               	movlb	1	; () banked
  3346  0019B0  6FBA               	movwf	(powf@__xc8_float_word+2)& (0+255),b
  3347  0019B2  0E00               	movlw	0
  3348  0019B4  0100               	movlb	0	; () banked
  3349  0019B6  2197               	addwfc	(??_powf+7)& (0+255),w,b
  3350  0019B8  0101               	movlb	1	; () banked
  3351  0019BA  6FBB               	movwf	(powf@__xc8_float_word+3)& (0+255),b
  3352  0019BC                     
  3353                           ; BSR set to: 1
  3354  0019BC  C1B8  F168         	movff	powf@__xc8_float_word,powf@t_h
  3355  0019C0  C1B9  F169         	movff	powf@__xc8_float_word+1,powf@t_h+1
  3356  0019C4  C1BA  F16A         	movff	powf@__xc8_float_word+2,powf@t_h+2
  3357  0019C8  C1BB  F16B         	movff	powf@__xc8_float_word+3,powf@t_h+3
  3358  0019CC                     
  3359                           ; BSR set to: 1
  3360  0019CC  C1A0  F090         	movff	powf@k,??_powf
  3361  0019D0  C1A1  F091         	movff	powf@k+1,??_powf+1
  3362  0019D4  0100               	movlb	0	; () banked
  3363  0019D6  90D8               	bcf	status,0,c
  3364  0019D8  3790               	rlcf	??_powf& (0+255),f,b
  3365  0019DA  3791               	rlcf	(??_powf+1)& (0+255),f,b
  3366  0019DC  90D8               	bcf	status,0,c
  3367  0019DE  3790               	rlcf	??_powf& (0+255),f,b
  3368  0019E0  3791               	rlcf	(??_powf+1)& (0+255),f,b
  3369  0019E2  0E69               	movlw	low _bp
  3370  0019E4  2590               	addwf	??_powf& (0+255),w,b
  3371  0019E6  6EF6               	movwf	tblptrl,c
  3372  0019E8  0E08               	movlw	high _bp
  3373  0019EA  2191               	addwfc	(??_powf+1)& (0+255),w,b
  3374  0019EC  6EF7               	movwf	tblptrh,c
  3375  0019EE                     	if	0	;There are less than 3 active tblptr bytes
  3376  0019EE                     	endif
  3377  0019EE  0009               	tblrd		*+
  3378  0019F0  CFF5 F03C          	movff	tablat,___flsub@a
  3379  0019F4  0009               	tblrd		*+
  3380  0019F6  CFF5 F03D          	movff	tablat,___flsub@a+1
  3381  0019FA  0009               	tblrd		*+
  3382  0019FC  CFF5 F03E          	movff	tablat,___flsub@a+2
  3383  001A00  000A               	tblrd		*-
  3384  001A02  CFF5 F03F          	movff	tablat,___flsub@a+3
  3385  001A06  C168  F038         	movff	powf@t_h,___flsub@b
  3386  001A0A  C169  F039         	movff	powf@t_h+1,___flsub@b+1
  3387  001A0E  C16A  F03A         	movff	powf@t_h+2,___flsub@b+2
  3388  001A12  C16B  F03B         	movff	powf@t_h+3,___flsub@b+3
  3389  001A16  EC0F  F027         	call	___flsub	;wreg free
  3390  001A1A  C038  F194         	movff	?___flsub,_powf$911
  3391  001A1E  C039  F195         	movff	?___flsub+1,_powf$911+1
  3392  001A22  C03A  F196         	movff	?___flsub+2,_powf$911+2
  3393  001A26  C03B  F197         	movff	?___flsub+3,_powf$911+3
  3394  001A2A  C170  F038         	movff	powf@ax,___flsub@b
  3395  001A2E  C171  F039         	movff	powf@ax+1,___flsub@b+1
  3396  001A32  C172  F03A         	movff	powf@ax+2,___flsub@b+2
  3397  001A36  C173  F03B         	movff	powf@ax+3,___flsub@b+3
  3398  001A3A  C194  F03C         	movff	_powf$911,___flsub@a
  3399  001A3E  C195  F03D         	movff	_powf$911+1,___flsub@a+1
  3400  001A42  C196  F03E         	movff	_powf$911+2,___flsub@a+2
  3401  001A46  C197  F03F         	movff	_powf$911+3,___flsub@a+3
  3402  001A4A  EC0F  F027         	call	___flsub	;wreg free
  3403  001A4E  C038  F134         	movff	?___flsub,powf@t_l
  3404  001A52  C039  F135         	movff	?___flsub+1,powf@t_l+1
  3405  001A56  C03A  F136         	movff	?___flsub+2,powf@t_l+2
  3406  001A5A  C03B  F137         	movff	?___flsub+3,powf@t_l+3
  3407  001A5E  C168  F023         	movff	powf@t_h,___flmul@a
  3408  001A62  C169  F024         	movff	powf@t_h+1,___flmul@a+1
  3409  001A66  C16A  F025         	movff	powf@t_h+2,___flmul@a+2
  3410  001A6A  C16B  F026         	movff	powf@t_h+3,___flmul@a+3
  3411  001A6E  C16C  F01F         	movff	powf@s_h,___flmul@b
  3412  001A72  C16D  F020         	movff	powf@s_h+1,___flmul@b+1
  3413  001A76  C16E  F021         	movff	powf@s_h+2,___flmul@b+2
  3414  001A7A  C16F  F022         	movff	powf@s_h+3,___flmul@b+3
  3415  001A7E  EC33  F020         	call	___flmul	;wreg free
  3416  001A82  C01F  F03C         	movff	?___flmul,___flsub@a
  3417  001A86  C020  F03D         	movff	?___flmul+1,___flsub@a+1
  3418  001A8A  C021  F03E         	movff	?___flmul+2,___flsub@a+2
  3419  001A8E  C022  F03F         	movff	?___flmul+3,___flsub@a+3
  3420  001A92  C174  F038         	movff	powf@u,___flsub@b
  3421  001A96  C175  F039         	movff	powf@u+1,___flsub@b+1
  3422  001A9A  C176  F03A         	movff	powf@u+2,___flsub@b+2
  3423  001A9E  C177  F03B         	movff	powf@u+3,___flsub@b+3
  3424  001AA2  EC0F  F027         	call	___flsub	;wreg free
  3425  001AA6  C038  F194         	movff	?___flsub,_powf$911
  3426  001AAA  C039  F195         	movff	?___flsub+1,_powf$911+1
  3427  001AAE  C03A  F196         	movff	?___flsub+2,_powf$911+2
  3428  001AB2  C03B  F197         	movff	?___flsub+3,_powf$911+3
  3429  001AB6  C134  F023         	movff	powf@t_l,___flmul@a
  3430  001ABA  C135  F024         	movff	powf@t_l+1,___flmul@a+1
  3431  001ABE  C136  F025         	movff	powf@t_l+2,___flmul@a+2
  3432  001AC2  C137  F026         	movff	powf@t_l+3,___flmul@a+3
  3433  001AC6  C16C  F01F         	movff	powf@s_h,___flmul@b
  3434  001ACA  C16D  F020         	movff	powf@s_h+1,___flmul@b+1
  3435  001ACE  C16E  F021         	movff	powf@s_h+2,___flmul@b+2
  3436  001AD2  C16F  F022         	movff	powf@s_h+3,___flmul@b+3
  3437  001AD6  EC33  F020         	call	___flmul	;wreg free
  3438  001ADA  C01F  F03C         	movff	?___flmul,___flsub@a
  3439  001ADE  C020  F03D         	movff	?___flmul+1,___flsub@a+1
  3440  001AE2  C021  F03E         	movff	?___flmul+2,___flsub@a+2
  3441  001AE6  C022  F03F         	movff	?___flmul+3,___flsub@a+3
  3442  001AEA  C194  F038         	movff	_powf$911,___flsub@b
  3443  001AEE  C195  F039         	movff	_powf$911+1,___flsub@b+1
  3444  001AF2  C196  F03A         	movff	_powf$911+2,___flsub@b+2
  3445  001AF6  C197  F03B         	movff	_powf$911+3,___flsub@b+3
  3446  001AFA  EC0F  F027         	call	___flsub	;wreg free
  3447  001AFE  C038  F154         	movff	?___flsub,_powf$909
  3448  001B02  C039  F155         	movff	?___flsub+1,_powf$909+1
  3449  001B06  C03A  F156         	movff	?___flsub+2,_powf$909+2
  3450  001B0A  C03B  F157         	movff	?___flsub+3,_powf$909+3
  3451  001B0E  C154  F01F         	movff	_powf$909,___flmul@b
  3452  001B12  C155  F020         	movff	_powf$909+1,___flmul@b+1
  3453  001B16  C156  F021         	movff	_powf$909+2,___flmul@b+2
  3454  001B1A  C157  F022         	movff	_powf$909+3,___flmul@b+3
  3455  001B1E  C178  F023         	movff	powf@v,___flmul@a
  3456  001B22  C179  F024         	movff	powf@v+1,___flmul@a+1
  3457  001B26  C17A  F025         	movff	powf@v+2,___flmul@a+2
  3458  001B2A  C17B  F026         	movff	powf@v+3,___flmul@a+3
  3459  001B2E  EC33  F020         	call	___flmul	;wreg free
  3460  001B32  C01F  F130         	movff	?___flmul,powf@s_l
  3461  001B36  C020  F131         	movff	?___flmul+1,powf@s_l+1
  3462  001B3A  C021  F132         	movff	?___flmul+2,powf@s_l+2
  3463  001B3E  C022  F133         	movff	?___flmul+3,powf@s_l+3
  3464  001B42  C15C  F01F         	movff	powf@s,___flmul@b
  3465  001B46  C15D  F020         	movff	powf@s+1,___flmul@b+1
  3466  001B4A  C15E  F021         	movff	powf@s+2,___flmul@b+2
  3467  001B4E  C15F  F022         	movff	powf@s+3,___flmul@b+3
  3468  001B52  C15C  F023         	movff	powf@s,___flmul@a
  3469  001B56  C15D  F024         	movff	powf@s+1,___flmul@a+1
  3470  001B5A  C15E  F025         	movff	powf@s+2,___flmul@a+2
  3471  001B5E  C15F  F026         	movff	powf@s+3,___flmul@a+3
  3472  001B62  EC33  F020         	call	___flmul	;wreg free
  3473  001B66  C01F  F18C         	movff	?___flmul,powf@s2
  3474  001B6A  C020  F18D         	movff	?___flmul+1,powf@s2+1
  3475  001B6E  C021  F18E         	movff	?___flmul+2,powf@s2+2
  3476  001B72  C022  F18F         	movff	?___flmul+3,powf@s2+3
  3477  001B76  0E55               	movlw	85
  3478  001B78  6E13               	movwf	___fladd@a^0,c
  3479  001B7A  0E32               	movlw	50
  3480  001B7C  6E14               	movwf	(___fladd@a+1)^0,c
  3481  001B7E  0E6C               	movlw	108
  3482  001B80  6E15               	movwf	(___fladd@a+2)^0,c
  3483  001B82  0E3E               	movlw	62
  3484  001B84  6E16               	movwf	(___fladd@a+3)^0,c
  3485  001B86  0E42               	movlw	66
  3486  001B88  6E23               	movwf	___flmul@a^0,c
  3487  001B8A  0EF1               	movlw	241
  3488  001B8C  6E24               	movwf	(___flmul@a+1)^0,c
  3489  001B8E  0E53               	movlw	83
  3490  001B90  6E25               	movwf	(___flmul@a+2)^0,c
  3491  001B92  0E3E               	movlw	62
  3492  001B94  6E26               	movwf	(___flmul@a+3)^0,c
  3493  001B96  C18C  F01F         	movff	powf@s2,___flmul@b
  3494  001B9A  C18D  F020         	movff	powf@s2+1,___flmul@b+1
  3495  001B9E  C18E  F021         	movff	powf@s2+2,___flmul@b+2
  3496  001BA2  C18F  F022         	movff	powf@s2+3,___flmul@b+3
  3497  001BA6  EC33  F020         	call	___flmul	;wreg free
  3498  001BAA  C01F  F00F         	movff	?___flmul,___fladd@b
  3499  001BAE  C020  F010         	movff	?___flmul+1,___fladd@b+1
  3500  001BB2  C021  F011         	movff	?___flmul+2,___fladd@b+2
  3501  001BB6  C022  F012         	movff	?___flmul+3,___fladd@b+3
  3502  001BBA  ECA7  F01B         	call	___fladd	;wreg free
  3503  001BBE  C00F  F1A4         	movff	?___fladd,_powf$908
  3504  001BC2  C010  F1A5         	movff	?___fladd+1,_powf$908+1
  3505  001BC6  C011  F1A6         	movff	?___fladd+2,_powf$908+2
  3506  001BCA  C012  F1A7         	movff	?___fladd+3,_powf$908+3
  3507  001BCE  0E05               	movlw	5
  3508  001BD0  6E13               	movwf	___fladd@a^0,c
  3509  001BD2  0EA3               	movlw	163
  3510  001BD4  6E14               	movwf	(___fladd@a+1)^0,c
  3511  001BD6  0E8B               	movlw	139
  3512  001BD8  6E15               	movwf	(___fladd@a+2)^0,c
  3513  001BDA  0E3E               	movlw	62
  3514  001BDC  6E16               	movwf	(___fladd@a+3)^0,c
  3515  001BDE  C18C  F023         	movff	powf@s2,___flmul@a
  3516  001BE2  C18D  F024         	movff	powf@s2+1,___flmul@a+1
  3517  001BE6  C18E  F025         	movff	powf@s2+2,___flmul@a+2
  3518  001BEA  C18F  F026         	movff	powf@s2+3,___flmul@a+3
  3519  001BEE  C1A4  F01F         	movff	_powf$908,___flmul@b
  3520  001BF2  C1A5  F020         	movff	_powf$908+1,___flmul@b+1
  3521  001BF6  C1A6  F021         	movff	_powf$908+2,___flmul@b+2
  3522  001BFA  C1A7  F022         	movff	_powf$908+3,___flmul@b+3
  3523  001BFE  EC33  F020         	call	___flmul	;wreg free
  3524  001C02  C01F  F00F         	movff	?___flmul,___fladd@b
  3525  001C06  C020  F010         	movff	?___flmul+1,___fladd@b+1
  3526  001C0A  C021  F011         	movff	?___flmul+2,___fladd@b+2
  3527  001C0E  C022  F012         	movff	?___flmul+3,___fladd@b+3
  3528  001C12  ECA7  F01B         	call	___fladd	;wreg free
  3529  001C16  C00F  F154         	movff	?___fladd,_powf$909
  3530  001C1A  C010  F155         	movff	?___fladd+1,_powf$909+1
  3531  001C1E  C011  F156         	movff	?___fladd+2,_powf$909+2
  3532  001C22  C012  F157         	movff	?___fladd+3,_powf$909+3
  3533  001C26  0EAB               	movlw	171
  3534  001C28  6E13               	movwf	___fladd@a^0,c
  3535  001C2A  0EAA               	movlw	170
  3536  001C2C  6E14               	movwf	(___fladd@a+1)^0,c
  3537  001C2E  0EAA               	movlw	170
  3538  001C30  6E15               	movwf	(___fladd@a+2)^0,c
  3539  001C32  0E3E               	movlw	62
  3540  001C34  6E16               	movwf	(___fladd@a+3)^0,c
  3541  001C36  C18C  F023         	movff	powf@s2,___flmul@a
  3542  001C3A  C18D  F024         	movff	powf@s2+1,___flmul@a+1
  3543  001C3E  C18E  F025         	movff	powf@s2+2,___flmul@a+2
  3544  001C42  C18F  F026         	movff	powf@s2+3,___flmul@a+3
  3545  001C46  C154  F01F         	movff	_powf$909,___flmul@b
  3546  001C4A  C155  F020         	movff	_powf$909+1,___flmul@b+1
  3547  001C4E  C156  F021         	movff	_powf$909+2,___flmul@b+2
  3548  001C52  C157  F022         	movff	_powf$909+3,___flmul@b+3
  3549  001C56  EC33  F020         	call	___flmul	;wreg free
  3550  001C5A  C01F  F00F         	movff	?___flmul,___fladd@b
  3551  001C5E  C020  F010         	movff	?___flmul+1,___fladd@b+1
  3552  001C62  C021  F011         	movff	?___flmul+2,___fladd@b+2
  3553  001C66  C022  F012         	movff	?___flmul+3,___fladd@b+3
  3554  001C6A  ECA7  F01B         	call	___fladd	;wreg free
  3555  001C6E  C00F  F148         	movff	?___fladd,_powf$910
  3556  001C72  C010  F149         	movff	?___fladd+1,_powf$910+1
  3557  001C76  C011  F14A         	movff	?___fladd+2,_powf$910+2
  3558  001C7A  C012  F14B         	movff	?___fladd+3,_powf$910+3
  3559  001C7E  0EB7               	movlw	183
  3560  001C80  6E13               	movwf	___fladd@a^0,c
  3561  001C82  0E6D               	movlw	109
  3562  001C84  6E14               	movwf	(___fladd@a+1)^0,c
  3563  001C86  0EDB               	movlw	219
  3564  001C88  6E15               	movwf	(___fladd@a+2)^0,c
  3565  001C8A  0E3E               	movlw	62
  3566  001C8C  6E16               	movwf	(___fladd@a+3)^0,c
  3567  001C8E  C18C  F023         	movff	powf@s2,___flmul@a
  3568  001C92  C18D  F024         	movff	powf@s2+1,___flmul@a+1
  3569  001C96  C18E  F025         	movff	powf@s2+2,___flmul@a+2
  3570  001C9A  C18F  F026         	movff	powf@s2+3,___flmul@a+3
  3571  001C9E  C148  F01F         	movff	_powf$910,___flmul@b
  3572  001CA2  C149  F020         	movff	_powf$910+1,___flmul@b+1
  3573  001CA6  C14A  F021         	movff	_powf$910+2,___flmul@b+2
  3574  001CAA  C14B  F022         	movff	_powf$910+3,___flmul@b+3
  3575  001CAE  EC33  F020         	call	___flmul	;wreg free
  3576  001CB2  C01F  F00F         	movff	?___flmul,___fladd@b
  3577  001CB6  C020  F010         	movff	?___flmul+1,___fladd@b+1
  3578  001CBA  C021  F011         	movff	?___flmul+2,___fladd@b+2
  3579  001CBE  C022  F012         	movff	?___flmul+3,___fladd@b+3
  3580  001CC2  ECA7  F01B         	call	___fladd	;wreg free
  3581  001CC6  C00F  F138         	movff	?___fladd,_powf$912
  3582  001CCA  C010  F139         	movff	?___fladd+1,_powf$912+1
  3583  001CCE  C011  F13A         	movff	?___fladd+2,_powf$912+2
  3584  001CD2  C012  F13B         	movff	?___fladd+3,_powf$912+3
  3585  001CD6  0E9A               	movlw	154
  3586  001CD8  6E13               	movwf	___fladd@a^0,c
  3587  001CDA  0E99               	movlw	153
  3588  001CDC  6E14               	movwf	(___fladd@a+1)^0,c
  3589  001CDE  0E19               	movlw	25
  3590  001CE0  6E15               	movwf	(___fladd@a+2)^0,c
  3591  001CE2  0E3F               	movlw	63
  3592  001CE4  6E16               	movwf	(___fladd@a+3)^0,c
  3593  001CE6  C18C  F023         	movff	powf@s2,___flmul@a
  3594  001CEA  C18D  F024         	movff	powf@s2+1,___flmul@a+1
  3595  001CEE  C18E  F025         	movff	powf@s2+2,___flmul@a+2
  3596  001CF2  C18F  F026         	movff	powf@s2+3,___flmul@a+3
  3597  001CF6  C138  F01F         	movff	_powf$912,___flmul@b
  3598  001CFA  C139  F020         	movff	_powf$912+1,___flmul@b+1
  3599  001CFE  C13A  F021         	movff	_powf$912+2,___flmul@b+2
  3600  001D02  C13B  F022         	movff	_powf$912+3,___flmul@b+3
  3601  001D06  EC33  F020         	call	___flmul	;wreg free
  3602  001D0A  C01F  F00F         	movff	?___flmul,___fladd@b
  3603  001D0E  C020  F010         	movff	?___flmul+1,___fladd@b+1
  3604  001D12  C021  F011         	movff	?___flmul+2,___fladd@b+2
  3605  001D16  C022  F012         	movff	?___flmul+3,___fladd@b+3
  3606  001D1A  ECA7  F01B         	call	___fladd	;wreg free
  3607  001D1E  C00F  F100         	movff	?___fladd,_powf$913
  3608  001D22  C010  F101         	movff	?___fladd+1,_powf$913+1
  3609  001D26  C011  F102         	movff	?___fladd+2,_powf$913+2
  3610  001D2A  C012  F103         	movff	?___fladd+3,_powf$913+3
  3611  001D2E  C18C  F023         	movff	powf@s2,___flmul@a
  3612  001D32  C18D  F024         	movff	powf@s2+1,___flmul@a+1
  3613  001D36  C18E  F025         	movff	powf@s2+2,___flmul@a+2
  3614  001D3A  C18F  F026         	movff	powf@s2+3,___flmul@a+3
  3615  001D3E  C18C  F01F         	movff	powf@s2,___flmul@b
  3616  001D42  C18D  F020         	movff	powf@s2+1,___flmul@b+1
  3617  001D46  C18E  F021         	movff	powf@s2+2,___flmul@b+2
  3618  001D4A  C18F  F022         	movff	powf@s2+3,___flmul@b+3
  3619  001D4E  EC33  F020         	call	___flmul	;wreg free
  3620  001D52  C01F  F104         	movff	?___flmul,_powf$914
  3621  001D56  C020  F105         	movff	?___flmul+1,_powf$914+1
  3622  001D5A  C021  F106         	movff	?___flmul+2,_powf$914+2
  3623  001D5E  C022  F107         	movff	?___flmul+3,_powf$914+3
  3624  001D62  C100  F01F         	movff	_powf$913,___flmul@b
  3625  001D66  C101  F020         	movff	_powf$913+1,___flmul@b+1
  3626  001D6A  C102  F021         	movff	_powf$913+2,___flmul@b+2
  3627  001D6E  C103  F022         	movff	_powf$913+3,___flmul@b+3
  3628  001D72  C104  F023         	movff	_powf$914,___flmul@a
  3629  001D76  C105  F024         	movff	_powf$914+1,___flmul@a+1
  3630  001D7A  C106  F025         	movff	_powf$914+2,___flmul@a+2
  3631  001D7E  C107  F026         	movff	_powf$914+3,___flmul@a+3
  3632  001D82  EC33  F020         	call	___flmul	;wreg free
  3633  001D86  C01F  F14C         	movff	?___flmul,powf@r
  3634  001D8A  C020  F14D         	movff	?___flmul+1,powf@r+1
  3635  001D8E  C021  F14E         	movff	?___flmul+2,powf@r+2
  3636  001D92  C022  F14F         	movff	?___flmul+3,powf@r+3
  3637  001D96  C130  F023         	movff	powf@s_l,___flmul@a
  3638  001D9A  C131  F024         	movff	powf@s_l+1,___flmul@a+1
  3639  001D9E  C132  F025         	movff	powf@s_l+2,___flmul@a+2
  3640  001DA2  C133  F026         	movff	powf@s_l+3,___flmul@a+3
  3641  001DA6  C15C  F013         	movff	powf@s,___fladd@a
  3642  001DAA  C15D  F014         	movff	powf@s+1,___fladd@a+1
  3643  001DAE  C15E  F015         	movff	powf@s+2,___fladd@a+2
  3644  001DB2  C15F  F016         	movff	powf@s+3,___fladd@a+3
  3645  001DB6  C16C  F00F         	movff	powf@s_h,___fladd@b
  3646  001DBA  C16D  F010         	movff	powf@s_h+1,___fladd@b+1
  3647  001DBE  C16E  F011         	movff	powf@s_h+2,___fladd@b+2
  3648  001DC2  C16F  F012         	movff	powf@s_h+3,___fladd@b+3
  3649  001DC6  ECA7  F01B         	call	___fladd	;wreg free
  3650  001DCA  C00F  F01F         	movff	?___fladd,___flmul@b
  3651  001DCE  C010  F020         	movff	?___fladd+1,___flmul@b+1
  3652  001DD2  C011  F021         	movff	?___fladd+2,___flmul@b+2
  3653  001DD6  C012  F022         	movff	?___fladd+3,___flmul@b+3
  3654  001DDA  EC33  F020         	call	___flmul	;wreg free
  3655  001DDE  C01F  F158         	movff	?___flmul,_powf$915
  3656  001DE2  C020  F159         	movff	?___flmul+1,_powf$915+1
  3657  001DE6  C021  F15A         	movff	?___flmul+2,_powf$915+2
  3658  001DEA  C022  F15B         	movff	?___flmul+3,_powf$915+3
  3659  001DEE  C14C  F00F         	movff	powf@r,___fladd@b
  3660  001DF2  C14D  F010         	movff	powf@r+1,___fladd@b+1
  3661  001DF6  C14E  F011         	movff	powf@r+2,___fladd@b+2
  3662  001DFA  C14F  F012         	movff	powf@r+3,___fladd@b+3
  3663  001DFE  C158  F013         	movff	_powf$915,___fladd@a
  3664  001E02  C159  F014         	movff	_powf$915+1,___fladd@a+1
  3665  001E06  C15A  F015         	movff	_powf$915+2,___fladd@a+2
  3666  001E0A  C15B  F016         	movff	_powf$915+3,___fladd@a+3
  3667  001E0E  ECA7  F01B         	call	___fladd	;wreg free
  3668  001E12  C00F  F14C         	movff	?___fladd,powf@r
  3669  001E16  C010  F14D         	movff	?___fladd+1,powf@r+1
  3670  001E1A  C011  F14E         	movff	?___fladd+2,powf@r+2
  3671  001E1E  C012  F14F         	movff	?___fladd+3,powf@r+3
  3672  001E22  C16C  F01F         	movff	powf@s_h,___flmul@b
  3673  001E26  C16D  F020         	movff	powf@s_h+1,___flmul@b+1
  3674  001E2A  C16E  F021         	movff	powf@s_h+2,___flmul@b+2
  3675  001E2E  C16F  F022         	movff	powf@s_h+3,___flmul@b+3
  3676  001E32  C16C  F023         	movff	powf@s_h,___flmul@a
  3677  001E36  C16D  F024         	movff	powf@s_h+1,___flmul@a+1
  3678  001E3A  C16E  F025         	movff	powf@s_h+2,___flmul@a+2
  3679  001E3E  C16F  F026         	movff	powf@s_h+3,___flmul@a+3
  3680  001E42  EC33  F020         	call	___flmul	;wreg free
  3681  001E46  C01F  F18C         	movff	?___flmul,powf@s2
  3682  001E4A  C020  F18D         	movff	?___flmul+1,powf@s2+1
  3683  001E4E  C021  F18E         	movff	?___flmul+2,powf@s2+2
  3684  001E52  C022  F18F         	movff	?___flmul+3,powf@s2+3
  3685  001E56  0E00               	movlw	0
  3686  001E58  6E13               	movwf	___fladd@a^0,c
  3687  001E5A  0E00               	movlw	0
  3688  001E5C  6E14               	movwf	(___fladd@a+1)^0,c
  3689  001E5E  0E40               	movlw	64
  3690  001E60  6E15               	movwf	(___fladd@a+2)^0,c
  3691  001E62  0E40               	movlw	64
  3692  001E64  6E16               	movwf	(___fladd@a+3)^0,c
  3693  001E66  C18C  F00F         	movff	powf@s2,___fladd@b
  3694  001E6A  C18D  F010         	movff	powf@s2+1,___fladd@b+1
  3695  001E6E  C18E  F011         	movff	powf@s2+2,___fladd@b+2
  3696  001E72  C18F  F012         	movff	powf@s2+3,___fladd@b+3
  3697  001E76  ECA7  F01B         	call	___fladd	;wreg free
  3698  001E7A  C00F  F158         	movff	?___fladd,_powf$915
  3699  001E7E  C010  F159         	movff	?___fladd+1,_powf$915+1
  3700  001E82  C011  F15A         	movff	?___fladd+2,_powf$915+2
  3701  001E86  C012  F15B         	movff	?___fladd+3,_powf$915+3
  3702  001E8A  C158  F00F         	movff	_powf$915,___fladd@b
  3703  001E8E  C159  F010         	movff	_powf$915+1,___fladd@b+1
  3704  001E92  C15A  F011         	movff	_powf$915+2,___fladd@b+2
  3705  001E96  C15B  F012         	movff	_powf$915+3,___fladd@b+3
  3706  001E9A  C14C  F013         	movff	powf@r,___fladd@a
  3707  001E9E  C14D  F014         	movff	powf@r+1,___fladd@a+1
  3708  001EA2  C14E  F015         	movff	powf@r+2,___fladd@a+2
  3709  001EA6  C14F  F016         	movff	powf@r+3,___fladd@a+3
  3710  001EAA  ECA7  F01B         	call	___fladd	;wreg free
  3711  001EAE  C00F  F168         	movff	?___fladd,powf@t_h
  3712  001EB2  C010  F169         	movff	?___fladd+1,powf@t_h+1
  3713  001EB6  C011  F16A         	movff	?___fladd+2,powf@t_h+2
  3714  001EBA  C012  F16B         	movff	?___fladd+3,powf@t_h+3
  3715  001EBE  C168  F1B8         	movff	powf@t_h,powf@__xc8_float_word
  3716  001EC2  C169  F1B9         	movff	powf@t_h+1,powf@__xc8_float_word+1
  3717  001EC6  C16A  F1BA         	movff	powf@t_h+2,powf@__xc8_float_word+2
  3718  001ECA  C16B  F1BB         	movff	powf@t_h+3,powf@__xc8_float_word+3
  3719  001ECE  C1B8  F190         	movff	powf@__xc8_float_word,powf@is
  3720  001ED2  C1B9  F191         	movff	powf@__xc8_float_word+1,powf@is+1
  3721  001ED6  C1BA  F192         	movff	powf@__xc8_float_word+2,powf@is+2
  3722  001EDA  C1BB  F193         	movff	powf@__xc8_float_word+3,powf@is+3
  3723  001EDE  0E00               	movlw	0
  3724  001EE0  0101               	movlb	1	; () banked
  3725  001EE2  1590               	andwf	powf@is& (0+255),w,b
  3726  001EE4  6FB8               	movwf	powf@__xc8_float_word& (0+255),b
  3727  001EE6  0EF0               	movlw	240
  3728  001EE8  1591               	andwf	(powf@is+1)& (0+255),w,b
  3729  001EEA  6FB9               	movwf	(powf@__xc8_float_word+1)& (0+255),b
  3730  001EEC  0EFF               	movlw	255
  3731  001EEE  1592               	andwf	(powf@is+2)& (0+255),w,b
  3732  001EF0  6FBA               	movwf	(powf@__xc8_float_word+2)& (0+255),b
  3733  001EF2  0EFF               	movlw	255
  3734  001EF4  1593               	andwf	(powf@is+3)& (0+255),w,b
  3735  001EF6  6FBB               	movwf	(powf@__xc8_float_word+3)& (0+255),b
  3736  001EF8                     
  3737                           ; BSR set to: 1
  3738  001EF8  C1B8  F168         	movff	powf@__xc8_float_word,powf@t_h
  3739  001EFC  C1B9  F169         	movff	powf@__xc8_float_word+1,powf@t_h+1
  3740  001F00  C1BA  F16A         	movff	powf@__xc8_float_word+2,powf@t_h+2
  3741  001F04  C1BB  F16B         	movff	powf@__xc8_float_word+3,powf@t_h+3
  3742  001F08                     
  3743                           ; BSR set to: 1
  3744  001F08  0E00               	movlw	0
  3745  001F0A  6E13               	movwf	___fladd@a^0,c
  3746  001F0C  0E00               	movlw	0
  3747  001F0E  6E14               	movwf	(___fladd@a+1)^0,c
  3748  001F10  0E40               	movlw	64
  3749  001F12  6E15               	movwf	(___fladd@a+2)^0,c
  3750  001F14  0EC0               	movlw	192
  3751  001F16  6E16               	movwf	(___fladd@a+3)^0,c
  3752  001F18  C168  F00F         	movff	powf@t_h,___fladd@b
  3753  001F1C  C169  F010         	movff	powf@t_h+1,___fladd@b+1
  3754  001F20  C16A  F011         	movff	powf@t_h+2,___fladd@b+2
  3755  001F24  C16B  F012         	movff	powf@t_h+3,___fladd@b+3
  3756  001F28  ECA7  F01B         	call	___fladd	;wreg free
  3757  001F2C  C00F  F13C         	movff	?___fladd,_powf$916
  3758  001F30  C010  F13D         	movff	?___fladd+1,_powf$916+1
  3759  001F34  C011  F13E         	movff	?___fladd+2,_powf$916+2
  3760  001F38  C012  F13F         	movff	?___fladd+3,_powf$916+3
  3761  001F3C  C18C  F03C         	movff	powf@s2,___flsub@a
  3762  001F40  C18D  F03D         	movff	powf@s2+1,___flsub@a+1
  3763  001F44  C18E  F03E         	movff	powf@s2+2,___flsub@a+2
  3764  001F48  C18F  F03F         	movff	powf@s2+3,___flsub@a+3
  3765  001F4C  C13C  F038         	movff	_powf$916,___flsub@b
  3766  001F50  C13D  F039         	movff	_powf$916+1,___flsub@b+1
  3767  001F54  C13E  F03A         	movff	_powf$916+2,___flsub@b+2
  3768  001F58  C13F  F03B         	movff	_powf$916+3,___flsub@b+3
  3769  001F5C  EC0F  F027         	call	___flsub	;wreg free
  3770  001F60  C038  F140         	movff	?___flsub,_powf$917
  3771  001F64  C039  F141         	movff	?___flsub+1,_powf$917+1
  3772  001F68  C03A  F142         	movff	?___flsub+2,_powf$917+2
  3773  001F6C  C03B  F143         	movff	?___flsub+3,_powf$917+3
  3774  001F70  C14C  F038         	movff	powf@r,___flsub@b
  3775  001F74  C14D  F039         	movff	powf@r+1,___flsub@b+1
  3776  001F78  C14E  F03A         	movff	powf@r+2,___flsub@b+2
  3777  001F7C  C14F  F03B         	movff	powf@r+3,___flsub@b+3
  3778  001F80  C140  F03C         	movff	_powf$917,___flsub@a
  3779  001F84  C141  F03D         	movff	_powf$917+1,___flsub@a+1
  3780  001F88  C142  F03E         	movff	_powf$917+2,___flsub@a+2
  3781  001F8C  C143  F03F         	movff	_powf$917+3,___flsub@a+3
  3782  001F90  EC0F  F027         	call	___flsub	;wreg free
  3783  001F94  C038  F134         	movff	?___flsub,powf@t_l
  3784  001F98  C039  F135         	movff	?___flsub+1,powf@t_l+1
  3785  001F9C  C03A  F136         	movff	?___flsub+2,powf@t_l+2
  3786  001FA0  C03B  F137         	movff	?___flsub+3,powf@t_l+3
  3787  001FA4  C16C  F01F         	movff	powf@s_h,___flmul@b
  3788  001FA8  C16D  F020         	movff	powf@s_h+1,___flmul@b+1
  3789  001FAC  C16E  F021         	movff	powf@s_h+2,___flmul@b+2
  3790  001FB0  C16F  F022         	movff	powf@s_h+3,___flmul@b+3
  3791  001FB4  C168  F023         	movff	powf@t_h,___flmul@a
  3792  001FB8  C169  F024         	movff	powf@t_h+1,___flmul@a+1
  3793  001FBC  C16A  F025         	movff	powf@t_h+2,___flmul@a+2
  3794  001FC0  C16B  F026         	movff	powf@t_h+3,___flmul@a+3
  3795  001FC4  EC33  F020         	call	___flmul	;wreg free
  3796  001FC8  C01F  F174         	movff	?___flmul,powf@u
  3797  001FCC  C020  F175         	movff	?___flmul+1,powf@u+1
  3798  001FD0  C021  F176         	movff	?___flmul+2,powf@u+2
  3799  001FD4  C022  F177         	movff	?___flmul+3,powf@u+3
  3800  001FD8  C168  F023         	movff	powf@t_h,___flmul@a
  3801  001FDC  C169  F024         	movff	powf@t_h+1,___flmul@a+1
  3802  001FE0  C16A  F025         	movff	powf@t_h+2,___flmul@a+2
  3803  001FE4  C16B  F026         	movff	powf@t_h+3,___flmul@a+3
  3804  001FE8  C130  F01F         	movff	powf@s_l,___flmul@b
  3805  001FEC  C131  F020         	movff	powf@s_l+1,___flmul@b+1
  3806  001FF0  C132  F021         	movff	powf@s_l+2,___flmul@b+2
  3807  001FF4  C133  F022         	movff	powf@s_l+3,___flmul@b+3
  3808  001FF8  EC33  F020         	call	___flmul	;wreg free
  3809  001FFC  C01F  F00F         	movff	?___flmul,___fladd@b
  3810  002000  C020  F010         	movff	?___flmul+1,___fladd@b+1
  3811  002004  C021  F011         	movff	?___flmul+2,___fladd@b+2
  3812  002008  C022  F012         	movff	?___flmul+3,___fladd@b+3
  3813  00200C  C15C  F023         	movff	powf@s,___flmul@a
  3814  002010  C15D  F024         	movff	powf@s+1,___flmul@a+1
  3815  002014  C15E  F025         	movff	powf@s+2,___flmul@a+2
  3816  002018  C15F  F026         	movff	powf@s+3,___flmul@a+3
  3817  00201C  C134  F01F         	movff	powf@t_l,___flmul@b
  3818  002020  C135  F020         	movff	powf@t_l+1,___flmul@b+1
  3819  002024  C136  F021         	movff	powf@t_l+2,___flmul@b+2
  3820  002028  C137  F022         	movff	powf@t_l+3,___flmul@b+3
  3821  00202C  EC33  F020         	call	___flmul	;wreg free
  3822  002030  C01F  F013         	movff	?___flmul,___fladd@a
  3823  002034  C020  F014         	movff	?___flmul+1,___fladd@a+1
  3824  002038  C021  F015         	movff	?___flmul+2,___fladd@a+2
  3825  00203C  C022  F016         	movff	?___flmul+3,___fladd@a+3
  3826  002040  ECA7  F01B         	call	___fladd	;wreg free
  3827  002044  C00F  F178         	movff	?___fladd,powf@v
  3828  002048  C010  F179         	movff	?___fladd+1,powf@v+1
  3829  00204C  C011  F17A         	movff	?___fladd+2,powf@v+2
  3830  002050  C012  F17B         	movff	?___fladd+3,powf@v+3
  3831  002054  C174  F00F         	movff	powf@u,___fladd@b
  3832  002058  C175  F010         	movff	powf@u+1,___fladd@b+1
  3833  00205C  C176  F011         	movff	powf@u+2,___fladd@b+2
  3834  002060  C177  F012         	movff	powf@u+3,___fladd@b+3
  3835  002064  C178  F013         	movff	powf@v,___fladd@a
  3836  002068  C179  F014         	movff	powf@v+1,___fladd@a+1
  3837  00206C  C17A  F015         	movff	powf@v+2,___fladd@a+2
  3838  002070  C17B  F016         	movff	powf@v+3,___fladd@a+3
  3839  002074  ECA7  F01B         	call	___fladd	;wreg free
  3840  002078  C00F  F19C         	movff	?___fladd,powf@p_h
  3841  00207C  C010  F19D         	movff	?___fladd+1,powf@p_h+1
  3842  002080  C011  F19E         	movff	?___fladd+2,powf@p_h+2
  3843  002084  C012  F19F         	movff	?___fladd+3,powf@p_h+3
  3844  002088  C19C  F1B8         	movff	powf@p_h,powf@__xc8_float_word
  3845  00208C  C19D  F1B9         	movff	powf@p_h+1,powf@__xc8_float_word+1
  3846  002090  C19E  F1BA         	movff	powf@p_h+2,powf@__xc8_float_word+2
  3847  002094  C19F  F1BB         	movff	powf@p_h+3,powf@__xc8_float_word+3
  3848  002098  C1B8  F190         	movff	powf@__xc8_float_word,powf@is
  3849  00209C  C1B9  F191         	movff	powf@__xc8_float_word+1,powf@is+1
  3850  0020A0  C1BA  F192         	movff	powf@__xc8_float_word+2,powf@is+2
  3851  0020A4  C1BB  F193         	movff	powf@__xc8_float_word+3,powf@is+3
  3852  0020A8  0E00               	movlw	0
  3853  0020AA  0101               	movlb	1	; () banked
  3854  0020AC  1590               	andwf	powf@is& (0+255),w,b
  3855  0020AE  6FB8               	movwf	powf@__xc8_float_word& (0+255),b
  3856  0020B0  0EF0               	movlw	240
  3857  0020B2  1591               	andwf	(powf@is+1)& (0+255),w,b
  3858  0020B4  6FB9               	movwf	(powf@__xc8_float_word+1)& (0+255),b
  3859  0020B6  0EFF               	movlw	255
  3860  0020B8  1592               	andwf	(powf@is+2)& (0+255),w,b
  3861  0020BA  6FBA               	movwf	(powf@__xc8_float_word+2)& (0+255),b
  3862  0020BC  0EFF               	movlw	255
  3863  0020BE  1593               	andwf	(powf@is+3)& (0+255),w,b
  3864  0020C0  6FBB               	movwf	(powf@__xc8_float_word+3)& (0+255),b
  3865  0020C2                     
  3866                           ; BSR set to: 1
  3867  0020C2  C1B8  F19C         	movff	powf@__xc8_float_word,powf@p_h
  3868  0020C6  C1B9  F19D         	movff	powf@__xc8_float_word+1,powf@p_h+1
  3869  0020CA  C1BA  F19E         	movff	powf@__xc8_float_word+2,powf@p_h+2
  3870  0020CE  C1BB  F19F         	movff	powf@__xc8_float_word+3,powf@p_h+3
  3871  0020D2                     
  3872                           ; BSR set to: 1
  3873  0020D2  C174  F03C         	movff	powf@u,___flsub@a
  3874  0020D6  C175  F03D         	movff	powf@u+1,___flsub@a+1
  3875  0020DA  C176  F03E         	movff	powf@u+2,___flsub@a+2
  3876  0020DE  C177  F03F         	movff	powf@u+3,___flsub@a+3
  3877  0020E2  C19C  F038         	movff	powf@p_h,___flsub@b
  3878  0020E6  C19D  F039         	movff	powf@p_h+1,___flsub@b+1
  3879  0020EA  C19E  F03A         	movff	powf@p_h+2,___flsub@b+2
  3880  0020EE  C19F  F03B         	movff	powf@p_h+3,___flsub@b+3
  3881  0020F2  EC0F  F027         	call	___flsub	;wreg free
  3882  0020F6  C038  F194         	movff	?___flsub,_powf$911
  3883  0020FA  C039  F195         	movff	?___flsub+1,_powf$911+1
  3884  0020FE  C03A  F196         	movff	?___flsub+2,_powf$911+2
  3885  002102  C03B  F197         	movff	?___flsub+3,_powf$911+3
  3886  002106  C178  F038         	movff	powf@v,___flsub@b
  3887  00210A  C179  F039         	movff	powf@v+1,___flsub@b+1
  3888  00210E  C17A  F03A         	movff	powf@v+2,___flsub@b+2
  3889  002112  C17B  F03B         	movff	powf@v+3,___flsub@b+3
  3890  002116  C194  F03C         	movff	_powf$911,___flsub@a
  3891  00211A  C195  F03D         	movff	_powf$911+1,___flsub@a+1
  3892  00211E  C196  F03E         	movff	_powf$911+2,___flsub@a+2
  3893  002122  C197  F03F         	movff	_powf$911+3,___flsub@a+3
  3894  002126  EC0F  F027         	call	___flsub	;wreg free
  3895  00212A  C038  F164         	movff	?___flsub,powf@p_l
  3896  00212E  C039  F165         	movff	?___flsub+1,powf@p_l+1
  3897  002132  C03A  F166         	movff	?___flsub+2,powf@p_l+2
  3898  002136  C03B  F167         	movff	?___flsub+3,powf@p_l+3
  3899  00213A  C19C  F01F         	movff	powf@p_h,___flmul@b
  3900  00213E  C19D  F020         	movff	powf@p_h+1,___flmul@b+1
  3901  002142  C19E  F021         	movff	powf@p_h+2,___flmul@b+2
  3902  002146  C19F  F022         	movff	powf@p_h+3,___flmul@b+3
  3903  00214A  0E00               	movlw	0
  3904  00214C  6E23               	movwf	___flmul@a^0,c
  3905  00214E  0E40               	movlw	64
  3906  002150  6E24               	movwf	(___flmul@a+1)^0,c
  3907  002152  0E76               	movlw	118
  3908  002154  6E25               	movwf	(___flmul@a+2)^0,c
  3909  002156  0E3F               	movlw	63
  3910  002158  6E26               	movwf	(___flmul@a+3)^0,c
  3911  00215A  EC33  F020         	call	___flmul	;wreg free
  3912  00215E  C01F  F120         	movff	?___flmul,powf@z_h
  3913  002162  C020  F121         	movff	?___flmul+1,powf@z_h+1
  3914  002166  C021  F122         	movff	?___flmul+2,powf@z_h+2
  3915  00216A  C022  F123         	movff	?___flmul+3,powf@z_h+3
  3916  00216E  0E4F               	movlw	79
  3917  002170  6E23               	movwf	___flmul@a^0,c
  3918  002172  0E38               	movlw	56
  3919  002174  6E24               	movwf	(___flmul@a+1)^0,c
  3920  002176  0E76               	movlw	118
  3921  002178  6E25               	movwf	(___flmul@a+2)^0,c
  3922  00217A  0E3F               	movlw	63
  3923  00217C  6E26               	movwf	(___flmul@a+3)^0,c
  3924  00217E  C164  F01F         	movff	powf@p_l,___flmul@b
  3925  002182  C165  F020         	movff	powf@p_l+1,___flmul@b+1
  3926  002186  C166  F021         	movff	powf@p_l+2,___flmul@b+2
  3927  00218A  C167  F022         	movff	powf@p_l+3,___flmul@b+3
  3928  00218E  EC33  F020         	call	___flmul	;wreg free
  3929  002192  C01F  F013         	movff	?___flmul,___fladd@a
  3930  002196  C020  F014         	movff	?___flmul+1,___fladd@a+1
  3931  00219A  C021  F015         	movff	?___flmul+2,___fladd@a+2
  3932  00219E  C022  F016         	movff	?___flmul+3,___fladd@a+3
  3933  0021A2  0EC6               	movlw	198
  3934  0021A4  6E23               	movwf	___flmul@a^0,c
  3935  0021A6  0E23               	movlw	35
  3936  0021A8  6E24               	movwf	(___flmul@a+1)^0,c
  3937  0021AA  0EF6               	movlw	246
  3938  0021AC  6E25               	movwf	(___flmul@a+2)^0,c
  3939  0021AE  0EB8               	movlw	184
  3940  0021B0  6E26               	movwf	(___flmul@a+3)^0,c
  3941  0021B2  C19C  F01F         	movff	powf@p_h,___flmul@b
  3942  0021B6  C19D  F020         	movff	powf@p_h+1,___flmul@b+1
  3943  0021BA  C19E  F021         	movff	powf@p_h+2,___flmul@b+2
  3944  0021BE  C19F  F022         	movff	powf@p_h+3,___flmul@b+3
  3945  0021C2  EC33  F020         	call	___flmul	;wreg free
  3946  0021C6  C01F  F00F         	movff	?___flmul,___fladd@b
  3947  0021CA  C020  F010         	movff	?___flmul+1,___fladd@b+1
  3948  0021CE  C021  F011         	movff	?___flmul+2,___fladd@b+2
  3949  0021D2  C022  F012         	movff	?___flmul+3,___fladd@b+3
  3950  0021D6  ECA7  F01B         	call	___fladd	;wreg free
  3951  0021DA  C00F  F158         	movff	?___fladd,_powf$915
  3952  0021DE  C010  F159         	movff	?___fladd+1,_powf$915+1
  3953  0021E2  C011  F15A         	movff	?___fladd+2,_powf$915+2
  3954  0021E6  C012  F15B         	movff	?___fladd+3,_powf$915+3
  3955  0021EA  C158  F00F         	movff	_powf$915,___fladd@b
  3956  0021EE  C159  F010         	movff	_powf$915+1,___fladd@b+1
  3957  0021F2  C15A  F011         	movff	_powf$915+2,___fladd@b+2
  3958  0021F6  C15B  F012         	movff	_powf$915+3,___fladd@b+3
  3959  0021FA  C1A0  F090         	movff	powf@k,??_powf
  3960  0021FE  C1A1  F091         	movff	powf@k+1,??_powf+1
  3961  002202  0100               	movlb	0	; () banked
  3962  002204  90D8               	bcf	status,0,c
  3963  002206  3790               	rlcf	??_powf& (0+255),f,b
  3964  002208  3791               	rlcf	(??_powf+1)& (0+255),f,b
  3965  00220A  90D8               	bcf	status,0,c
  3966  00220C  3790               	rlcf	??_powf& (0+255),f,b
  3967  00220E  3791               	rlcf	(??_powf+1)& (0+255),f,b
  3968  002210  0E01               	movlw	low _dp_l
  3969  002212  2590               	addwf	??_powf& (0+255),w,b
  3970  002214  6EF6               	movwf	tblptrl,c
  3971  002216  0E08               	movlw	high _dp_l
  3972  002218  2191               	addwfc	(??_powf+1)& (0+255),w,b
  3973  00221A  6EF7               	movwf	tblptrh,c
  3974  00221C                     	if	0	;There are less than 3 active tblptr bytes
  3975  00221C                     	endif
  3976  00221C  0009               	tblrd		*+
  3977  00221E  CFF5 F013          	movff	tablat,___fladd@a
  3978  002222  0009               	tblrd		*+
  3979  002224  CFF5 F014          	movff	tablat,___fladd@a+1
  3980  002228  0009               	tblrd		*+
  3981  00222A  CFF5 F015          	movff	tablat,___fladd@a+2
  3982  00222E  000A               	tblrd		*-
  3983  002230  CFF5 F016          	movff	tablat,___fladd@a+3
  3984  002234  ECA7  F01B         	call	___fladd	;wreg free
  3985  002238  C00F  F124         	movff	?___fladd,powf@z_l
  3986  00223C  C010  F125         	movff	?___fladd+1,powf@z_l+1
  3987  002240  C011  F126         	movff	?___fladd+2,powf@z_l+2
  3988  002244  C012  F127         	movff	?___fladd+3,powf@z_l+3
  3989  002248  C17C  F001         	movff	powf@n,___xxtofl@val
  3990  00224C  C17D  F002         	movff	powf@n+1,___xxtofl@val+1
  3991  002250  C17E  F003         	movff	powf@n+2,___xxtofl@val+2
  3992  002254  C17F  F004         	movff	powf@n+3,___xxtofl@val+3
  3993  002258  0E01               	movlw	1
  3994  00225A  EC2F  F025         	call	___xxtofl
  3995  00225E  C001  F1B0         	movff	?___xxtofl,powf@t
  3996  002262  C002  F1B1         	movff	?___xxtofl+1,powf@t+1
  3997  002266  C003  F1B2         	movff	?___xxtofl+2,powf@t+2
  3998  00226A  C004  F1B3         	movff	?___xxtofl+3,powf@t+3
  3999  00226E  C124  F013         	movff	powf@z_l,___fladd@a
  4000  002272  C125  F014         	movff	powf@z_l+1,___fladd@a+1
  4001  002276  C126  F015         	movff	powf@z_l+2,___fladd@a+2
  4002  00227A  C127  F016         	movff	powf@z_l+3,___fladd@a+3
  4003  00227E  C120  F00F         	movff	powf@z_h,___fladd@b
  4004  002282  C121  F010         	movff	powf@z_h+1,___fladd@b+1
  4005  002286  C122  F011         	movff	powf@z_h+2,___fladd@b+2
  4006  00228A  C123  F012         	movff	powf@z_h+3,___fladd@b+3
  4007  00228E  ECA7  F01B         	call	___fladd	;wreg free
  4008  002292  C00F  F158         	movff	?___fladd,_powf$915
  4009  002296  C010  F159         	movff	?___fladd+1,_powf$915+1
  4010  00229A  C011  F15A         	movff	?___fladd+2,_powf$915+2
  4011  00229E  C012  F15B         	movff	?___fladd+3,_powf$915+3
  4012  0022A2  C1A0  F090         	movff	powf@k,??_powf
  4013  0022A6  C1A1  F091         	movff	powf@k+1,??_powf+1
  4014  0022AA  0100               	movlb	0	; () banked
  4015  0022AC  90D8               	bcf	status,0,c
  4016  0022AE  3790               	rlcf	??_powf& (0+255),f,b
  4017  0022B0  3791               	rlcf	(??_powf+1)& (0+255),f,b
  4018  0022B2  90D8               	bcf	status,0,c
  4019  0022B4  3790               	rlcf	??_powf& (0+255),f,b
  4020  0022B6  3791               	rlcf	(??_powf+1)& (0+255),f,b
  4021  0022B8  0E09               	movlw	low _dp_h
  4022  0022BA  2590               	addwf	??_powf& (0+255),w,b
  4023  0022BC  6EF6               	movwf	tblptrl,c
  4024  0022BE  0E08               	movlw	high _dp_h
  4025  0022C0  2191               	addwfc	(??_powf+1)& (0+255),w,b
  4026  0022C2  6EF7               	movwf	tblptrh,c
  4027  0022C4                     	if	0	;There are less than 3 active tblptr bytes
  4028  0022C4                     	endif
  4029  0022C4  0009               	tblrd		*+
  4030  0022C6  CFF5 F013          	movff	tablat,___fladd@a
  4031  0022CA  0009               	tblrd		*+
  4032  0022CC  CFF5 F014          	movff	tablat,___fladd@a+1
  4033  0022D0  0009               	tblrd		*+
  4034  0022D2  CFF5 F015          	movff	tablat,___fladd@a+2
  4035  0022D6  000A               	tblrd		*-
  4036  0022D8  CFF5 F016          	movff	tablat,___fladd@a+3
  4037  0022DC  C158  F00F         	movff	_powf$915,___fladd@b
  4038  0022E0  C159  F010         	movff	_powf$915+1,___fladd@b+1
  4039  0022E4  C15A  F011         	movff	_powf$915+2,___fladd@b+2
  4040  0022E8  C15B  F012         	movff	_powf$915+3,___fladd@b+3
  4041  0022EC  ECA7  F01B         	call	___fladd	;wreg free
  4042  0022F0  C00F  F108         	movff	?___fladd,_powf$918
  4043  0022F4  C010  F109         	movff	?___fladd+1,_powf$918+1
  4044  0022F8  C011  F10A         	movff	?___fladd+2,_powf$918+2
  4045  0022FC  C012  F10B         	movff	?___fladd+3,_powf$918+3
  4046  002300  C108  F00F         	movff	_powf$918,___fladd@b
  4047  002304  C109  F010         	movff	_powf$918+1,___fladd@b+1
  4048  002308  C10A  F011         	movff	_powf$918+2,___fladd@b+2
  4049  00230C  C10B  F012         	movff	_powf$918+3,___fladd@b+3
  4050  002310  C1B0  F013         	movff	powf@t,___fladd@a
  4051  002314  C1B1  F014         	movff	powf@t+1,___fladd@a+1
  4052  002318  C1B2  F015         	movff	powf@t+2,___fladd@a+2
  4053  00231C  C1B3  F016         	movff	powf@t+3,___fladd@a+3
  4054  002320  ECA7  F01B         	call	___fladd	;wreg free
  4055  002324  C00F  F180         	movff	?___fladd,powf@t1
  4056  002328  C010  F181         	movff	?___fladd+1,powf@t1+1
  4057  00232C  C011  F182         	movff	?___fladd+2,powf@t1+2
  4058  002330  C012  F183         	movff	?___fladd+3,powf@t1+3
  4059  002334  C180  F1B8         	movff	powf@t1,powf@__xc8_float_word
  4060  002338  C181  F1B9         	movff	powf@t1+1,powf@__xc8_float_word+1
  4061  00233C  C182  F1BA         	movff	powf@t1+2,powf@__xc8_float_word+2
  4062  002340  C183  F1BB         	movff	powf@t1+3,powf@__xc8_float_word+3
  4063  002344  C1B8  F190         	movff	powf@__xc8_float_word,powf@is
  4064  002348  C1B9  F191         	movff	powf@__xc8_float_word+1,powf@is+1
  4065  00234C  C1BA  F192         	movff	powf@__xc8_float_word+2,powf@is+2
  4066  002350  C1BB  F193         	movff	powf@__xc8_float_word+3,powf@is+3
  4067  002354  0E00               	movlw	0
  4068  002356  0101               	movlb	1	; () banked
  4069  002358  1590               	andwf	powf@is& (0+255),w,b
  4070  00235A  6FB8               	movwf	powf@__xc8_float_word& (0+255),b
  4071  00235C  0EF0               	movlw	240
  4072  00235E  1591               	andwf	(powf@is+1)& (0+255),w,b
  4073  002360  6FB9               	movwf	(powf@__xc8_float_word+1)& (0+255),b
  4074  002362  0EFF               	movlw	255
  4075  002364  1592               	andwf	(powf@is+2)& (0+255),w,b
  4076  002366  6FBA               	movwf	(powf@__xc8_float_word+2)& (0+255),b
  4077  002368  0EFF               	movlw	255
  4078  00236A  1593               	andwf	(powf@is+3)& (0+255),w,b
  4079  00236C  6FBB               	movwf	(powf@__xc8_float_word+3)& (0+255),b
  4080  00236E                     
  4081                           ; BSR set to: 1
  4082  00236E  C1B8  F180         	movff	powf@__xc8_float_word,powf@t1
  4083  002372  C1B9  F181         	movff	powf@__xc8_float_word+1,powf@t1+1
  4084  002376  C1BA  F182         	movff	powf@__xc8_float_word+2,powf@t1+2
  4085  00237A  C1BB  F183         	movff	powf@__xc8_float_word+3,powf@t1+3
  4086  00237E                     
  4087                           ; BSR set to: 1
  4088  00237E  C1B0  F03C         	movff	powf@t,___flsub@a
  4089  002382  C1B1  F03D         	movff	powf@t+1,___flsub@a+1
  4090  002386  C1B2  F03E         	movff	powf@t+2,___flsub@a+2
  4091  00238A  C1B3  F03F         	movff	powf@t+3,___flsub@a+3
  4092  00238E  C180  F038         	movff	powf@t1,___flsub@b
  4093  002392  C181  F039         	movff	powf@t1+1,___flsub@b+1
  4094  002396  C182  F03A         	movff	powf@t1+2,___flsub@b+2
  4095  00239A  C183  F03B         	movff	powf@t1+3,___flsub@b+3
  4096  00239E  EC0F  F027         	call	___flsub	;wreg free
  4097  0023A2  C038  F194         	movff	?___flsub,_powf$911
  4098  0023A6  C039  F195         	movff	?___flsub+1,_powf$911+1
  4099  0023AA  C03A  F196         	movff	?___flsub+2,_powf$911+2
  4100  0023AE  C03B  F197         	movff	?___flsub+3,_powf$911+3
  4101  0023B2  C1A0  F090         	movff	powf@k,??_powf
  4102  0023B6  C1A1  F091         	movff	powf@k+1,??_powf+1
  4103  0023BA  0100               	movlb	0	; () banked
  4104  0023BC  90D8               	bcf	status,0,c
  4105  0023BE  3790               	rlcf	??_powf& (0+255),f,b
  4106  0023C0  3791               	rlcf	(??_powf+1)& (0+255),f,b
  4107  0023C2  90D8               	bcf	status,0,c
  4108  0023C4  3790               	rlcf	??_powf& (0+255),f,b
  4109  0023C6  3791               	rlcf	(??_powf+1)& (0+255),f,b
  4110  0023C8  0E09               	movlw	low _dp_h
  4111  0023CA  2590               	addwf	??_powf& (0+255),w,b
  4112  0023CC  6EF6               	movwf	tblptrl,c
  4113  0023CE  0E08               	movlw	high _dp_h
  4114  0023D0  2191               	addwfc	(??_powf+1)& (0+255),w,b
  4115  0023D2  6EF7               	movwf	tblptrh,c
  4116  0023D4                     	if	0	;There are less than 3 active tblptr bytes
  4117  0023D4                     	endif
  4118  0023D4  0009               	tblrd		*+
  4119  0023D6  CFF5 F03C          	movff	tablat,___flsub@a
  4120  0023DA  0009               	tblrd		*+
  4121  0023DC  CFF5 F03D          	movff	tablat,___flsub@a+1
  4122  0023E0  0009               	tblrd		*+
  4123  0023E2  CFF5 F03E          	movff	tablat,___flsub@a+2
  4124  0023E6  000A               	tblrd		*-
  4125  0023E8  CFF5 F03F          	movff	tablat,___flsub@a+3
  4126  0023EC  C194  F038         	movff	_powf$911,___flsub@b
  4127  0023F0  C195  F039         	movff	_powf$911+1,___flsub@b+1
  4128  0023F4  C196  F03A         	movff	_powf$911+2,___flsub@b+2
  4129  0023F8  C197  F03B         	movff	_powf$911+3,___flsub@b+3
  4130  0023FC  EC0F  F027         	call	___flsub	;wreg free
  4131  002400  C038  F140         	movff	?___flsub,_powf$917
  4132  002404  C039  F141         	movff	?___flsub+1,_powf$917+1
  4133  002408  C03A  F142         	movff	?___flsub+2,_powf$917+2
  4134  00240C  C03B  F143         	movff	?___flsub+3,_powf$917+3
  4135  002410  C120  F03C         	movff	powf@z_h,___flsub@a
  4136  002414  C121  F03D         	movff	powf@z_h+1,___flsub@a+1
  4137  002418  C122  F03E         	movff	powf@z_h+2,___flsub@a+2
  4138  00241C  C123  F03F         	movff	powf@z_h+3,___flsub@a+3
  4139  002420  C140  F038         	movff	_powf$917,___flsub@b
  4140  002424  C141  F039         	movff	_powf$917+1,___flsub@b+1
  4141  002428  C142  F03A         	movff	_powf$917+2,___flsub@b+2
  4142  00242C  C143  F03B         	movff	_powf$917+3,___flsub@b+3
  4143  002430  EC0F  F027         	call	___flsub	;wreg free
  4144  002434  C038  F10C         	movff	?___flsub,_powf$919
  4145  002438  C039  F10D         	movff	?___flsub+1,_powf$919+1
  4146  00243C  C03A  F10E         	movff	?___flsub+2,_powf$919+2
  4147  002440  C03B  F10F         	movff	?___flsub+3,_powf$919+3
  4148  002444  C124  F038         	movff	powf@z_l,___flsub@b
  4149  002448  C125  F039         	movff	powf@z_l+1,___flsub@b+1
  4150  00244C  C126  F03A         	movff	powf@z_l+2,___flsub@b+2
  4151  002450  C127  F03B         	movff	powf@z_l+3,___flsub@b+3
  4152  002454  C10C  F03C         	movff	_powf$919,___flsub@a
  4153  002458  C10D  F03D         	movff	_powf$919+1,___flsub@a+1
  4154  00245C  C10E  F03E         	movff	_powf$919+2,___flsub@a+2
  4155  002460  C10F  F03F         	movff	_powf$919+3,___flsub@a+3
  4156  002464  EC0F  F027         	call	___flsub	;wreg free
  4157  002468  C038  F11C         	movff	?___flsub,powf@t2
  4158  00246C  C039  F11D         	movff	?___flsub+1,powf@t2+1
  4159  002470  C03A  F11E         	movff	?___flsub+2,powf@t2+2
  4160  002474  C03B  F11F         	movff	?___flsub+3,powf@t2+3
  4161  002478                     l3271:
  4162  002478  C08C  F1B8         	movff	powf@y,powf@__xc8_float_word
  4163  00247C  C08D  F1B9         	movff	powf@y+1,powf@__xc8_float_word+1
  4164  002480  C08E  F1BA         	movff	powf@y+2,powf@__xc8_float_word+2
  4165  002484  C08F  F1BB         	movff	powf@y+3,powf@__xc8_float_word+3
  4166  002488  C1B8  F190         	movff	powf@__xc8_float_word,powf@is
  4167  00248C  C1B9  F191         	movff	powf@__xc8_float_word+1,powf@is+1
  4168  002490  C1BA  F192         	movff	powf@__xc8_float_word+2,powf@is+2
  4169  002494  C1BB  F193         	movff	powf@__xc8_float_word+3,powf@is+3
  4170  002498  0E00               	movlw	0
  4171  00249A  0101               	movlb	1	; () banked
  4172  00249C  1590               	andwf	powf@is& (0+255),w,b
  4173  00249E  6FB8               	movwf	powf@__xc8_float_word& (0+255),b
  4174  0024A0  0EF0               	movlw	240
  4175  0024A2  1591               	andwf	(powf@is+1)& (0+255),w,b
  4176  0024A4  6FB9               	movwf	(powf@__xc8_float_word+1)& (0+255),b
  4177  0024A6  0EFF               	movlw	255
  4178  0024A8  1592               	andwf	(powf@is+2)& (0+255),w,b
  4179  0024AA  6FBA               	movwf	(powf@__xc8_float_word+2)& (0+255),b
  4180  0024AC  0EFF               	movlw	255
  4181  0024AE  1593               	andwf	(powf@is+3)& (0+255),w,b
  4182  0024B0  6FBB               	movwf	(powf@__xc8_float_word+3)& (0+255),b
  4183  0024B2                     
  4184                           ; BSR set to: 1
  4185  0024B2  C1B8  F128         	movff	powf@__xc8_float_word,powf@y1
  4186  0024B6  C1B9  F129         	movff	powf@__xc8_float_word+1,powf@y1+1
  4187  0024BA  C1BA  F12A         	movff	powf@__xc8_float_word+2,powf@y1+2
  4188  0024BE  C1BB  F12B         	movff	powf@__xc8_float_word+3,powf@y1+3
  4189  0024C2                     
  4190                           ; BSR set to: 1
  4191  0024C2  C180  F023         	movff	powf@t1,___flmul@a
  4192  0024C6  C181  F024         	movff	powf@t1+1,___flmul@a+1
  4193  0024CA  C182  F025         	movff	powf@t1+2,___flmul@a+2
  4194  0024CE  C183  F026         	movff	powf@t1+3,___flmul@a+3
  4195  0024D2  C128  F03C         	movff	powf@y1,___flsub@a
  4196  0024D6  C129  F03D         	movff	powf@y1+1,___flsub@a+1
  4197  0024DA  C12A  F03E         	movff	powf@y1+2,___flsub@a+2
  4198  0024DE  C12B  F03F         	movff	powf@y1+3,___flsub@a+3
  4199  0024E2  C08C  F038         	movff	powf@y,___flsub@b
  4200  0024E6  C08D  F039         	movff	powf@y+1,___flsub@b+1
  4201  0024EA  C08E  F03A         	movff	powf@y+2,___flsub@b+2
  4202  0024EE  C08F  F03B         	movff	powf@y+3,___flsub@b+3
  4203  0024F2  EC0F  F027         	call	___flsub	;wreg free
  4204  0024F6  C038  F01F         	movff	?___flsub,___flmul@b
  4205  0024FA  C039  F020         	movff	?___flsub+1,___flmul@b+1
  4206  0024FE  C03A  F021         	movff	?___flsub+2,___flmul@b+2
  4207  002502  C03B  F022         	movff	?___flsub+3,___flmul@b+3
  4208  002506  EC33  F020         	call	___flmul	;wreg free
  4209  00250A  C01F  F110         	movff	?___flmul,_powf$920
  4210  00250E  C020  F111         	movff	?___flmul+1,_powf$920+1
  4211  002512  C021  F112         	movff	?___flmul+2,_powf$920+2
  4212  002516  C022  F113         	movff	?___flmul+3,_powf$920+3
  4213  00251A  C110  F00F         	movff	_powf$920,___fladd@b
  4214  00251E  C111  F010         	movff	_powf$920+1,___fladd@b+1
  4215  002522  C112  F011         	movff	_powf$920+2,___fladd@b+2
  4216  002526  C113  F012         	movff	_powf$920+3,___fladd@b+3
  4217  00252A  C11C  F023         	movff	powf@t2,___flmul@a
  4218  00252E  C11D  F024         	movff	powf@t2+1,___flmul@a+1
  4219  002532  C11E  F025         	movff	powf@t2+2,___flmul@a+2
  4220  002536  C11F  F026         	movff	powf@t2+3,___flmul@a+3
  4221  00253A  C08C  F01F         	movff	powf@y,___flmul@b
  4222  00253E  C08D  F020         	movff	powf@y+1,___flmul@b+1
  4223  002542  C08E  F021         	movff	powf@y+2,___flmul@b+2
  4224  002546  C08F  F022         	movff	powf@y+3,___flmul@b+3
  4225  00254A  EC33  F020         	call	___flmul	;wreg free
  4226  00254E  C01F  F013         	movff	?___flmul,___fladd@a
  4227  002552  C020  F014         	movff	?___flmul+1,___fladd@a+1
  4228  002556  C021  F015         	movff	?___flmul+2,___fladd@a+2
  4229  00255A  C022  F016         	movff	?___flmul+3,___fladd@a+3
  4230  00255E  ECA7  F01B         	call	___fladd	;wreg free
  4231  002562  C00F  F164         	movff	?___fladd,powf@p_l
  4232  002566  C010  F165         	movff	?___fladd+1,powf@p_l+1
  4233  00256A  C011  F166         	movff	?___fladd+2,powf@p_l+2
  4234  00256E  C012  F167         	movff	?___fladd+3,powf@p_l+3
  4235  002572  C128  F01F         	movff	powf@y1,___flmul@b
  4236  002576  C129  F020         	movff	powf@y1+1,___flmul@b+1
  4237  00257A  C12A  F021         	movff	powf@y1+2,___flmul@b+2
  4238  00257E  C12B  F022         	movff	powf@y1+3,___flmul@b+3
  4239  002582  C180  F023         	movff	powf@t1,___flmul@a
  4240  002586  C181  F024         	movff	powf@t1+1,___flmul@a+1
  4241  00258A  C182  F025         	movff	powf@t1+2,___flmul@a+2
  4242  00258E  C183  F026         	movff	powf@t1+3,___flmul@a+3
  4243  002592  EC33  F020         	call	___flmul	;wreg free
  4244  002596  C01F  F19C         	movff	?___flmul,powf@p_h
  4245  00259A  C020  F19D         	movff	?___flmul+1,powf@p_h+1
  4246  00259E  C021  F19E         	movff	?___flmul+2,powf@p_h+2
  4247  0025A2  C022  F19F         	movff	?___flmul+3,powf@p_h+3
  4248  0025A6  C164  F00F         	movff	powf@p_l,___fladd@b
  4249  0025AA  C165  F010         	movff	powf@p_l+1,___fladd@b+1
  4250  0025AE  C166  F011         	movff	powf@p_l+2,___fladd@b+2
  4251  0025B2  C167  F012         	movff	powf@p_l+3,___fladd@b+3
  4252  0025B6  C19C  F013         	movff	powf@p_h,___fladd@a
  4253  0025BA  C19D  F014         	movff	powf@p_h+1,___fladd@a+1
  4254  0025BE  C19E  F015         	movff	powf@p_h+2,___fladd@a+2
  4255  0025C2  C19F  F016         	movff	powf@p_h+3,___fladd@a+3
  4256  0025C6  ECA7  F01B         	call	___fladd	;wreg free
  4257  0025CA  C00F  F1B4         	movff	?___fladd,powf@z
  4258  0025CE  C010  F1B5         	movff	?___fladd+1,powf@z+1
  4259  0025D2  C011  F1B6         	movff	?___fladd+2,powf@z+2
  4260  0025D6  C012  F1B7         	movff	?___fladd+3,powf@z+3
  4261  0025DA  C1B4  F1B8         	movff	powf@z,powf@__xc8_float_word
  4262  0025DE  C1B5  F1B9         	movff	powf@z+1,powf@__xc8_float_word+1
  4263  0025E2  C1B6  F1BA         	movff	powf@z+2,powf@__xc8_float_word+2
  4264  0025E6  C1B7  F1BB         	movff	powf@z+3,powf@__xc8_float_word+3
  4265  0025EA  C1B8  F1AC         	movff	powf@__xc8_float_word,powf@j
  4266  0025EE  C1B9  F1AD         	movff	powf@__xc8_float_word+1,powf@j+1
  4267  0025F2  C1BA  F1AE         	movff	powf@__xc8_float_word+2,powf@j+2
  4268  0025F6  C1BB  F1AF         	movff	powf@__xc8_float_word+3,powf@j+3
  4269  0025FA  0101               	movlb	1	; () banked
  4270  0025FC  BFAF               	btfsc	(powf@j+3)& (0+255),7,b
  4271  0025FE  EF0D  F013         	goto	u3481
  4272  002602  05AC               	decf	powf@j& (0+255),w,b
  4273  002604  0E00               	movlw	0
  4274  002606  59AD               	subwfb	(powf@j+1)& (0+255),w,b
  4275  002608  0E00               	movlw	0
  4276  00260A  59AE               	subwfb	(powf@j+2)& (0+255),w,b
  4277  00260C  0E43               	movlw	67
  4278  00260E  59AF               	subwfb	(powf@j+3)& (0+255),w,b
  4279  002610  A0D8               	btfss	status,0,c
  4280  002612  EF0D  F013         	goto	u3481
  4281  002616  EF0F  F013         	goto	u3480
  4282  00261A                     u3481:
  4283  00261A  EF45  F013         	goto	l3299
  4284  00261E                     u3480:
  4285  00261E                     
  4286                           ; BSR set to: 1
  4287  00261E  0ECA               	movlw	202
  4288  002620  6E23               	movwf	___flmul@a^0,c
  4289  002622  0EF2               	movlw	242
  4290  002624  6E24               	movwf	(___flmul@a+1)^0,c
  4291  002626  0E49               	movlw	73
  4292  002628  6E25               	movwf	(___flmul@a+2)^0,c
  4293  00262A  0E71               	movlw	113
  4294  00262C  6E26               	movwf	(___flmul@a+3)^0,c
  4295  00262E  C188  F01F         	movff	powf@sn,___flmul@b
  4296  002632  C189  F020         	movff	powf@sn+1,___flmul@b+1
  4297  002636  C18A  F021         	movff	powf@sn+2,___flmul@b+2
  4298  00263A  C18B  F022         	movff	powf@sn+3,___flmul@b+3
  4299  00263E  EC33  F020         	call	___flmul	;wreg free
  4300  002642  C01F  F1A4         	movff	?___flmul,_powf$908
  4301  002646  C020  F1A5         	movff	?___flmul+1,_powf$908+1
  4302  00264A  C021  F1A6         	movff	?___flmul+2,_powf$908+2
  4303  00264E  C022  F1A7         	movff	?___flmul+3,_powf$908+3
  4304  002652  C1A4  F01F         	movff	_powf$908,___flmul@b
  4305  002656  C1A5  F020         	movff	_powf$908+1,___flmul@b+1
  4306  00265A  C1A6  F021         	movff	_powf$908+2,___flmul@b+2
  4307  00265E  C1A7  F022         	movff	_powf$908+3,___flmul@b+3
  4308  002662  0ECA               	movlw	202
  4309  002664  6E23               	movwf	___flmul@a^0,c
  4310  002666  0EF2               	movlw	242
  4311  002668  6E24               	movwf	(___flmul@a+1)^0,c
  4312  00266A  0E49               	movlw	73
  4313  00266C  6E25               	movwf	(___flmul@a+2)^0,c
  4314  00266E  0E71               	movlw	113
  4315  002670  6E26               	movwf	(___flmul@a+3)^0,c
  4316  002672  EC33  F020         	call	___flmul	;wreg free
  4317  002676  C01F  F088         	movff	?___flmul,?_powf
  4318  00267A  C020  F089         	movff	?___flmul+1,?_powf+1
  4319  00267E  C021  F08A         	movff	?___flmul+2,?_powf+2
  4320  002682  C022  F08B         	movff	?___flmul+3,?_powf+3
  4321  002686  EF46  F019         	goto	l790
  4322  00268A                     l3299:
  4323                           
  4324                           ; BSR set to: 1
  4325  00268A  0E43               	movlw	67
  4326  00268C  19AF               	xorwf	(powf@j+3)& (0+255),w,b
  4327  00268E  11AC               	iorwf	powf@j& (0+255),w,b
  4328  002690  11AD               	iorwf	(powf@j+1)& (0+255),w,b
  4329  002692  11AE               	iorwf	(powf@j+2)& (0+255),w,b
  4330  002694  A4D8               	btfss	status,2,c
  4331  002696  EF4F  F013         	goto	u3491
  4332  00269A  EF51  F013         	goto	u3490
  4333  00269E                     u3491:
  4334  00269E  EFC4  F013         	goto	l3307
  4335  0026A2                     u3490:
  4336  0026A2                     
  4337                           ; BSR set to: 1
  4338  0026A2  C19C  F03C         	movff	powf@p_h,___flsub@a
  4339  0026A6  C19D  F03D         	movff	powf@p_h+1,___flsub@a+1
  4340  0026AA  C19E  F03E         	movff	powf@p_h+2,___flsub@a+2
  4341  0026AE  C19F  F03F         	movff	powf@p_h+3,___flsub@a+3
  4342  0026B2  C1B4  F038         	movff	powf@z,___flsub@b
  4343  0026B6  C1B5  F039         	movff	powf@z+1,___flsub@b+1
  4344  0026BA  C1B6  F03A         	movff	powf@z+2,___flsub@b+2
  4345  0026BE  C1B7  F03B         	movff	powf@z+3,___flsub@b+3
  4346  0026C2  EC0F  F027         	call	___flsub	;wreg free
  4347  0026C6  C038  F040         	movff	?___flsub,___flge@ff1
  4348  0026CA  C039  F041         	movff	?___flsub+1,___flge@ff1+1
  4349  0026CE  C03A  F042         	movff	?___flsub+2,___flge@ff1+2
  4350  0026D2  C03B  F043         	movff	?___flsub+3,___flge@ff1+3
  4351  0026D6  0E3C               	movlw	60
  4352  0026D8  6E13               	movwf	___fladd@a^0,c
  4353  0026DA  0EAA               	movlw	170
  4354  0026DC  6E14               	movwf	(___fladd@a+1)^0,c
  4355  0026DE  0E38               	movlw	56
  4356  0026E0  6E15               	movwf	(___fladd@a+2)^0,c
  4357  0026E2  0E33               	movlw	51
  4358  0026E4  6E16               	movwf	(___fladd@a+3)^0,c
  4359  0026E6  C164  F00F         	movff	powf@p_l,___fladd@b
  4360  0026EA  C165  F010         	movff	powf@p_l+1,___fladd@b+1
  4361  0026EE  C166  F011         	movff	powf@p_l+2,___fladd@b+2
  4362  0026F2  C167  F012         	movff	powf@p_l+3,___fladd@b+3
  4363  0026F6  ECA7  F01B         	call	___fladd	;wreg free
  4364  0026FA  C00F  F044         	movff	?___fladd,___flge@ff2
  4365  0026FE  C010  F045         	movff	?___fladd+1,___flge@ff2+1
  4366  002702  C011  F046         	movff	?___fladd+2,___flge@ff2+2
  4367  002706  C012  F047         	movff	?___fladd+3,___flge@ff2+3
  4368  00270A  EC8D  F026         	call	___flge	;wreg free
  4369  00270E  B0D8               	btfsc	status,0,c
  4370  002710  EF8C  F013         	goto	u3501
  4371  002714  EF8E  F013         	goto	u3500
  4372  002718                     u3501:
  4373  002718  EF8E  F014         	goto	l3323
  4374  00271C                     u3500:
  4375  00271C  0ECA               	movlw	202
  4376  00271E  6E23               	movwf	___flmul@a^0,c
  4377  002720  0EF2               	movlw	242
  4378  002722  6E24               	movwf	(___flmul@a+1)^0,c
  4379  002724  0E49               	movlw	73
  4380  002726  6E25               	movwf	(___flmul@a+2)^0,c
  4381  002728  0E71               	movlw	113
  4382  00272A  6E26               	movwf	(___flmul@a+3)^0,c
  4383  00272C  C188  F01F         	movff	powf@sn,___flmul@b
  4384  002730  C189  F020         	movff	powf@sn+1,___flmul@b+1
  4385  002734  C18A  F021         	movff	powf@sn+2,___flmul@b+2
  4386  002738  C18B  F022         	movff	powf@sn+3,___flmul@b+3
  4387  00273C  EC33  F020         	call	___flmul	;wreg free
  4388  002740  C01F  F1A4         	movff	?___flmul,_powf$908
  4389  002744  C020  F1A5         	movff	?___flmul+1,_powf$908+1
  4390  002748  C021  F1A6         	movff	?___flmul+2,_powf$908+2
  4391  00274C  C022  F1A7         	movff	?___flmul+3,_powf$908+3
  4392  002750  C1A4  F01F         	movff	_powf$908,___flmul@b
  4393  002754  C1A5  F020         	movff	_powf$908+1,___flmul@b+1
  4394  002758  C1A6  F021         	movff	_powf$908+2,___flmul@b+2
  4395  00275C  C1A7  F022         	movff	_powf$908+3,___flmul@b+3
  4396  002760  0ECA               	movlw	202
  4397  002762  6E23               	movwf	___flmul@a^0,c
  4398  002764  0EF2               	movlw	242
  4399  002766  6E24               	movwf	(___flmul@a+1)^0,c
  4400  002768  0E49               	movlw	73
  4401  00276A  6E25               	movwf	(___flmul@a+2)^0,c
  4402  00276C  0E71               	movlw	113
  4403  00276E  6E26               	movwf	(___flmul@a+3)^0,c
  4404  002770  EC33  F020         	call	___flmul	;wreg free
  4405  002774  C01F  F088         	movff	?___flmul,?_powf
  4406  002778  C020  F089         	movff	?___flmul+1,?_powf+1
  4407  00277C  C021  F08A         	movff	?___flmul+2,?_powf+2
  4408  002780  C022  F08B         	movff	?___flmul+3,?_powf+3
  4409  002784  EF46  F019         	goto	l790
  4410  002788                     l3307:
  4411                           
  4412                           ; BSR set to: 1
  4413  002788  0EFF               	movlw	255
  4414  00278A  15AC               	andwf	powf@j& (0+255),w,b
  4415  00278C  0100               	movlb	0	; () banked
  4416  00278E  6F90               	movwf	??_powf& (0+255),b
  4417  002790  0EFF               	movlw	255
  4418  002792  0101               	movlb	1	; () banked
  4419  002794  15AD               	andwf	(powf@j+1)& (0+255),w,b
  4420  002796  0100               	movlb	0	; () banked
  4421  002798  6F91               	movwf	(??_powf+1)& (0+255),b
  4422  00279A  0EFF               	movlw	255
  4423  00279C  0101               	movlb	1	; () banked
  4424  00279E  15AE               	andwf	(powf@j+2)& (0+255),w,b
  4425  0027A0  0100               	movlb	0	; () banked
  4426  0027A2  6F92               	movwf	(??_powf+2)& (0+255),b
  4427  0027A4  0E7F               	movlw	127
  4428  0027A6  0101               	movlb	1	; () banked
  4429  0027A8  15AF               	andwf	(powf@j+3)& (0+255),w,b
  4430  0027AA  0100               	movlb	0	; () banked
  4431  0027AC  6F93               	movwf	(??_powf+3)& (0+255),b
  4432  0027AE  BF93               	btfsc	(??_powf+3)& (0+255),7,b
  4433  0027B0  EFE6  F013         	goto	u3511
  4434  0027B4  0590               	decf	??_powf& (0+255),w,b
  4435  0027B6  0E00               	movlw	0
  4436  0027B8  5991               	subwfb	(??_powf+1)& (0+255),w,b
  4437  0027BA  0E16               	movlw	22
  4438  0027BC  5992               	subwfb	(??_powf+2)& (0+255),w,b
  4439  0027BE  0E43               	movlw	67
  4440  0027C0  5993               	subwfb	(??_powf+3)& (0+255),w,b
  4441  0027C2  A0D8               	btfss	status,0,c
  4442  0027C4  EFE6  F013         	goto	u3511
  4443  0027C8  EFE8  F013         	goto	u3510
  4444  0027CC                     u3511:
  4445  0027CC  EF1E  F014         	goto	l3315
  4446  0027D0                     u3510:
  4447  0027D0                     
  4448                           ; BSR set to: 0
  4449  0027D0  0E60               	movlw	96
  4450  0027D2  6E23               	movwf	___flmul@a^0,c
  4451  0027D4  0E42               	movlw	66
  4452  0027D6  6E24               	movwf	(___flmul@a+1)^0,c
  4453  0027D8  0EA2               	movlw	162
  4454  0027DA  6E25               	movwf	(___flmul@a+2)^0,c
  4455  0027DC  0E0D               	movlw	13
  4456  0027DE  6E26               	movwf	(___flmul@a+3)^0,c
  4457  0027E0  C188  F01F         	movff	powf@sn,___flmul@b
  4458  0027E4  C189  F020         	movff	powf@sn+1,___flmul@b+1
  4459  0027E8  C18A  F021         	movff	powf@sn+2,___flmul@b+2
  4460  0027EC  C18B  F022         	movff	powf@sn+3,___flmul@b+3
  4461  0027F0  EC33  F020         	call	___flmul	;wreg free
  4462  0027F4  C01F  F1A4         	movff	?___flmul,_powf$908
  4463  0027F8  C020  F1A5         	movff	?___flmul+1,_powf$908+1
  4464  0027FC  C021  F1A6         	movff	?___flmul+2,_powf$908+2
  4465  002800  C022  F1A7         	movff	?___flmul+3,_powf$908+3
  4466  002804  C1A4  F01F         	movff	_powf$908,___flmul@b
  4467  002808  C1A5  F020         	movff	_powf$908+1,___flmul@b+1
  4468  00280C  C1A6  F021         	movff	_powf$908+2,___flmul@b+2
  4469  002810  C1A7  F022         	movff	_powf$908+3,___flmul@b+3
  4470  002814  0E60               	movlw	96
  4471  002816  6E23               	movwf	___flmul@a^0,c
  4472  002818  0E42               	movlw	66
  4473  00281A  6E24               	movwf	(___flmul@a+1)^0,c
  4474  00281C  0EA2               	movlw	162
  4475  00281E  6E25               	movwf	(___flmul@a+2)^0,c
  4476  002820  0E0D               	movlw	13
  4477  002822  6E26               	movwf	(___flmul@a+3)^0,c
  4478  002824  EC33  F020         	call	___flmul	;wreg free
  4479  002828  C01F  F088         	movff	?___flmul,?_powf
  4480  00282C  C020  F089         	movff	?___flmul+1,?_powf+1
  4481  002830  C021  F08A         	movff	?___flmul+2,?_powf+2
  4482  002834  C022  F08B         	movff	?___flmul+3,?_powf+3
  4483  002838  EF46  F019         	goto	l790
  4484  00283C                     l3315:
  4485                           
  4486                           ; BSR set to: 0
  4487  00283C  0E16               	movlw	22
  4488  00283E  0101               	movlb	1	; () banked
  4489  002840  19AE               	xorwf	(powf@j+2)& (0+255),w,b
  4490  002842  E109               	bnz	u3521
  4491  002844  0EC3               	movlw	195
  4492  002846  19AF               	xorwf	(powf@j+3)& (0+255),w,b
  4493  002848  11AC               	iorwf	powf@j& (0+255),w,b
  4494  00284A  11AD               	iorwf	(powf@j+1)& (0+255),w,b
  4495  00284C  A4D8               	btfss	status,2,c
  4496  00284E  EF2B  F014         	goto	u3521
  4497  002852  EF2D  F014         	goto	u3520
  4498  002856                     u3521:
  4499  002856  EF8E  F014         	goto	l3323
  4500  00285A                     u3520:
  4501  00285A                     
  4502                           ; BSR set to: 1
  4503  00285A  C19C  F03C         	movff	powf@p_h,___flsub@a
  4504  00285E  C19D  F03D         	movff	powf@p_h+1,___flsub@a+1
  4505  002862  C19E  F03E         	movff	powf@p_h+2,___flsub@a+2
  4506  002866  C19F  F03F         	movff	powf@p_h+3,___flsub@a+3
  4507  00286A  C1B4  F038         	movff	powf@z,___flsub@b
  4508  00286E  C1B5  F039         	movff	powf@z+1,___flsub@b+1
  4509  002872  C1B6  F03A         	movff	powf@z+2,___flsub@b+2
  4510  002876  C1B7  F03B         	movff	powf@z+3,___flsub@b+3
  4511  00287A  EC0F  F027         	call	___flsub	;wreg free
  4512  00287E  C038  F040         	movff	?___flsub,___flge@ff1
  4513  002882  C039  F041         	movff	?___flsub+1,___flge@ff1+1
  4514  002886  C03A  F042         	movff	?___flsub+2,___flge@ff1+2
  4515  00288A  C03B  F043         	movff	?___flsub+3,___flge@ff1+3
  4516  00288E  C164  F044         	movff	powf@p_l,___flge@ff2
  4517  002892  C165  F045         	movff	powf@p_l+1,___flge@ff2+1
  4518  002896  C166  F046         	movff	powf@p_l+2,___flge@ff2+2
  4519  00289A  C167  F047         	movff	powf@p_l+3,___flge@ff2+3
  4520  00289E  EC8D  F026         	call	___flge	;wreg free
  4521  0028A2  A0D8               	btfss	status,0,c
  4522  0028A4  EF56  F014         	goto	u3531
  4523  0028A8  EF58  F014         	goto	u3530
  4524  0028AC                     u3531:
  4525  0028AC  EF8E  F014         	goto	l3323
  4526  0028B0                     u3530:
  4527  0028B0  0E60               	movlw	96
  4528  0028B2  6E23               	movwf	___flmul@a^0,c
  4529  0028B4  0E42               	movlw	66
  4530  0028B6  6E24               	movwf	(___flmul@a+1)^0,c
  4531  0028B8  0EA2               	movlw	162
  4532  0028BA  6E25               	movwf	(___flmul@a+2)^0,c
  4533  0028BC  0E0D               	movlw	13
  4534  0028BE  6E26               	movwf	(___flmul@a+3)^0,c
  4535  0028C0  C188  F01F         	movff	powf@sn,___flmul@b
  4536  0028C4  C189  F020         	movff	powf@sn+1,___flmul@b+1
  4537  0028C8  C18A  F021         	movff	powf@sn+2,___flmul@b+2
  4538  0028CC  C18B  F022         	movff	powf@sn+3,___flmul@b+3
  4539  0028D0  EC33  F020         	call	___flmul	;wreg free
  4540  0028D4  C01F  F1A4         	movff	?___flmul,_powf$908
  4541  0028D8  C020  F1A5         	movff	?___flmul+1,_powf$908+1
  4542  0028DC  C021  F1A6         	movff	?___flmul+2,_powf$908+2
  4543  0028E0  C022  F1A7         	movff	?___flmul+3,_powf$908+3
  4544  0028E4  C1A4  F01F         	movff	_powf$908,___flmul@b
  4545  0028E8  C1A5  F020         	movff	_powf$908+1,___flmul@b+1
  4546  0028EC  C1A6  F021         	movff	_powf$908+2,___flmul@b+2
  4547  0028F0  C1A7  F022         	movff	_powf$908+3,___flmul@b+3
  4548  0028F4  0E60               	movlw	96
  4549  0028F6  6E23               	movwf	___flmul@a^0,c
  4550  0028F8  0E42               	movlw	66
  4551  0028FA  6E24               	movwf	(___flmul@a+1)^0,c
  4552  0028FC  0EA2               	movlw	162
  4553  0028FE  6E25               	movwf	(___flmul@a+2)^0,c
  4554  002900  0E0D               	movlw	13
  4555  002902  6E26               	movwf	(___flmul@a+3)^0,c
  4556  002904  EC33  F020         	call	___flmul	;wreg free
  4557  002908  C01F  F088         	movff	?___flmul,?_powf
  4558  00290C  C020  F089         	movff	?___flmul+1,?_powf+1
  4559  002910  C021  F08A         	movff	?___flmul+2,?_powf+2
  4560  002914  C022  F08B         	movff	?___flmul+3,?_powf+3
  4561  002918  EF46  F019         	goto	l790
  4562  00291C                     l3323:
  4563  00291C  0EFF               	movlw	255
  4564  00291E  0101               	movlb	1	; () banked
  4565  002920  15AC               	andwf	powf@j& (0+255),w,b
  4566  002922  6F2C               	movwf	powf@i& (0+255),b
  4567  002924  0EFF               	movlw	255
  4568  002926  15AD               	andwf	(powf@j+1)& (0+255),w,b
  4569  002928  6F2D               	movwf	(powf@i+1)& (0+255),b
  4570  00292A  0EFF               	movlw	255
  4571  00292C  15AE               	andwf	(powf@j+2)& (0+255),w,b
  4572  00292E  6F2E               	movwf	(powf@i+2)& (0+255),b
  4573  002930  0E7F               	movlw	127
  4574  002932  15AF               	andwf	(powf@j+3)& (0+255),w,b
  4575  002934  6F2F               	movwf	(powf@i+3)& (0+255),b
  4576  002936  0E17               	movlw	23
  4577  002938  0100               	movlb	0	; () banked
  4578  00293A  6F90               	movwf	??_powf& (0+255),b
  4579  00293C  C12C  F091         	movff	powf@i,??_powf+1
  4580  002940  C12D  F092         	movff	powf@i+1,??_powf+2
  4581  002944  C12E  F093         	movff	powf@i+2,??_powf+3
  4582  002948  C12F  F094         	movff	powf@i+3,??_powf+4
  4583  00294C                     u3545:
  4584  00294C  6790               	tstfsz	??_powf& (0+255),b
  4585  00294E  EFAB  F014         	goto	u3546
  4586  002952  EFB3  F014         	goto	u3547
  4587  002956                     u3546:
  4588  002956  3594               	rlcf	(??_powf+4)& (0+255),w,b
  4589  002958  3394               	rrcf	(??_powf+4)& (0+255),f,b
  4590  00295A  3393               	rrcf	(??_powf+3)& (0+255),f,b
  4591  00295C  3392               	rrcf	(??_powf+2)& (0+255),f,b
  4592  00295E  3391               	rrcf	(??_powf+1)& (0+255),f,b
  4593  002960  2F90               	decfsz	??_powf& (0+255),f,b
  4594  002962  EFA6  F014         	goto	u3545
  4595  002966                     u3547:
  4596  002966  0E81               	movlw	129
  4597  002968  0100               	movlb	0	; () banked
  4598  00296A  2591               	addwf	(??_powf+1)& (0+255),w,b
  4599  00296C  0101               	movlb	1	; () banked
  4600  00296E  6FA0               	movwf	powf@k& (0+255),b
  4601  002970  0EFF               	movlw	255
  4602  002972  0100               	movlb	0	; () banked
  4603  002974  2192               	addwfc	(??_powf+2)& (0+255),w,b
  4604  002976  0101               	movlb	1	; () banked
  4605  002978  6FA1               	movwf	(powf@k+1)& (0+255),b
  4606  00297A  0EFF               	movlw	255
  4607  00297C  0100               	movlb	0	; () banked
  4608  00297E  2193               	addwfc	(??_powf+3)& (0+255),w,b
  4609  002980  0101               	movlb	1	; () banked
  4610  002982  6FA2               	movwf	(powf@k+2)& (0+255),b
  4611  002984  0EFF               	movlw	255
  4612  002986  0100               	movlb	0	; () banked
  4613  002988  2194               	addwfc	(??_powf+4)& (0+255),w,b
  4614  00298A  0101               	movlb	1	; () banked
  4615  00298C  6FA3               	movwf	(powf@k+3)& (0+255),b
  4616  00298E                     
  4617                           ; BSR set to: 1
  4618  00298E  0E00               	movlw	0
  4619  002990  6F7C               	movwf	powf@n& (0+255),b
  4620  002992  0E00               	movlw	0
  4621  002994  6F7D               	movwf	(powf@n+1)& (0+255),b
  4622  002996  0E00               	movlw	0
  4623  002998  6F7E               	movwf	(powf@n+2)& (0+255),b
  4624  00299A  0E00               	movlw	0
  4625  00299C  6F7F               	movwf	(powf@n+3)& (0+255),b
  4626  00299E                     
  4627                           ; BSR set to: 1
  4628  00299E  BF2F               	btfsc	(powf@i+3)& (0+255),7,b
  4629  0029A0  EFDE  F014         	goto	u3551
  4630  0029A4  052C               	decf	powf@i& (0+255),w,b
  4631  0029A6  0E00               	movlw	0
  4632  0029A8  592D               	subwfb	(powf@i+1)& (0+255),w,b
  4633  0029AA  0E00               	movlw	0
  4634  0029AC  592E               	subwfb	(powf@i+2)& (0+255),w,b
  4635  0029AE  0E3F               	movlw	63
  4636  0029B0  592F               	subwfb	(powf@i+3)& (0+255),w,b
  4637  0029B2  A0D8               	btfss	status,0,c
  4638  0029B4  EFDE  F014         	goto	u3551
  4639  0029B8  EFE0  F014         	goto	u3550
  4640  0029BC                     u3551:
  4641  0029BC  EFE4  F015         	goto	l3337
  4642  0029C0                     u3550:
  4643  0029C0                     
  4644                           ; BSR set to: 1
  4645  0029C0  C1A0  F090         	movff	powf@k,??_powf
  4646  0029C4  0E01               	movlw	1
  4647  0029C6  0100               	movlb	0	; () banked
  4648  0029C8  2790               	addwf	??_powf& (0+255),f,b
  4649  0029CA  0E00               	movlw	0
  4650  0029CC  6F91               	movwf	(??_powf+1)& (0+255),b
  4651  0029CE  0E00               	movlw	0
  4652  0029D0  6F92               	movwf	(??_powf+2)& (0+255),b
  4653  0029D2  0E80               	movlw	128
  4654  0029D4  6F93               	movwf	(??_powf+3)& (0+255),b
  4655  0029D6  0E00               	movlw	0
  4656  0029D8  6F94               	movwf	(??_powf+4)& (0+255),b
  4657  0029DA                     u3565:
  4658  0029DA  6790               	tstfsz	??_powf& (0+255),b
  4659  0029DC  EFF2  F014         	goto	u3566
  4660  0029E0  EFFA  F014         	goto	u3567
  4661  0029E4                     u3566:
  4662  0029E4  3594               	rlcf	(??_powf+4)& (0+255),w,b
  4663  0029E6  3394               	rrcf	(??_powf+4)& (0+255),f,b
  4664  0029E8  3393               	rrcf	(??_powf+3)& (0+255),f,b
  4665  0029EA  3392               	rrcf	(??_powf+2)& (0+255),f,b
  4666  0029EC  3391               	rrcf	(??_powf+1)& (0+255),f,b
  4667  0029EE  2F90               	decfsz	??_powf& (0+255),f,b
  4668  0029F0  EFED  F014         	goto	u3565
  4669  0029F4                     u3567:
  4670  0029F4  0101               	movlb	1	; () banked
  4671  0029F6  51AC               	movf	powf@j& (0+255),w,b
  4672  0029F8  0100               	movlb	0	; () banked
  4673  0029FA  2591               	addwf	(??_powf+1)& (0+255),w,b
  4674  0029FC  0101               	movlb	1	; () banked
  4675  0029FE  6F7C               	movwf	powf@n& (0+255),b
  4676  002A00  51AD               	movf	(powf@j+1)& (0+255),w,b
  4677  002A02  0100               	movlb	0	; () banked
  4678  002A04  2192               	addwfc	(??_powf+2)& (0+255),w,b
  4679  002A06  0101               	movlb	1	; () banked
  4680  002A08  6F7D               	movwf	(powf@n+1)& (0+255),b
  4681  002A0A  51AE               	movf	(powf@j+2)& (0+255),w,b
  4682  002A0C  0100               	movlb	0	; () banked
  4683  002A0E  2193               	addwfc	(??_powf+3)& (0+255),w,b
  4684  002A10  0101               	movlb	1	; () banked
  4685  002A12  6F7E               	movwf	(powf@n+2)& (0+255),b
  4686  002A14  51AF               	movf	(powf@j+3)& (0+255),w,b
  4687  002A16  0100               	movlb	0	; () banked
  4688  002A18  2194               	addwfc	(??_powf+4)& (0+255),w,b
  4689  002A1A  0101               	movlb	1	; () banked
  4690  002A1C  6F7F               	movwf	(powf@n+3)& (0+255),b
  4691  002A1E  0E81               	movlw	129
  4692  002A20  0100               	movlb	0	; () banked
  4693  002A22  6F90               	movwf	??_powf& (0+255),b
  4694  002A24  0EFF               	movlw	255
  4695  002A26  6F91               	movwf	(??_powf+1)& (0+255),b
  4696  002A28  0EFF               	movlw	255
  4697  002A2A  6F92               	movwf	(??_powf+2)& (0+255),b
  4698  002A2C  0EFF               	movlw	255
  4699  002A2E  6F93               	movwf	(??_powf+3)& (0+255),b
  4700  002A30  0E17               	movlw	23
  4701  002A32  6F94               	movwf	(??_powf+4)& (0+255),b
  4702  002A34  C17C  F095         	movff	powf@n,??_powf+5
  4703  002A38  C17D  F096         	movff	powf@n+1,??_powf+6
  4704  002A3C  C17E  F097         	movff	powf@n+2,??_powf+7
  4705  002A40  C17F  F098         	movff	powf@n+3,??_powf+8
  4706  002A44                     u3575:
  4707  002A44  6794               	tstfsz	(??_powf+4)& (0+255),b
  4708  002A46  EF27  F015         	goto	u3576
  4709  002A4A  EF2F  F015         	goto	u3577
  4710  002A4E                     u3576:
  4711  002A4E  3598               	rlcf	(??_powf+8)& (0+255),w,b
  4712  002A50  3398               	rrcf	(??_powf+8)& (0+255),f,b
  4713  002A52  3397               	rrcf	(??_powf+7)& (0+255),f,b
  4714  002A54  3396               	rrcf	(??_powf+6)& (0+255),f,b
  4715  002A56  3395               	rrcf	(??_powf+5)& (0+255),f,b
  4716  002A58  2F94               	decfsz	(??_powf+4)& (0+255),f,b
  4717  002A5A  EF22  F015         	goto	u3575
  4718  002A5E                     u3577:
  4719  002A5E  0100               	movlb	0	; () banked
  4720  002A60  5195               	movf	(??_powf+5)& (0+255),w,b
  4721  002A62  2590               	addwf	??_powf& (0+255),w,b
  4722  002A64  0101               	movlb	1	; () banked
  4723  002A66  6FA0               	movwf	powf@k& (0+255),b
  4724  002A68  0E00               	movlw	0
  4725  002A6A  0100               	movlb	0	; () banked
  4726  002A6C  2191               	addwfc	(??_powf+1)& (0+255),w,b
  4727  002A6E  0101               	movlb	1	; () banked
  4728  002A70  6FA1               	movwf	(powf@k+1)& (0+255),b
  4729  002A72  0E00               	movlw	0
  4730  002A74  0100               	movlb	0	; () banked
  4731  002A76  2192               	addwfc	(??_powf+2)& (0+255),w,b
  4732  002A78  0101               	movlb	1	; () banked
  4733  002A7A  6FA2               	movwf	(powf@k+2)& (0+255),b
  4734  002A7C  0E00               	movlw	0
  4735  002A7E  0100               	movlb	0	; () banked
  4736  002A80  2193               	addwfc	(??_powf+3)& (0+255),w,b
  4737  002A82  0101               	movlb	1	; () banked
  4738  002A84  6FA3               	movwf	(powf@k+3)& (0+255),b
  4739  002A86                     
  4740                           ; BSR set to: 1
  4741  002A86  C1A0  F090         	movff	powf@k,??_powf
  4742  002A8A  0EFF               	movlw	255
  4743  002A8C  0100               	movlb	0	; () banked
  4744  002A8E  6F91               	movwf	(??_powf+1)& (0+255),b
  4745  002A90  0EFF               	movlw	255
  4746  002A92  6F92               	movwf	(??_powf+2)& (0+255),b
  4747  002A94  0E7F               	movlw	127
  4748  002A96  6F93               	movwf	(??_powf+3)& (0+255),b
  4749  002A98  0E00               	movlw	0
  4750  002A9A  6F94               	movwf	(??_powf+4)& (0+255),b
  4751  002A9C                     u3585:
  4752  002A9C  6790               	tstfsz	??_powf& (0+255),b
  4753  002A9E  EF53  F015         	goto	u3586
  4754  002AA2  EF5B  F015         	goto	u3587
  4755  002AA6                     u3586:
  4756  002AA6  3594               	rlcf	(??_powf+4)& (0+255),w,b
  4757  002AA8  3394               	rrcf	(??_powf+4)& (0+255),f,b
  4758  002AAA  3393               	rrcf	(??_powf+3)& (0+255),f,b
  4759  002AAC  3392               	rrcf	(??_powf+2)& (0+255),f,b
  4760  002AAE  3391               	rrcf	(??_powf+1)& (0+255),f,b
  4761  002AB0  2F90               	decfsz	??_powf& (0+255),f,b
  4762  002AB2  EF4E  F015         	goto	u3585
  4763  002AB6                     u3587:
  4764  002AB6  0100               	movlb	0	; () banked
  4765  002AB8  1D91               	comf	(??_powf+1)& (0+255),w,b
  4766  002ABA  6F95               	movwf	(??_powf+5)& (0+255),b
  4767  002ABC  1D92               	comf	(??_powf+2)& (0+255),w,b
  4768  002ABE  6F96               	movwf	(??_powf+6)& (0+255),b
  4769  002AC0  1D93               	comf	(??_powf+3)& (0+255),w,b
  4770  002AC2  6F97               	movwf	(??_powf+7)& (0+255),b
  4771  002AC4  1D94               	comf	(??_powf+4)& (0+255),w,b
  4772  002AC6  6F98               	movwf	(??_powf+8)& (0+255),b
  4773  002AC8  0101               	movlb	1	; () banked
  4774  002ACA  517C               	movf	powf@n& (0+255),w,b
  4775  002ACC  0100               	movlb	0	; () banked
  4776  002ACE  1595               	andwf	(??_powf+5)& (0+255),w,b
  4777  002AD0  0101               	movlb	1	; () banked
  4778  002AD2  6FB8               	movwf	powf@__xc8_float_word& (0+255),b
  4779  002AD4  517D               	movf	(powf@n+1)& (0+255),w,b
  4780  002AD6  0100               	movlb	0	; () banked
  4781  002AD8  1596               	andwf	(??_powf+6)& (0+255),w,b
  4782  002ADA  0101               	movlb	1	; () banked
  4783  002ADC  6FB9               	movwf	(powf@__xc8_float_word+1)& (0+255),b
  4784  002ADE  517E               	movf	(powf@n+2)& (0+255),w,b
  4785  002AE0  0100               	movlb	0	; () banked
  4786  002AE2  1597               	andwf	(??_powf+7)& (0+255),w,b
  4787  002AE4  0101               	movlb	1	; () banked
  4788  002AE6  6FBA               	movwf	(powf@__xc8_float_word+2)& (0+255),b
  4789  002AE8  517F               	movf	(powf@n+3)& (0+255),w,b
  4790  002AEA  0100               	movlb	0	; () banked
  4791  002AEC  1598               	andwf	(??_powf+8)& (0+255),w,b
  4792  002AEE  0101               	movlb	1	; () banked
  4793  002AF0  6FBB               	movwf	(powf@__xc8_float_word+3)& (0+255),b
  4794  002AF2                     
  4795                           ; BSR set to: 1
  4796  002AF2  C1B8  F1B0         	movff	powf@__xc8_float_word,powf@t
  4797  002AF6  C1B9  F1B1         	movff	powf@__xc8_float_word+1,powf@t+1
  4798  002AFA  C1BA  F1B2         	movff	powf@__xc8_float_word+2,powf@t+2
  4799  002AFE  C1BB  F1B3         	movff	powf@__xc8_float_word+3,powf@t+3
  4800  002B02                     
  4801                           ; BSR set to: 1
  4802  002B02  51A0               	movf	powf@k& (0+255),w,b
  4803  002B04  0817               	sublw	23
  4804  002B06  0100               	movlb	0	; () banked
  4805  002B08  6F90               	movwf	??_powf& (0+255),b
  4806  002B0A  0EFF               	movlw	255
  4807  002B0C  0101               	movlb	1	; () banked
  4808  002B0E  157C               	andwf	powf@n& (0+255),w,b
  4809  002B10  0100               	movlb	0	; () banked
  4810  002B12  6F91               	movwf	(??_powf+1)& (0+255),b
  4811  002B14  0EFF               	movlw	255
  4812  002B16  0101               	movlb	1	; () banked
  4813  002B18  157D               	andwf	(powf@n+1)& (0+255),w,b
  4814  002B1A  0100               	movlb	0	; () banked
  4815  002B1C  6F92               	movwf	(??_powf+2)& (0+255),b
  4816  002B1E  0E7F               	movlw	127
  4817  002B20  0101               	movlb	1	; () banked
  4818  002B22  157E               	andwf	(powf@n+2)& (0+255),w,b
  4819  002B24  0100               	movlb	0	; () banked
  4820  002B26  6F93               	movwf	(??_powf+3)& (0+255),b
  4821  002B28  0E00               	movlw	0
  4822  002B2A  0101               	movlb	1	; () banked
  4823  002B2C  157F               	andwf	(powf@n+3)& (0+255),w,b
  4824  002B2E  0100               	movlb	0	; () banked
  4825  002B30  6F94               	movwf	(??_powf+4)& (0+255),b
  4826  002B32  0E00               	movlw	0
  4827  002B34  1191               	iorwf	(??_powf+1)& (0+255),w,b
  4828  002B36  6F95               	movwf	(??_powf+5)& (0+255),b
  4829  002B38  0E00               	movlw	0
  4830  002B3A  1192               	iorwf	(??_powf+2)& (0+255),w,b
  4831  002B3C  6F96               	movwf	(??_powf+6)& (0+255),b
  4832  002B3E  0E80               	movlw	128
  4833  002B40  1193               	iorwf	(??_powf+3)& (0+255),w,b
  4834  002B42  6F97               	movwf	(??_powf+7)& (0+255),b
  4835  002B44  0E00               	movlw	0
  4836  002B46  1194               	iorwf	(??_powf+4)& (0+255),w,b
  4837  002B48  6F98               	movwf	(??_powf+8)& (0+255),b
  4838  002B4A                     u3595:
  4839  002B4A  6790               	tstfsz	??_powf& (0+255),b
  4840  002B4C  EFAA  F015         	goto	u3596
  4841  002B50  EFB2  F015         	goto	u3597
  4842  002B54                     u3596:
  4843  002B54  3598               	rlcf	(??_powf+8)& (0+255),w,b
  4844  002B56  3398               	rrcf	(??_powf+8)& (0+255),f,b
  4845  002B58  3397               	rrcf	(??_powf+7)& (0+255),f,b
  4846  002B5A  3396               	rrcf	(??_powf+6)& (0+255),f,b
  4847  002B5C  3395               	rrcf	(??_powf+5)& (0+255),f,b
  4848  002B5E  2F90               	decfsz	??_powf& (0+255),f,b
  4849  002B60  EFA5  F015         	goto	u3595
  4850  002B64                     u3597:
  4851  002B64  C095  F17C         	movff	??_powf+5,powf@n
  4852  002B68  C096  F17D         	movff	??_powf+6,powf@n+1
  4853  002B6C  C097  F17E         	movff	??_powf+7,powf@n+2
  4854  002B70  C098  F17F         	movff	??_powf+8,powf@n+3
  4855  002B74  0101               	movlb	1	; () banked
  4856  002B76  BFAF               	btfsc	(powf@j+3)& (0+255),7,b
  4857  002B78  EFC2  F015         	goto	u3600
  4858  002B7C  EFC0  F015         	goto	u3601
  4859  002B80                     u3601:
  4860  002B80  EFCA  F015         	goto	l3335
  4861  002B84                     u3600:
  4862  002B84                     
  4863                           ; BSR set to: 1
  4864  002B84  1F7F               	comf	(powf@n+3)& (0+255),f,b
  4865  002B86  1F7E               	comf	(powf@n+2)& (0+255),f,b
  4866  002B88  1F7D               	comf	(powf@n+1)& (0+255),f,b
  4867  002B8A  6D7C               	negf	powf@n& (0+255),b
  4868  002B8C  0E00               	movlw	0
  4869  002B8E  237D               	addwfc	(powf@n+1)& (0+255),f,b
  4870  002B90  237E               	addwfc	(powf@n+2)& (0+255),f,b
  4871  002B92  237F               	addwfc	(powf@n+3)& (0+255),f,b
  4872  002B94                     l3335:
  4873                           
  4874                           ; BSR set to: 1
  4875  002B94  C19C  F038         	movff	powf@p_h,___flsub@b
  4876  002B98  C19D  F039         	movff	powf@p_h+1,___flsub@b+1
  4877  002B9C  C19E  F03A         	movff	powf@p_h+2,___flsub@b+2
  4878  002BA0  C19F  F03B         	movff	powf@p_h+3,___flsub@b+3
  4879  002BA4  C1B0  F03C         	movff	powf@t,___flsub@a
  4880  002BA8  C1B1  F03D         	movff	powf@t+1,___flsub@a+1
  4881  002BAC  C1B2  F03E         	movff	powf@t+2,___flsub@a+2
  4882  002BB0  C1B3  F03F         	movff	powf@t+3,___flsub@a+3
  4883  002BB4  EC0F  F027         	call	___flsub	;wreg free
  4884  002BB8  C038  F19C         	movff	?___flsub,powf@p_h
  4885  002BBC  C039  F19D         	movff	?___flsub+1,powf@p_h+1
  4886  002BC0  C03A  F19E         	movff	?___flsub+2,powf@p_h+2
  4887  002BC4  C03B  F19F         	movff	?___flsub+3,powf@p_h+3
  4888  002BC8                     l3337:
  4889  002BC8  C164  F00F         	movff	powf@p_l,___fladd@b
  4890  002BCC  C165  F010         	movff	powf@p_l+1,___fladd@b+1
  4891  002BD0  C166  F011         	movff	powf@p_l+2,___fladd@b+2
  4892  002BD4  C167  F012         	movff	powf@p_l+3,___fladd@b+3
  4893  002BD8  C19C  F013         	movff	powf@p_h,___fladd@a
  4894  002BDC  C19D  F014         	movff	powf@p_h+1,___fladd@a+1
  4895  002BE0  C19E  F015         	movff	powf@p_h+2,___fladd@a+2
  4896  002BE4  C19F  F016         	movff	powf@p_h+3,___fladd@a+3
  4897  002BE8  ECA7  F01B         	call	___fladd	;wreg free
  4898  002BEC  C00F  F1B0         	movff	?___fladd,powf@t
  4899  002BF0  C010  F1B1         	movff	?___fladd+1,powf@t+1
  4900  002BF4  C011  F1B2         	movff	?___fladd+2,powf@t+2
  4901  002BF8  C012  F1B3         	movff	?___fladd+3,powf@t+3
  4902  002BFC  C1B0  F1B8         	movff	powf@t,powf@__xc8_float_word
  4903  002C00  C1B1  F1B9         	movff	powf@t+1,powf@__xc8_float_word+1
  4904  002C04  C1B2  F1BA         	movff	powf@t+2,powf@__xc8_float_word+2
  4905  002C08  C1B3  F1BB         	movff	powf@t+3,powf@__xc8_float_word+3
  4906  002C0C  C1B8  F190         	movff	powf@__xc8_float_word,powf@is
  4907  002C10  C1B9  F191         	movff	powf@__xc8_float_word+1,powf@is+1
  4908  002C14  C1BA  F192         	movff	powf@__xc8_float_word+2,powf@is+2
  4909  002C18  C1BB  F193         	movff	powf@__xc8_float_word+3,powf@is+3
  4910  002C1C  0E00               	movlw	0
  4911  002C1E  0101               	movlb	1	; () banked
  4912  002C20  1590               	andwf	powf@is& (0+255),w,b
  4913  002C22  6FB8               	movwf	powf@__xc8_float_word& (0+255),b
  4914  002C24  0E80               	movlw	128
  4915  002C26  1591               	andwf	(powf@is+1)& (0+255),w,b
  4916  002C28  6FB9               	movwf	(powf@__xc8_float_word+1)& (0+255),b
  4917  002C2A  0EFF               	movlw	255
  4918  002C2C  1592               	andwf	(powf@is+2)& (0+255),w,b
  4919  002C2E  6FBA               	movwf	(powf@__xc8_float_word+2)& (0+255),b
  4920  002C30  0EFF               	movlw	255
  4921  002C32  1593               	andwf	(powf@is+3)& (0+255),w,b
  4922  002C34  6FBB               	movwf	(powf@__xc8_float_word+3)& (0+255),b
  4923  002C36                     
  4924                           ; BSR set to: 1
  4925  002C36  C1B8  F1B0         	movff	powf@__xc8_float_word,powf@t
  4926  002C3A  C1B9  F1B1         	movff	powf@__xc8_float_word+1,powf@t+1
  4927  002C3E  C1BA  F1B2         	movff	powf@__xc8_float_word+2,powf@t+2
  4928  002C42  C1BB  F1B3         	movff	powf@__xc8_float_word+3,powf@t+3
  4929  002C46                     
  4930                           ; BSR set to: 1
  4931  002C46  C1B0  F01F         	movff	powf@t,___flmul@b
  4932  002C4A  C1B1  F020         	movff	powf@t+1,___flmul@b+1
  4933  002C4E  C1B2  F021         	movff	powf@t+2,___flmul@b+2
  4934  002C52  C1B3  F022         	movff	powf@t+3,___flmul@b+3
  4935  002C56  0E00               	movlw	0
  4936  002C58  6E23               	movwf	___flmul@a^0,c
  4937  002C5A  0E72               	movlw	114
  4938  002C5C  6E24               	movwf	(___flmul@a+1)^0,c
  4939  002C5E  0E31               	movlw	49
  4940  002C60  6E25               	movwf	(___flmul@a+2)^0,c
  4941  002C62  0E3F               	movlw	63
  4942  002C64  6E26               	movwf	(___flmul@a+3)^0,c
  4943  002C66  EC33  F020         	call	___flmul	;wreg free
  4944  002C6A  C01F  F174         	movff	?___flmul,powf@u
  4945  002C6E  C020  F175         	movff	?___flmul+1,powf@u+1
  4946  002C72  C021  F176         	movff	?___flmul+2,powf@u+2
  4947  002C76  C022  F177         	movff	?___flmul+3,powf@u+3
  4948  002C7A  C19C  F03C         	movff	powf@p_h,___flsub@a
  4949  002C7E  C19D  F03D         	movff	powf@p_h+1,___flsub@a+1
  4950  002C82  C19E  F03E         	movff	powf@p_h+2,___flsub@a+2
  4951  002C86  C19F  F03F         	movff	powf@p_h+3,___flsub@a+3
  4952  002C8A  C1B0  F038         	movff	powf@t,___flsub@b
  4953  002C8E  C1B1  F039         	movff	powf@t+1,___flsub@b+1
  4954  002C92  C1B2  F03A         	movff	powf@t+2,___flsub@b+2
  4955  002C96  C1B3  F03B         	movff	powf@t+3,___flsub@b+3
  4956  002C9A  EC0F  F027         	call	___flsub	;wreg free
  4957  002C9E  C038  F194         	movff	?___flsub,_powf$911
  4958  002CA2  C039  F195         	movff	?___flsub+1,_powf$911+1
  4959  002CA6  C03A  F196         	movff	?___flsub+2,_powf$911+2
  4960  002CAA  C03B  F197         	movff	?___flsub+3,_powf$911+3
  4961  002CAE  0E18               	movlw	24
  4962  002CB0  6E23               	movwf	___flmul@a^0,c
  4963  002CB2  0E72               	movlw	114
  4964  002CB4  6E24               	movwf	(___flmul@a+1)^0,c
  4965  002CB6  0E31               	movlw	49
  4966  002CB8  6E25               	movwf	(___flmul@a+2)^0,c
  4967  002CBA  0E3F               	movlw	63
  4968  002CBC  6E26               	movwf	(___flmul@a+3)^0,c
  4969  002CBE  C194  F03C         	movff	_powf$911,___flsub@a
  4970  002CC2  C195  F03D         	movff	_powf$911+1,___flsub@a+1
  4971  002CC6  C196  F03E         	movff	_powf$911+2,___flsub@a+2
  4972  002CCA  C197  F03F         	movff	_powf$911+3,___flsub@a+3
  4973  002CCE  C164  F038         	movff	powf@p_l,___flsub@b
  4974  002CD2  C165  F039         	movff	powf@p_l+1,___flsub@b+1
  4975  002CD6  C166  F03A         	movff	powf@p_l+2,___flsub@b+2
  4976  002CDA  C167  F03B         	movff	powf@p_l+3,___flsub@b+3
  4977  002CDE  EC0F  F027         	call	___flsub	;wreg free
  4978  002CE2  C038  F01F         	movff	?___flsub,___flmul@b
  4979  002CE6  C039  F020         	movff	?___flsub+1,___flmul@b+1
  4980  002CEA  C03A  F021         	movff	?___flsub+2,___flmul@b+2
  4981  002CEE  C03B  F022         	movff	?___flsub+3,___flmul@b+3
  4982  002CF2  EC33  F020         	call	___flmul	;wreg free
  4983  002CF6  C01F  F114         	movff	?___flmul,_powf$921
  4984  002CFA  C020  F115         	movff	?___flmul+1,_powf$921+1
  4985  002CFE  C021  F116         	movff	?___flmul+2,_powf$921+2
  4986  002D02  C022  F117         	movff	?___flmul+3,_powf$921+3
  4987  002D06  C114  F00F         	movff	_powf$921,___fladd@b
  4988  002D0A  C115  F010         	movff	_powf$921+1,___fladd@b+1
  4989  002D0E  C116  F011         	movff	_powf$921+2,___fladd@b+2
  4990  002D12  C117  F012         	movff	_powf$921+3,___fladd@b+3
  4991  002D16  0E8C               	movlw	140
  4992  002D18  6E23               	movwf	___flmul@a^0,c
  4993  002D1A  0EBE               	movlw	190
  4994  002D1C  6E24               	movwf	(___flmul@a+1)^0,c
  4995  002D1E  0EBF               	movlw	191
  4996  002D20  6E25               	movwf	(___flmul@a+2)^0,c
  4997  002D22  0E35               	movlw	53
  4998  002D24  6E26               	movwf	(___flmul@a+3)^0,c
  4999  002D26  C1B0  F01F         	movff	powf@t,___flmul@b
  5000  002D2A  C1B1  F020         	movff	powf@t+1,___flmul@b+1
  5001  002D2E  C1B2  F021         	movff	powf@t+2,___flmul@b+2
  5002  002D32  C1B3  F022         	movff	powf@t+3,___flmul@b+3
  5003  002D36  EC33  F020         	call	___flmul	;wreg free
  5004  002D3A  C01F  F013         	movff	?___flmul,___fladd@a
  5005  002D3E  C020  F014         	movff	?___flmul+1,___fladd@a+1
  5006  002D42  C021  F015         	movff	?___flmul+2,___fladd@a+2
  5007  002D46  C022  F016         	movff	?___flmul+3,___fladd@a+3
  5008  002D4A  ECA7  F01B         	call	___fladd	;wreg free
  5009  002D4E  C00F  F178         	movff	?___fladd,powf@v
  5010  002D52  C010  F179         	movff	?___fladd+1,powf@v+1
  5011  002D56  C011  F17A         	movff	?___fladd+2,powf@v+2
  5012  002D5A  C012  F17B         	movff	?___fladd+3,powf@v+3
  5013  002D5E  C174  F00F         	movff	powf@u,___fladd@b
  5014  002D62  C175  F010         	movff	powf@u+1,___fladd@b+1
  5015  002D66  C176  F011         	movff	powf@u+2,___fladd@b+2
  5016  002D6A  C177  F012         	movff	powf@u+3,___fladd@b+3
  5017  002D6E  C178  F013         	movff	powf@v,___fladd@a
  5018  002D72  C179  F014         	movff	powf@v+1,___fladd@a+1
  5019  002D76  C17A  F015         	movff	powf@v+2,___fladd@a+2
  5020  002D7A  C17B  F016         	movff	powf@v+3,___fladd@a+3
  5021  002D7E  ECA7  F01B         	call	___fladd	;wreg free
  5022  002D82  C00F  F1B4         	movff	?___fladd,powf@z
  5023  002D86  C010  F1B5         	movff	?___fladd+1,powf@z+1
  5024  002D8A  C011  F1B6         	movff	?___fladd+2,powf@z+2
  5025  002D8E  C012  F1B7         	movff	?___fladd+3,powf@z+3
  5026  002D92  C174  F03C         	movff	powf@u,___flsub@a
  5027  002D96  C175  F03D         	movff	powf@u+1,___flsub@a+1
  5028  002D9A  C176  F03E         	movff	powf@u+2,___flsub@a+2
  5029  002D9E  C177  F03F         	movff	powf@u+3,___flsub@a+3
  5030  002DA2  C1B4  F038         	movff	powf@z,___flsub@b
  5031  002DA6  C1B5  F039         	movff	powf@z+1,___flsub@b+1
  5032  002DAA  C1B6  F03A         	movff	powf@z+2,___flsub@b+2
  5033  002DAE  C1B7  F03B         	movff	powf@z+3,___flsub@b+3
  5034  002DB2  EC0F  F027         	call	___flsub	;wreg free
  5035  002DB6  C038  F194         	movff	?___flsub,_powf$911
  5036  002DBA  C039  F195         	movff	?___flsub+1,_powf$911+1
  5037  002DBE  C03A  F196         	movff	?___flsub+2,_powf$911+2
  5038  002DC2  C03B  F197         	movff	?___flsub+3,_powf$911+3
  5039  002DC6  C178  F038         	movff	powf@v,___flsub@b
  5040  002DCA  C179  F039         	movff	powf@v+1,___flsub@b+1
  5041  002DCE  C17A  F03A         	movff	powf@v+2,___flsub@b+2
  5042  002DD2  C17B  F03B         	movff	powf@v+3,___flsub@b+3
  5043  002DD6  C194  F03C         	movff	_powf$911,___flsub@a
  5044  002DDA  C195  F03D         	movff	_powf$911+1,___flsub@a+1
  5045  002DDE  C196  F03E         	movff	_powf$911+2,___flsub@a+2
  5046  002DE2  C197  F03F         	movff	_powf$911+3,___flsub@a+3
  5047  002DE6  EC0F  F027         	call	___flsub	;wreg free
  5048  002DEA  C038  F144         	movff	?___flsub,powf@w
  5049  002DEE  C039  F145         	movff	?___flsub+1,powf@w+1
  5050  002DF2  C03A  F146         	movff	?___flsub+2,powf@w+2
  5051  002DF6  C03B  F147         	movff	?___flsub+3,powf@w+3
  5052  002DFA  C1B4  F01F         	movff	powf@z,___flmul@b
  5053  002DFE  C1B5  F020         	movff	powf@z+1,___flmul@b+1
  5054  002E02  C1B6  F021         	movff	powf@z+2,___flmul@b+2
  5055  002E06  C1B7  F022         	movff	powf@z+3,___flmul@b+3
  5056  002E0A  C1B4  F023         	movff	powf@z,___flmul@a
  5057  002E0E  C1B5  F024         	movff	powf@z+1,___flmul@a+1
  5058  002E12  C1B6  F025         	movff	powf@z+2,___flmul@a+2
  5059  002E16  C1B7  F026         	movff	powf@z+3,___flmul@a+3
  5060  002E1A  EC33  F020         	call	___flmul	;wreg free
  5061  002E1E  C01F  F1B0         	movff	?___flmul,powf@t
  5062  002E22  C020  F1B1         	movff	?___flmul+1,powf@t+1
  5063  002E26  C021  F1B2         	movff	?___flmul+2,powf@t+2
  5064  002E2A  C022  F1B3         	movff	?___flmul+3,powf@t+3
  5065  002E2E  0E0E               	movlw	14
  5066  002E30  6E13               	movwf	___fladd@a^0,c
  5067  002E32  0EEA               	movlw	234
  5068  002E34  6E14               	movwf	(___fladd@a+1)^0,c
  5069  002E36  0EDD               	movlw	221
  5070  002E38  6E15               	movwf	(___fladd@a+2)^0,c
  5071  002E3A  0EB5               	movlw	181
  5072  002E3C  6E16               	movwf	(___fladd@a+3)^0,c
  5073  002E3E  0E4C               	movlw	76
  5074  002E40  6E23               	movwf	___flmul@a^0,c
  5075  002E42  0EBB               	movlw	187
  5076  002E44  6E24               	movwf	(___flmul@a+1)^0,c
  5077  002E46  0E31               	movlw	49
  5078  002E48  6E25               	movwf	(___flmul@a+2)^0,c
  5079  002E4A  0E33               	movlw	51
  5080  002E4C  6E26               	movwf	(___flmul@a+3)^0,c
  5081  002E4E  C1B0  F01F         	movff	powf@t,___flmul@b
  5082  002E52  C1B1  F020         	movff	powf@t+1,___flmul@b+1
  5083  002E56  C1B2  F021         	movff	powf@t+2,___flmul@b+2
  5084  002E5A  C1B3  F022         	movff	powf@t+3,___flmul@b+3
  5085  002E5E  EC33  F020         	call	___flmul	;wreg free
  5086  002E62  C01F  F00F         	movff	?___flmul,___fladd@b
  5087  002E66  C020  F010         	movff	?___flmul+1,___fladd@b+1
  5088  002E6A  C021  F011         	movff	?___flmul+2,___fladd@b+2
  5089  002E6E  C022  F012         	movff	?___flmul+3,___fladd@b+3
  5090  002E72  ECA7  F01B         	call	___fladd	;wreg free
  5091  002E76  C00F  F1A4         	movff	?___fladd,_powf$908
  5092  002E7A  C010  F1A5         	movff	?___fladd+1,_powf$908+1
  5093  002E7E  C011  F1A6         	movff	?___fladd+2,_powf$908+2
  5094  002E82  C012  F1A7         	movff	?___fladd+3,_powf$908+3
  5095  002E86  0E55               	movlw	85
  5096  002E88  6E13               	movwf	___fladd@a^0,c
  5097  002E8A  0EB3               	movlw	179
  5098  002E8C  6E14               	movwf	(___fladd@a+1)^0,c
  5099  002E8E  0E8A               	movlw	138
  5100  002E90  6E15               	movwf	(___fladd@a+2)^0,c
  5101  002E92  0E38               	movlw	56
  5102  002E94  6E16               	movwf	(___fladd@a+3)^0,c
  5103  002E96  C1B0  F023         	movff	powf@t,___flmul@a
  5104  002E9A  C1B1  F024         	movff	powf@t+1,___flmul@a+1
  5105  002E9E  C1B2  F025         	movff	powf@t+2,___flmul@a+2
  5106  002EA2  C1B3  F026         	movff	powf@t+3,___flmul@a+3
  5107  002EA6  C1A4  F01F         	movff	_powf$908,___flmul@b
  5108  002EAA  C1A5  F020         	movff	_powf$908+1,___flmul@b+1
  5109  002EAE  C1A6  F021         	movff	_powf$908+2,___flmul@b+2
  5110  002EB2  C1A7  F022         	movff	_powf$908+3,___flmul@b+3
  5111  002EB6  EC33  F020         	call	___flmul	;wreg free
  5112  002EBA  C01F  F00F         	movff	?___flmul,___fladd@b
  5113  002EBE  C020  F010         	movff	?___flmul+1,___fladd@b+1
  5114  002EC2  C021  F011         	movff	?___flmul+2,___fladd@b+2
  5115  002EC6  C022  F012         	movff	?___flmul+3,___fladd@b+3
  5116  002ECA  ECA7  F01B         	call	___fladd	;wreg free
  5117  002ECE  C00F  F154         	movff	?___fladd,_powf$909
  5118  002ED2  C010  F155         	movff	?___fladd+1,_powf$909+1
  5119  002ED6  C011  F156         	movff	?___fladd+2,_powf$909+2
  5120  002EDA  C012  F157         	movff	?___fladd+3,_powf$909+3
  5121  002EDE  0E61               	movlw	97
  5122  002EE0  6E13               	movwf	___fladd@a^0,c
  5123  002EE2  0E0B               	movlw	11
  5124  002EE4  6E14               	movwf	(___fladd@a+1)^0,c
  5125  002EE6  0E36               	movlw	54
  5126  002EE8  6E15               	movwf	(___fladd@a+2)^0,c
  5127  002EEA  0EBB               	movlw	187
  5128  002EEC  6E16               	movwf	(___fladd@a+3)^0,c
  5129  002EEE  C1B0  F023         	movff	powf@t,___flmul@a
  5130  002EF2  C1B1  F024         	movff	powf@t+1,___flmul@a+1
  5131  002EF6  C1B2  F025         	movff	powf@t+2,___flmul@a+2
  5132  002EFA  C1B3  F026         	movff	powf@t+3,___flmul@a+3
  5133  002EFE  C154  F01F         	movff	_powf$909,___flmul@b
  5134  002F02  C155  F020         	movff	_powf$909+1,___flmul@b+1
  5135  002F06  C156  F021         	movff	_powf$909+2,___flmul@b+2
  5136  002F0A  C157  F022         	movff	_powf$909+3,___flmul@b+3
  5137  002F0E  EC33  F020         	call	___flmul	;wreg free
  5138  002F12  C01F  F00F         	movff	?___flmul,___fladd@b
  5139  002F16  C020  F010         	movff	?___flmul+1,___fladd@b+1
  5140  002F1A  C021  F011         	movff	?___flmul+2,___fladd@b+2
  5141  002F1E  C022  F012         	movff	?___flmul+3,___fladd@b+3
  5142  002F22  ECA7  F01B         	call	___fladd	;wreg free
  5143  002F26  C00F  F148         	movff	?___fladd,_powf$910
  5144  002F2A  C010  F149         	movff	?___fladd+1,_powf$910+1
  5145  002F2E  C011  F14A         	movff	?___fladd+2,_powf$910+2
  5146  002F32  C012  F14B         	movff	?___fladd+3,_powf$910+3
  5147  002F36  0EAB               	movlw	171
  5148  002F38  6E13               	movwf	___fladd@a^0,c
  5149  002F3A  0EAA               	movlw	170
  5150  002F3C  6E14               	movwf	(___fladd@a+1)^0,c
  5151  002F3E  0E2A               	movlw	42
  5152  002F40  6E15               	movwf	(___fladd@a+2)^0,c
  5153  002F42  0E3E               	movlw	62
  5154  002F44  6E16               	movwf	(___fladd@a+3)^0,c
  5155  002F46  C1B0  F023         	movff	powf@t,___flmul@a
  5156  002F4A  C1B1  F024         	movff	powf@t+1,___flmul@a+1
  5157  002F4E  C1B2  F025         	movff	powf@t+2,___flmul@a+2
  5158  002F52  C1B3  F026         	movff	powf@t+3,___flmul@a+3
  5159  002F56  C148  F01F         	movff	_powf$910,___flmul@b
  5160  002F5A  C149  F020         	movff	_powf$910+1,___flmul@b+1
  5161  002F5E  C14A  F021         	movff	_powf$910+2,___flmul@b+2
  5162  002F62  C14B  F022         	movff	_powf$910+3,___flmul@b+3
  5163  002F66  EC33  F020         	call	___flmul	;wreg free
  5164  002F6A  C01F  F00F         	movff	?___flmul,___fladd@b
  5165  002F6E  C020  F010         	movff	?___flmul+1,___fladd@b+1
  5166  002F72  C021  F011         	movff	?___flmul+2,___fladd@b+2
  5167  002F76  C022  F012         	movff	?___flmul+3,___fladd@b+3
  5168  002F7A  ECA7  F01B         	call	___fladd	;wreg free
  5169  002F7E  C00F  F138         	movff	?___fladd,_powf$912
  5170  002F82  C010  F139         	movff	?___fladd+1,_powf$912+1
  5171  002F86  C011  F13A         	movff	?___fladd+2,_powf$912+2
  5172  002F8A  C012  F13B         	movff	?___fladd+3,_powf$912+3
  5173  002F8E  C1B4  F038         	movff	powf@z,___flsub@b
  5174  002F92  C1B5  F039         	movff	powf@z+1,___flsub@b+1
  5175  002F96  C1B6  F03A         	movff	powf@z+2,___flsub@b+2
  5176  002F9A  C1B7  F03B         	movff	powf@z+3,___flsub@b+3
  5177  002F9E  C1B0  F023         	movff	powf@t,___flmul@a
  5178  002FA2  C1B1  F024         	movff	powf@t+1,___flmul@a+1
  5179  002FA6  C1B2  F025         	movff	powf@t+2,___flmul@a+2
  5180  002FAA  C1B3  F026         	movff	powf@t+3,___flmul@a+3
  5181  002FAE  C138  F01F         	movff	_powf$912,___flmul@b
  5182  002FB2  C139  F020         	movff	_powf$912+1,___flmul@b+1
  5183  002FB6  C13A  F021         	movff	_powf$912+2,___flmul@b+2
  5184  002FBA  C13B  F022         	movff	_powf$912+3,___flmul@b+3
  5185  002FBE  EC33  F020         	call	___flmul	;wreg free
  5186  002FC2  C01F  F03C         	movff	?___flmul,___flsub@a
  5187  002FC6  C020  F03D         	movff	?___flmul+1,___flsub@a+1
  5188  002FCA  C021  F03E         	movff	?___flmul+2,___flsub@a+2
  5189  002FCE  C022  F03F         	movff	?___flmul+3,___flsub@a+3
  5190  002FD2  EC0F  F027         	call	___flsub	;wreg free
  5191  002FD6  C038  F180         	movff	?___flsub,powf@t1
  5192  002FDA  C039  F181         	movff	?___flsub+1,powf@t1+1
  5193  002FDE  C03A  F182         	movff	?___flsub+2,powf@t1+2
  5194  002FE2  C03B  F183         	movff	?___flsub+3,powf@t1+3
  5195  002FE6  0E00               	movlw	0
  5196  002FE8  6E13               	movwf	___fladd@a^0,c
  5197  002FEA  0E00               	movlw	0
  5198  002FEC  6E14               	movwf	(___fladd@a+1)^0,c
  5199  002FEE  0E00               	movlw	0
  5200  002FF0  6E15               	movwf	(___fladd@a+2)^0,c
  5201  002FF2  0EC0               	movlw	192
  5202  002FF4  6E16               	movwf	(___fladd@a+3)^0,c
  5203  002FF6  C180  F00F         	movff	powf@t1,___fladd@b
  5204  002FFA  C181  F010         	movff	powf@t1+1,___fladd@b+1
  5205  002FFE  C182  F011         	movff	powf@t1+2,___fladd@b+2
  5206  003002  C183  F012         	movff	powf@t1+3,___fladd@b+3
  5207  003006  ECA7  F01B         	call	___fladd	;wreg free
  5208  00300A  C00F  F044         	movff	?___fladd,___fldiv@a
  5209  00300E  C010  F045         	movff	?___fladd+1,___fldiv@a+1
  5210  003012  C011  F046         	movff	?___fladd+2,___fldiv@a+2
  5211  003016  C012  F047         	movff	?___fladd+3,___fldiv@a+3
  5212  00301A  C180  F023         	movff	powf@t1,___flmul@a
  5213  00301E  C181  F024         	movff	powf@t1+1,___flmul@a+1
  5214  003022  C182  F025         	movff	powf@t1+2,___flmul@a+2
  5215  003026  C183  F026         	movff	powf@t1+3,___flmul@a+3
  5216  00302A  C1B4  F01F         	movff	powf@z,___flmul@b
  5217  00302E  C1B5  F020         	movff	powf@z+1,___flmul@b+1
  5218  003032  C1B6  F021         	movff	powf@z+2,___flmul@b+2
  5219  003036  C1B7  F022         	movff	powf@z+3,___flmul@b+3
  5220  00303A  EC33  F020         	call	___flmul	;wreg free
  5221  00303E  C01F  F040         	movff	?___flmul,___fldiv@b
  5222  003042  C020  F041         	movff	?___flmul+1,___fldiv@b+1
  5223  003046  C021  F042         	movff	?___flmul+2,___fldiv@b+2
  5224  00304A  C022  F043         	movff	?___flmul+3,___fldiv@b+3
  5225  00304E  EC48  F022         	call	___fldiv	;wreg free
  5226  003052  C040  F13C         	movff	?___fldiv,_powf$916
  5227  003056  C041  F13D         	movff	?___fldiv+1,_powf$916+1
  5228  00305A  C042  F13E         	movff	?___fldiv+2,_powf$916+2
  5229  00305E  C043  F13F         	movff	?___fldiv+3,_powf$916+3
  5230  003062  C144  F013         	movff	powf@w,___fladd@a
  5231  003066  C145  F014         	movff	powf@w+1,___fladd@a+1
  5232  00306A  C146  F015         	movff	powf@w+2,___fladd@a+2
  5233  00306E  C147  F016         	movff	powf@w+3,___fladd@a+3
  5234  003072  C144  F023         	movff	powf@w,___flmul@a
  5235  003076  C145  F024         	movff	powf@w+1,___flmul@a+1
  5236  00307A  C146  F025         	movff	powf@w+2,___flmul@a+2
  5237  00307E  C147  F026         	movff	powf@w+3,___flmul@a+3
  5238  003082  C1B4  F01F         	movff	powf@z,___flmul@b
  5239  003086  C1B5  F020         	movff	powf@z+1,___flmul@b+1
  5240  00308A  C1B6  F021         	movff	powf@z+2,___flmul@b+2
  5241  00308E  C1B7  F022         	movff	powf@z+3,___flmul@b+3
  5242  003092  EC33  F020         	call	___flmul	;wreg free
  5243  003096  C01F  F00F         	movff	?___flmul,___fladd@b
  5244  00309A  C020  F010         	movff	?___flmul+1,___fladd@b+1
  5245  00309E  C021  F011         	movff	?___flmul+2,___fladd@b+2
  5246  0030A2  C022  F012         	movff	?___flmul+3,___fladd@b+3
  5247  0030A6  ECA7  F01B         	call	___fladd	;wreg free
  5248  0030AA  C00F  F118         	movff	?___fladd,_powf$922
  5249  0030AE  C010  F119         	movff	?___fladd+1,_powf$922+1
  5250  0030B2  C011  F11A         	movff	?___fladd+2,_powf$922+2
  5251  0030B6  C012  F11B         	movff	?___fladd+3,_powf$922+3
  5252  0030BA  C13C  F038         	movff	_powf$916,___flsub@b
  5253  0030BE  C13D  F039         	movff	_powf$916+1,___flsub@b+1
  5254  0030C2  C13E  F03A         	movff	_powf$916+2,___flsub@b+2
  5255  0030C6  C13F  F03B         	movff	_powf$916+3,___flsub@b+3
  5256  0030CA  C118  F03C         	movff	_powf$922,___flsub@a
  5257  0030CE  C119  F03D         	movff	_powf$922+1,___flsub@a+1
  5258  0030D2  C11A  F03E         	movff	_powf$922+2,___flsub@a+2
  5259  0030D6  C11B  F03F         	movff	_powf$922+3,___flsub@a+3
  5260  0030DA  EC0F  F027         	call	___flsub	;wreg free
  5261  0030DE  C038  F14C         	movff	?___flsub,powf@r
  5262  0030E2  C039  F14D         	movff	?___flsub+1,powf@r+1
  5263  0030E6  C03A  F14E         	movff	?___flsub+2,powf@r+2
  5264  0030EA  C03B  F14F         	movff	?___flsub+3,powf@r+3
  5265  0030EE  C1B4  F03C         	movff	powf@z,___flsub@a
  5266  0030F2  C1B5  F03D         	movff	powf@z+1,___flsub@a+1
  5267  0030F6  C1B6  F03E         	movff	powf@z+2,___flsub@a+2
  5268  0030FA  C1B7  F03F         	movff	powf@z+3,___flsub@a+3
  5269  0030FE  C14C  F038         	movff	powf@r,___flsub@b
  5270  003102  C14D  F039         	movff	powf@r+1,___flsub@b+1
  5271  003106  C14E  F03A         	movff	powf@r+2,___flsub@b+2
  5272  00310A  C14F  F03B         	movff	powf@r+3,___flsub@b+3
  5273  00310E  EC0F  F027         	call	___flsub	;wreg free
  5274  003112  C038  F194         	movff	?___flsub,_powf$911
  5275  003116  C039  F195         	movff	?___flsub+1,_powf$911+1
  5276  00311A  C03A  F196         	movff	?___flsub+2,_powf$911+2
  5277  00311E  C03B  F197         	movff	?___flsub+3,_powf$911+3
  5278  003122  0E00               	movlw	0
  5279  003124  6E38               	movwf	___flsub@b^0,c
  5280  003126  0E00               	movlw	0
  5281  003128  6E39               	movwf	(___flsub@b+1)^0,c
  5282  00312A  0E80               	movlw	128
  5283  00312C  6E3A               	movwf	(___flsub@b+2)^0,c
  5284  00312E  0E3F               	movlw	63
  5285  003130  6E3B               	movwf	(___flsub@b+3)^0,c
  5286  003132  C194  F03C         	movff	_powf$911,___flsub@a
  5287  003136  C195  F03D         	movff	_powf$911+1,___flsub@a+1
  5288  00313A  C196  F03E         	movff	_powf$911+2,___flsub@a+2
  5289  00313E  C197  F03F         	movff	_powf$911+3,___flsub@a+3
  5290  003142  EC0F  F027         	call	___flsub	;wreg free
  5291  003146  C038  F1B4         	movff	?___flsub,powf@z
  5292  00314A  C039  F1B5         	movff	?___flsub+1,powf@z+1
  5293  00314E  C03A  F1B6         	movff	?___flsub+2,powf@z+2
  5294  003152  C03B  F1B7         	movff	?___flsub+3,powf@z+3
  5295  003156  C1B4  F1B8         	movff	powf@z,powf@__xc8_float_word
  5296  00315A  C1B5  F1B9         	movff	powf@z+1,powf@__xc8_float_word+1
  5297  00315E  C1B6  F1BA         	movff	powf@z+2,powf@__xc8_float_word+2
  5298  003162  C1B7  F1BB         	movff	powf@z+3,powf@__xc8_float_word+3
  5299  003166  C1B8  F1AC         	movff	powf@__xc8_float_word,powf@j
  5300  00316A  C1B9  F1AD         	movff	powf@__xc8_float_word+1,powf@j+1
  5301  00316E  C1BA  F1AE         	movff	powf@__xc8_float_word+2,powf@j+2
  5302  003172  C1BB  F1AF         	movff	powf@__xc8_float_word+3,powf@j+3
  5303  003176  C17C  F090         	movff	powf@n,??_powf
  5304  00317A  C17D  F091         	movff	powf@n+1,??_powf+1
  5305  00317E  C17E  F092         	movff	powf@n+2,??_powf+2
  5306  003182  C17F  F093         	movff	powf@n+3,??_powf+3
  5307  003186  0E17               	movlw	23
  5308  003188                     u3615:
  5309  003188  90D8               	bcf	status,0,c
  5310  00318A  0100               	movlb	0	; () banked
  5311  00318C  3790               	rlcf	??_powf& (0+255),f,b
  5312  00318E  3791               	rlcf	(??_powf+1)& (0+255),f,b
  5313  003190  3792               	rlcf	(??_powf+2)& (0+255),f,b
  5314  003192  3793               	rlcf	(??_powf+3)& (0+255),f,b
  5315  003194  2EE8               	decfsz	wreg,f,c
  5316  003196  EFC4  F018         	goto	u3615
  5317  00319A  5190               	movf	??_powf& (0+255),w,b
  5318  00319C  0101               	movlb	1	; () banked
  5319  00319E  27AC               	addwf	powf@j& (0+255),f,b
  5320  0031A0  0100               	movlb	0	; () banked
  5321  0031A2  5191               	movf	(??_powf+1)& (0+255),w,b
  5322  0031A4  0101               	movlb	1	; () banked
  5323  0031A6  23AD               	addwfc	(powf@j+1)& (0+255),f,b
  5324  0031A8  0100               	movlb	0	; () banked
  5325  0031AA  5192               	movf	(??_powf+2)& (0+255),w,b
  5326  0031AC  0101               	movlb	1	; () banked
  5327  0031AE  23AE               	addwfc	(powf@j+2)& (0+255),f,b
  5328  0031B0  0100               	movlb	0	; () banked
  5329  0031B2  5193               	movf	(??_powf+3)& (0+255),w,b
  5330  0031B4  0101               	movlb	1	; () banked
  5331  0031B6  23AF               	addwfc	(powf@j+3)& (0+255),f,b
  5332  0031B8                     
  5333                           ; BSR set to: 1
  5334  0031B8  0E17               	movlw	23
  5335  0031BA  0100               	movlb	0	; () banked
  5336  0031BC  6F90               	movwf	??_powf& (0+255),b
  5337  0031BE  C1AC  F091         	movff	powf@j,??_powf+1
  5338  0031C2  C1AD  F092         	movff	powf@j+1,??_powf+2
  5339  0031C6  C1AE  F093         	movff	powf@j+2,??_powf+3
  5340  0031CA  C1AF  F094         	movff	powf@j+3,??_powf+4
  5341  0031CE                     u3625:
  5342  0031CE  6790               	tstfsz	??_powf& (0+255),b
  5343  0031D0  EFEC  F018         	goto	u3626
  5344  0031D4  EFF4  F018         	goto	u3627
  5345  0031D8                     u3626:
  5346  0031D8  3594               	rlcf	(??_powf+4)& (0+255),w,b
  5347  0031DA  3394               	rrcf	(??_powf+4)& (0+255),f,b
  5348  0031DC  3393               	rrcf	(??_powf+3)& (0+255),f,b
  5349  0031DE  3392               	rrcf	(??_powf+2)& (0+255),f,b
  5350  0031E0  3391               	rrcf	(??_powf+1)& (0+255),f,b
  5351  0031E2  2F90               	decfsz	??_powf& (0+255),f,b
  5352  0031E4  EFE7  F018         	goto	u3625
  5353  0031E8                     u3627:
  5354  0031E8  0100               	movlb	0	; () banked
  5355  0031EA  BF94               	btfsc	(??_powf+4)& (0+255),7,b
  5356  0031EC  EF04  F019         	goto	u3630
  5357  0031F0  5194               	movf	(??_powf+4)& (0+255),w,b
  5358  0031F2  1193               	iorwf	(??_powf+3)& (0+255),w,b
  5359  0031F4  1192               	iorwf	(??_powf+2)& (0+255),w,b
  5360  0031F6  E106               	bnz	u3631
  5361  0031F8  0591               	decf	(??_powf+1)& (0+255),w,b
  5362  0031FA  B0D8               	btfsc	status,0,c
  5363  0031FC  EF02  F019         	goto	u3631
  5364  003200  EF04  F019         	goto	u3630
  5365  003204                     u3631:
  5366  003204  EF1C  F019         	goto	l902
  5367  003208                     u3630:
  5368  003208                     
  5369                           ; BSR set to: 0
  5370  003208  C1B4  F038         	movff	powf@z,scalbnf@x
  5371  00320C  C1B5  F039         	movff	powf@z+1,scalbnf@x+1
  5372  003210  C1B6  F03A         	movff	powf@z+2,scalbnf@x+2
  5373  003214  C1B7  F03B         	movff	powf@z+3,scalbnf@x+3
  5374  003218  C17C  F03C         	movff	powf@n,scalbnf@n
  5375  00321C  C17D  F03D         	movff	powf@n+1,scalbnf@n+1
  5376  003220  EC15  F024         	call	_scalbnf	;wreg free
  5377  003224  C038  F1B4         	movff	?_scalbnf,powf@z
  5378  003228  C039  F1B5         	movff	?_scalbnf+1,powf@z+1
  5379  00322C  C03A  F1B6         	movff	?_scalbnf+2,powf@z+2
  5380  003230  C03B  F1B7         	movff	?_scalbnf+3,powf@z+3
  5381  003234  EF2C  F019         	goto	l3393
  5382  003238                     l902:
  5383                           
  5384                           ; BSR set to: 0
  5385  003238  C1AC  F1B8         	movff	powf@j,powf@__xc8_float_word
  5386  00323C  C1AD  F1B9         	movff	powf@j+1,powf@__xc8_float_word+1
  5387  003240  C1AE  F1BA         	movff	powf@j+2,powf@__xc8_float_word+2
  5388  003244  C1AF  F1BB         	movff	powf@j+3,powf@__xc8_float_word+3
  5389  003248  C1B8  F1B4         	movff	powf@__xc8_float_word,powf@z
  5390  00324C  C1B9  F1B5         	movff	powf@__xc8_float_word+1,powf@z+1
  5391  003250  C1BA  F1B6         	movff	powf@__xc8_float_word+2,powf@z+2
  5392  003254  C1BB  F1B7         	movff	powf@__xc8_float_word+3,powf@z+3
  5393  003258                     l3393:
  5394  003258  C188  F01F         	movff	powf@sn,___flmul@b
  5395  00325C  C189  F020         	movff	powf@sn+1,___flmul@b+1
  5396  003260  C18A  F021         	movff	powf@sn+2,___flmul@b+2
  5397  003264  C18B  F022         	movff	powf@sn+3,___flmul@b+3
  5398  003268  C1B4  F023         	movff	powf@z,___flmul@a
  5399  00326C  C1B5  F024         	movff	powf@z+1,___flmul@a+1
  5400  003270  C1B6  F025         	movff	powf@z+2,___flmul@a+2
  5401  003274  C1B7  F026         	movff	powf@z+3,___flmul@a+3
  5402  003278  EC33  F020         	call	___flmul	;wreg free
  5403  00327C  C01F  F088         	movff	?___flmul,?_powf
  5404  003280  C020  F089         	movff	?___flmul+1,?_powf+1
  5405  003284  C021  F08A         	movff	?___flmul+2,?_powf+2
  5406  003288  C022  F08B         	movff	?___flmul+3,?_powf+3
  5407  00328C                     l790:
  5408  00328C  0012               	return		;funcret
  5409  00328E                     __end_of_powf:
  5410                           	callstack 0
  5411                           
  5412 ;; *************** function _sqrtf *****************
  5413 ;; Defined at:
  5414 ;;		line 22 in file "C:\Program Files\Microchip\xc8\v2.20\pic\sources\c99\common\sqrtf.c"
  5415 ;; Parameters:    Size  Location     Type
  5416 ;;  x               4   75[COMRAM] float 
  5417 ;; Auto vars:     Size  Location     Type
  5418 ;;  ix              4   36[BANK0 ] long 
  5419 ;;  r               4   32[BANK0 ] unsigned long 
  5420 ;;  m               4   28[BANK0 ] long 
  5421 ;;  z               4   24[BANK0 ] float 
  5422 ;;  t               4   20[BANK0 ] long 
  5423 ;;  q               4   16[BANK0 ] long 
  5424 ;;  __xc8_float_    4   12[BANK0 ] struct .
  5425 ;;  i               4    8[BANK0 ] long 
  5426 ;;  s               4    4[BANK0 ] long 
  5427 ;;  sign            4    0        long 
  5428 ;; Return value:  Size  Location     Type
  5429 ;;                  4   75[COMRAM] float 
  5430 ;; Registers used:
  5431 ;;		wreg, status,2, status,0, prodl, prodh, cstack
  5432 ;; Tracked objects:
  5433 ;;		On entry : 0/0
  5434 ;;		On exit  : 0/0
  5435 ;;		Unchanged: 0/0
  5436 ;; Data sizes:     COMRAM   BANK0   BANK1   BANK2   BANK3   BANK4   BANK5   BANK6   BANK7
  5437 ;;      Params:         4       0       0       0       0       0       0       0       0
  5438 ;;      Locals:         0      40       0       0       0       0       0       0       0
  5439 ;;      Temps:          5       0       0       0       0       0       0       0       0
  5440 ;;      Totals:         9      40       0       0       0       0       0       0       0
  5441 ;;Total ram usage:       49 bytes
  5442 ;; Hardware stack levels used:    1
  5443 ;; Hardware stack levels required when called:    1
  5444 ;; This function calls:
  5445 ;;		___fladd
  5446 ;;		___flge
  5447 ;;		___flmul
  5448 ;;		_nanf
  5449 ;; This function is called by:
  5450 ;;		_powf
  5451 ;; This function uses a non-reentrant model
  5452 ;;
  5453                           
  5454                           	psect	text2
  5455  00328E                     __ptext2:
  5456                           	callstack 0
  5457  00328E                     _sqrtf:
  5458                           	callstack 28
  5459  00328E  C04C  F06C         	movff	sqrtf@x,sqrtf@__xc8_float_word
  5460  003292  C04D  F06D         	movff	sqrtf@x+1,sqrtf@__xc8_float_word+1
  5461  003296  C04E  F06E         	movff	sqrtf@x+2,sqrtf@__xc8_float_word+2
  5462  00329A  C04F  F06F         	movff	sqrtf@x+3,sqrtf@__xc8_float_word+3
  5463  00329E  C06C  F084         	movff	sqrtf@__xc8_float_word,sqrtf@ix
  5464  0032A2  C06D  F085         	movff	sqrtf@__xc8_float_word+1,sqrtf@ix+1
  5465  0032A6  C06E  F086         	movff	sqrtf@__xc8_float_word+2,sqrtf@ix+2
  5466  0032AA  C06F  F087         	movff	sqrtf@__xc8_float_word+3,sqrtf@ix+3
  5467  0032AE  0E00               	movlw	0
  5468  0032B0  0100               	movlb	0	; () banked
  5469  0032B2  1584               	andwf	sqrtf@ix& (0+255),w,b
  5470  0032B4  6E50               	movwf	??_sqrtf^0,c
  5471  0032B6  0E00               	movlw	0
  5472  0032B8  1585               	andwf	(sqrtf@ix+1)& (0+255),w,b
  5473  0032BA  6E51               	movwf	(??_sqrtf+1)^0,c
  5474  0032BC  0E80               	movlw	128
  5475  0032BE  1586               	andwf	(sqrtf@ix+2)& (0+255),w,b
  5476  0032C0  6E52               	movwf	(??_sqrtf+2)^0,c
  5477  0032C2  0E7F               	movlw	127
  5478  0032C4  1587               	andwf	(sqrtf@ix+3)& (0+255),w,b
  5479  0032C6  6E53               	movwf	(??_sqrtf+3)^0,c
  5480  0032C8  0E80               	movlw	128
  5481  0032CA  1852               	xorwf	(??_sqrtf+2)^0,w,c
  5482  0032CC  E109               	bnz	u2861
  5483  0032CE  0E7F               	movlw	127
  5484  0032D0  1853               	xorwf	(??_sqrtf+3)^0,w,c
  5485  0032D2  1050               	iorwf	??_sqrtf^0,w,c
  5486  0032D4  1051               	iorwf	(??_sqrtf+1)^0,w,c
  5487  0032D6  A4D8               	btfss	status,2,c
  5488  0032D8  EF70  F019         	goto	u2861
  5489  0032DC  EF72  F019         	goto	u2860
  5490  0032E0                     u2861:
  5491  0032E0  EFA0  F019         	goto	l2835
  5492  0032E4                     u2860:
  5493  0032E4                     
  5494                           ; BSR set to: 0
  5495  0032E4  C04C  F023         	movff	sqrtf@x,___flmul@a
  5496  0032E8  C04D  F024         	movff	sqrtf@x+1,___flmul@a+1
  5497  0032EC  C04E  F025         	movff	sqrtf@x+2,___flmul@a+2
  5498  0032F0  C04F  F026         	movff	sqrtf@x+3,___flmul@a+3
  5499  0032F4  C04C  F01F         	movff	sqrtf@x,___flmul@b
  5500  0032F8  C04D  F020         	movff	sqrtf@x+1,___flmul@b+1
  5501  0032FC  C04E  F021         	movff	sqrtf@x+2,___flmul@b+2
  5502  003300  C04F  F022         	movff	sqrtf@x+3,___flmul@b+3
  5503  003304  EC33  F020         	call	___flmul	;wreg free
  5504  003308  C01F  F00F         	movff	?___flmul,___fladd@b
  5505  00330C  C020  F010         	movff	?___flmul+1,___fladd@b+1
  5506  003310  C021  F011         	movff	?___flmul+2,___fladd@b+2
  5507  003314  C022  F012         	movff	?___flmul+3,___fladd@b+3
  5508  003318  C04C  F013         	movff	sqrtf@x,___fladd@a
  5509  00331C  C04D  F014         	movff	sqrtf@x+1,___fladd@a+1
  5510  003320  C04E  F015         	movff	sqrtf@x+2,___fladd@a+2
  5511  003324  C04F  F016         	movff	sqrtf@x+3,___fladd@a+3
  5512  003328  ECA7  F01B         	call	___fladd	;wreg free
  5513  00332C  C00F  F04C         	movff	?___fladd,?_sqrtf
  5514  003330  C010  F04D         	movff	?___fladd+1,?_sqrtf+1
  5515  003334  C011  F04E         	movff	?___fladd+2,?_sqrtf+2
  5516  003338  C012  F04F         	movff	?___fladd+3,?_sqrtf+3
  5517  00333C  EFA6  F01B         	goto	l930
  5518  003340                     l2835:
  5519                           
  5520                           ; BSR set to: 0
  5521  003340  BF87               	btfsc	(sqrtf@ix+3)& (0+255),7,b
  5522  003342  EFAF  F019         	goto	u2870
  5523  003346  5187               	movf	(sqrtf@ix+3)& (0+255),w,b
  5524  003348  1186               	iorwf	(sqrtf@ix+2)& (0+255),w,b
  5525  00334A  1185               	iorwf	(sqrtf@ix+1)& (0+255),w,b
  5526  00334C  E106               	bnz	u2871
  5527  00334E  0584               	decf	sqrtf@ix& (0+255),w,b
  5528  003350  B0D8               	btfsc	status,0,c
  5529  003352  EFAD  F019         	goto	u2871
  5530  003356  EFAF  F019         	goto	u2870
  5531  00335A                     u2871:
  5532  00335A  EFEB  F019         	goto	l2849
  5533  00335E                     u2870:
  5534  00335E                     
  5535                           ; BSR set to: 0
  5536  00335E  0EFF               	movlw	255
  5537  003360  1584               	andwf	sqrtf@ix& (0+255),w,b
  5538  003362  6E50               	movwf	??_sqrtf^0,c
  5539  003364  0EFF               	movlw	255
  5540  003366  1585               	andwf	(sqrtf@ix+1)& (0+255),w,b
  5541  003368  6E51               	movwf	(??_sqrtf+1)^0,c
  5542  00336A  0EFF               	movlw	255
  5543  00336C  1586               	andwf	(sqrtf@ix+2)& (0+255),w,b
  5544  00336E  6E52               	movwf	(??_sqrtf+2)^0,c
  5545  003370  0E7F               	movlw	127
  5546  003372  1587               	andwf	(sqrtf@ix+3)& (0+255),w,b
  5547  003374  6E53               	movwf	(??_sqrtf+3)^0,c
  5548  003376  5050               	movf	??_sqrtf^0,w,c
  5549  003378  1051               	iorwf	(??_sqrtf+1)^0,w,c
  5550  00337A  1052               	iorwf	(??_sqrtf+2)^0,w,c
  5551  00337C  1053               	iorwf	(??_sqrtf+3)^0,w,c
  5552  00337E  A4D8               	btfss	status,2,c
  5553  003380  EFC4  F019         	goto	u2881
  5554  003384  EFC6  F019         	goto	u2880
  5555  003388                     u2881:
  5556  003388  EFD0  F019         	goto	l2841
  5557  00338C                     u2880:
  5558  00338C                     
  5559                           ; BSR set to: 0
  5560  00338C  C04C  F04C         	movff	sqrtf@x,?_sqrtf
  5561  003390  C04D  F04D         	movff	sqrtf@x+1,?_sqrtf+1
  5562  003394  C04E  F04E         	movff	sqrtf@x+2,?_sqrtf+2
  5563  003398  C04F  F04F         	movff	sqrtf@x+3,?_sqrtf+3
  5564  00339C  EFA6  F01B         	goto	l930
  5565  0033A0                     l2841:
  5566                           
  5567                           ; BSR set to: 0
  5568  0033A0  BF87               	btfsc	(sqrtf@ix+3)& (0+255),7,b
  5569  0033A2  EFD7  F019         	goto	u2890
  5570  0033A6  EFD5  F019         	goto	u2891
  5571  0033AA                     u2891:
  5572  0033AA  EFEB  F019         	goto	l2849
  5573  0033AE                     u2890:
  5574  0033AE                     
  5575                           ; BSR set to: 0
  5576  0033AE  0E00               	movlw	0
  5577  0033B0  6FBC               	movwf	(_errno+1)& (0+255),b
  5578  0033B2  0E21               	movlw	33
  5579  0033B4  6FBB               	movwf	_errno& (0+255),b
  5580  0033B6                     
  5581                           ; BSR set to: 0
  5582  0033B6  0E7D               	movlw	low STR_1
  5583  0033B8  6E01               	movwf	nanf@s^0,c
  5584  0033BA  0E08               	movlw	high STR_1
  5585  0033BC  6E02               	movwf	(nanf@s+1)^0,c
  5586  0033BE  EC68  F027         	call	_nanf	;wreg free
  5587  0033C2  C001  F04C         	movff	?_nanf,?_sqrtf
  5588  0033C6  C002  F04D         	movff	?_nanf+1,?_sqrtf+1
  5589  0033CA  C003  F04E         	movff	?_nanf+2,?_sqrtf+2
  5590  0033CE  C004  F04F         	movff	?_nanf+3,?_sqrtf+3
  5591  0033D2  EFA6  F01B         	goto	l930
  5592  0033D6                     l2849:
  5593                           
  5594                           ; BSR set to: 0
  5595  0033D6  0E17               	movlw	23
  5596  0033D8  6E50               	movwf	??_sqrtf^0,c
  5597  0033DA  C084  F051         	movff	sqrtf@ix,??_sqrtf+1
  5598  0033DE  C085  F052         	movff	sqrtf@ix+1,??_sqrtf+2
  5599  0033E2  C086  F053         	movff	sqrtf@ix+2,??_sqrtf+3
  5600  0033E6  C087  F054         	movff	sqrtf@ix+3,??_sqrtf+4
  5601  0033EA                     u2905:
  5602  0033EA  6650               	tstfsz	??_sqrtf^0,c
  5603  0033EC  EFFA  F019         	goto	u2906
  5604  0033F0  EF02  F01A         	goto	u2907
  5605  0033F4                     u2906:
  5606  0033F4  3454               	rlcf	(??_sqrtf+4)^0,w,c
  5607  0033F6  3254               	rrcf	(??_sqrtf+4)^0,f,c
  5608  0033F8  3253               	rrcf	(??_sqrtf+3)^0,f,c
  5609  0033FA  3252               	rrcf	(??_sqrtf+2)^0,f,c
  5610  0033FC  3251               	rrcf	(??_sqrtf+1)^0,f,c
  5611  0033FE  2E50               	decfsz	??_sqrtf^0,f,c
  5612  003400  EFF5  F019         	goto	u2905
  5613  003404                     u2907:
  5614  003404  C051  F07C         	movff	??_sqrtf+1,sqrtf@m
  5615  003408  C052  F07D         	movff	??_sqrtf+2,sqrtf@m+1
  5616  00340C  C053  F07E         	movff	??_sqrtf+3,sqrtf@m+2
  5617  003410  C054  F07F         	movff	??_sqrtf+4,sqrtf@m+3
  5618  003414  0100               	movlb	0	; () banked
  5619  003416  517C               	movf	sqrtf@m& (0+255),w,b
  5620  003418  117D               	iorwf	(sqrtf@m+1)& (0+255),w,b
  5621  00341A  117E               	iorwf	(sqrtf@m+2)& (0+255),w,b
  5622  00341C  117F               	iorwf	(sqrtf@m+3)& (0+255),w,b
  5623  00341E  A4D8               	btfss	status,2,c
  5624  003420  EF14  F01A         	goto	u2911
  5625  003424  EF16  F01A         	goto	u2910
  5626  003428                     u2911:
  5627  003428  EF46  F01A         	goto	l934
  5628  00342C                     u2910:
  5629  00342C                     
  5630                           ; BSR set to: 0
  5631  00342C  0E00               	movlw	0
  5632  00342E  6F68               	movwf	sqrtf@i& (0+255),b
  5633  003430  0E00               	movlw	0
  5634  003432  6F69               	movwf	(sqrtf@i+1)& (0+255),b
  5635  003434  0E00               	movlw	0
  5636  003436  6F6A               	movwf	(sqrtf@i+2)& (0+255),b
  5637  003438  0E00               	movlw	0
  5638  00343A  6F6B               	movwf	(sqrtf@i+3)& (0+255),b
  5639  00343C  EF2B  F01A         	goto	l2857
  5640  003440                     l2853:
  5641                           
  5642                           ; BSR set to: 0
  5643  003440  90D8               	bcf	status,0,c
  5644  003442  3784               	rlcf	sqrtf@ix& (0+255),f,b
  5645  003444  3785               	rlcf	(sqrtf@ix+1)& (0+255),f,b
  5646  003446  3786               	rlcf	(sqrtf@ix+2)& (0+255),f,b
  5647  003448  3787               	rlcf	(sqrtf@ix+3)& (0+255),f,b
  5648  00344A                     
  5649                           ; BSR set to: 0
  5650  00344A  0E01               	movlw	1
  5651  00344C  2768               	addwf	sqrtf@i& (0+255),f,b
  5652  00344E  0E00               	movlw	0
  5653  003450  2369               	addwfc	(sqrtf@i+1)& (0+255),f,b
  5654  003452  236A               	addwfc	(sqrtf@i+2)& (0+255),f,b
  5655  003454  236B               	addwfc	(sqrtf@i+3)& (0+255),f,b
  5656  003456                     l2857:
  5657                           
  5658                           ; BSR set to: 0
  5659  003456  AF86               	btfss	(sqrtf@ix+2)& (0+255),7,b
  5660  003458  EF30  F01A         	goto	u2921
  5661  00345C  EF32  F01A         	goto	u2920
  5662  003460                     u2921:
  5663  003460  EF20  F01A         	goto	l2853
  5664  003464                     u2920:
  5665  003464                     
  5666                           ; BSR set to: 0
  5667  003464  0EFF               	movlw	255
  5668  003466  2568               	addwf	sqrtf@i& (0+255),w,b
  5669  003468  6E50               	movwf	??_sqrtf^0,c
  5670  00346A  0EFF               	movlw	255
  5671  00346C  2169               	addwfc	(sqrtf@i+1)& (0+255),w,b
  5672  00346E  6E51               	movwf	(??_sqrtf+1)^0,c
  5673  003470  0EFF               	movlw	255
  5674  003472  216A               	addwfc	(sqrtf@i+2)& (0+255),w,b
  5675  003474  6E52               	movwf	(??_sqrtf+2)^0,c
  5676  003476  0EFF               	movlw	255
  5677  003478  216B               	addwfc	(sqrtf@i+3)& (0+255),w,b
  5678  00347A  6E53               	movwf	(??_sqrtf+3)^0,c
  5679  00347C  5050               	movf	??_sqrtf^0,w,c
  5680  00347E  5F7C               	subwf	sqrtf@m& (0+255),f,b
  5681  003480  5051               	movf	(??_sqrtf+1)^0,w,c
  5682  003482  5B7D               	subwfb	(sqrtf@m+1)& (0+255),f,b
  5683  003484  5052               	movf	(??_sqrtf+2)^0,w,c
  5684  003486  5B7E               	subwfb	(sqrtf@m+2)& (0+255),f,b
  5685  003488  5053               	movf	(??_sqrtf+3)^0,w,c
  5686  00348A  5B7F               	subwfb	(sqrtf@m+3)& (0+255),f,b
  5687  00348C                     l934:
  5688                           
  5689                           ; BSR set to: 0
  5690  00348C  0E81               	movlw	129
  5691  00348E  277C               	addwf	sqrtf@m& (0+255),f,b
  5692  003490  0EFF               	movlw	255
  5693  003492  237D               	addwfc	(sqrtf@m+1)& (0+255),f,b
  5694  003494  0EFF               	movlw	255
  5695  003496  237E               	addwfc	(sqrtf@m+2)& (0+255),f,b
  5696  003498  0EFF               	movlw	255
  5697  00349A  237F               	addwfc	(sqrtf@m+3)& (0+255),f,b
  5698  00349C  0EFF               	movlw	255
  5699  00349E  1584               	andwf	sqrtf@ix& (0+255),w,b
  5700  0034A0  6E50               	movwf	??_sqrtf^0,c
  5701  0034A2  0EFF               	movlw	255
  5702  0034A4  1585               	andwf	(sqrtf@ix+1)& (0+255),w,b
  5703  0034A6  6E51               	movwf	(??_sqrtf+1)^0,c
  5704  0034A8  0E7F               	movlw	127
  5705  0034AA  1586               	andwf	(sqrtf@ix+2)& (0+255),w,b
  5706  0034AC  6E52               	movwf	(??_sqrtf+2)^0,c
  5707  0034AE  0E00               	movlw	0
  5708  0034B0  1587               	andwf	(sqrtf@ix+3)& (0+255),w,b
  5709  0034B2  6E53               	movwf	(??_sqrtf+3)^0,c
  5710  0034B4  0E00               	movlw	0
  5711  0034B6  1050               	iorwf	??_sqrtf^0,w,c
  5712  0034B8  6F84               	movwf	sqrtf@ix& (0+255),b
  5713  0034BA  0E00               	movlw	0
  5714  0034BC  1051               	iorwf	(??_sqrtf+1)^0,w,c
  5715  0034BE  6F85               	movwf	(sqrtf@ix+1)& (0+255),b
  5716  0034C0  0E80               	movlw	128
  5717  0034C2  1052               	iorwf	(??_sqrtf+2)^0,w,c
  5718  0034C4  6F86               	movwf	(sqrtf@ix+2)& (0+255),b
  5719  0034C6  0E00               	movlw	0
  5720  0034C8  1053               	iorwf	(??_sqrtf+3)^0,w,c
  5721  0034CA  6F87               	movwf	(sqrtf@ix+3)& (0+255),b
  5722  0034CC                     
  5723                           ; BSR set to: 0
  5724  0034CC  A17C               	btfss	sqrtf@m& (0+255),0,b
  5725  0034CE  EF6B  F01A         	goto	u2931
  5726  0034D2  EF6D  F01A         	goto	u2930
  5727  0034D6                     u2931:
  5728  0034D6  EF75  F01A         	goto	l938
  5729  0034DA                     u2930:
  5730  0034DA                     
  5731                           ; BSR set to: 0
  5732  0034DA  5184               	movf	sqrtf@ix& (0+255),w,b
  5733  0034DC  2784               	addwf	sqrtf@ix& (0+255),f,b
  5734  0034DE  5185               	movf	(sqrtf@ix+1)& (0+255),w,b
  5735  0034E0  2385               	addwfc	(sqrtf@ix+1)& (0+255),f,b
  5736  0034E2  5186               	movf	(sqrtf@ix+2)& (0+255),w,b
  5737  0034E4  2386               	addwfc	(sqrtf@ix+2)& (0+255),f,b
  5738  0034E6  5187               	movf	(sqrtf@ix+3)& (0+255),w,b
  5739  0034E8  2387               	addwfc	(sqrtf@ix+3)& (0+255),f,b
  5740  0034EA                     l938:
  5741                           
  5742                           ; BSR set to: 0
  5743  0034EA  357F               	rlcf	(sqrtf@m+3)& (0+255),w,b
  5744  0034EC  337F               	rrcf	(sqrtf@m+3)& (0+255),f,b
  5745  0034EE  337E               	rrcf	(sqrtf@m+2)& (0+255),f,b
  5746  0034F0  337D               	rrcf	(sqrtf@m+1)& (0+255),f,b
  5747  0034F2  337C               	rrcf	sqrtf@m& (0+255),f,b
  5748  0034F4  5184               	movf	sqrtf@ix& (0+255),w,b
  5749  0034F6  2784               	addwf	sqrtf@ix& (0+255),f,b
  5750  0034F8  5185               	movf	(sqrtf@ix+1)& (0+255),w,b
  5751  0034FA  2385               	addwfc	(sqrtf@ix+1)& (0+255),f,b
  5752  0034FC  5186               	movf	(sqrtf@ix+2)& (0+255),w,b
  5753  0034FE  2386               	addwfc	(sqrtf@ix+2)& (0+255),f,b
  5754  003500  5187               	movf	(sqrtf@ix+3)& (0+255),w,b
  5755  003502  2387               	addwfc	(sqrtf@ix+3)& (0+255),f,b
  5756  003504                     
  5757                           ; BSR set to: 0
  5758  003504  0E00               	movlw	0
  5759  003506  6F64               	movwf	sqrtf@s& (0+255),b
  5760  003508  0E00               	movlw	0
  5761  00350A  6F65               	movwf	(sqrtf@s+1)& (0+255),b
  5762  00350C  0E00               	movlw	0
  5763  00350E  6F66               	movwf	(sqrtf@s+2)& (0+255),b
  5764  003510  0E00               	movlw	0
  5765  003512  6F67               	movwf	(sqrtf@s+3)& (0+255),b
  5766  003514  C064  F070         	movff	sqrtf@s,sqrtf@q
  5767  003518  C065  F071         	movff	sqrtf@s+1,sqrtf@q+1
  5768  00351C  C066  F072         	movff	sqrtf@s+2,sqrtf@q+2
  5769  003520  C067  F073         	movff	sqrtf@s+3,sqrtf@q+3
  5770  003524                     
  5771                           ; BSR set to: 0
  5772  003524  0E00               	movlw	0
  5773  003526  6F80               	movwf	sqrtf@r& (0+255),b
  5774  003528  0E00               	movlw	0
  5775  00352A  6F81               	movwf	(sqrtf@r+1)& (0+255),b
  5776  00352C  0E00               	movlw	0
  5777  00352E  6F82               	movwf	(sqrtf@r+2)& (0+255),b
  5778  003530  0E01               	movlw	1
  5779  003532  6F83               	movwf	(sqrtf@r+3)& (0+255),b
  5780  003534  EFE4  F01A         	goto	l2875
  5781  003538                     l2869:
  5782                           
  5783                           ; BSR set to: 0
  5784  003538  5180               	movf	sqrtf@r& (0+255),w,b
  5785  00353A  2564               	addwf	sqrtf@s& (0+255),w,b
  5786  00353C  6F74               	movwf	sqrtf@t& (0+255),b
  5787  00353E  5181               	movf	(sqrtf@r+1)& (0+255),w,b
  5788  003540  2165               	addwfc	(sqrtf@s+1)& (0+255),w,b
  5789  003542  6F75               	movwf	(sqrtf@t+1)& (0+255),b
  5790  003544  5182               	movf	(sqrtf@r+2)& (0+255),w,b
  5791  003546  2166               	addwfc	(sqrtf@s+2)& (0+255),w,b
  5792  003548  6F76               	movwf	(sqrtf@t+2)& (0+255),b
  5793  00354A  5183               	movf	(sqrtf@r+3)& (0+255),w,b
  5794  00354C  2167               	addwfc	(sqrtf@s+3)& (0+255),w,b
  5795  00354E  6F77               	movwf	(sqrtf@t+3)& (0+255),b
  5796  003550  5174               	movf	sqrtf@t& (0+255),w,b
  5797  003552  5D84               	subwf	sqrtf@ix& (0+255),w,b
  5798  003554  5175               	movf	(sqrtf@t+1)& (0+255),w,b
  5799  003556  5985               	subwfb	(sqrtf@ix+1)& (0+255),w,b
  5800  003558  5176               	movf	(sqrtf@t+2)& (0+255),w,b
  5801  00355A  5986               	subwfb	(sqrtf@ix+2)& (0+255),w,b
  5802  00355C  5187               	movf	(sqrtf@ix+3)& (0+255),w,b
  5803  00355E  0A80               	xorlw	128
  5804  003560  6E50               	movwf	??_sqrtf^0,c
  5805  003562  5177               	movf	(sqrtf@t+3)& (0+255),w,b
  5806  003564  0A80               	xorlw	128
  5807  003566  5850               	subwfb	??_sqrtf^0,w,c
  5808  003568  A0D8               	btfss	status,0,c
  5809  00356A  EFB9  F01A         	goto	u2941
  5810  00356E  EFBB  F01A         	goto	u2940
  5811  003572                     u2941:
  5812  003572  EFD7  F01A         	goto	l941
  5813  003576                     u2940:
  5814  003576                     
  5815                           ; BSR set to: 0
  5816  003576  5180               	movf	sqrtf@r& (0+255),w,b
  5817  003578  2574               	addwf	sqrtf@t& (0+255),w,b
  5818  00357A  6F64               	movwf	sqrtf@s& (0+255),b
  5819  00357C  5181               	movf	(sqrtf@r+1)& (0+255),w,b
  5820  00357E  2175               	addwfc	(sqrtf@t+1)& (0+255),w,b
  5821  003580  6F65               	movwf	(sqrtf@s+1)& (0+255),b
  5822  003582  5182               	movf	(sqrtf@r+2)& (0+255),w,b
  5823  003584  2176               	addwfc	(sqrtf@t+2)& (0+255),w,b
  5824  003586  6F66               	movwf	(sqrtf@s+2)& (0+255),b
  5825  003588  5183               	movf	(sqrtf@r+3)& (0+255),w,b
  5826  00358A  2177               	addwfc	(sqrtf@t+3)& (0+255),w,b
  5827  00358C  6F67               	movwf	(sqrtf@s+3)& (0+255),b
  5828  00358E  5174               	movf	sqrtf@t& (0+255),w,b
  5829  003590  5F84               	subwf	sqrtf@ix& (0+255),f,b
  5830  003592  5175               	movf	(sqrtf@t+1)& (0+255),w,b
  5831  003594  5B85               	subwfb	(sqrtf@ix+1)& (0+255),f,b
  5832  003596  5176               	movf	(sqrtf@t+2)& (0+255),w,b
  5833  003598  5B86               	subwfb	(sqrtf@ix+2)& (0+255),f,b
  5834  00359A  5177               	movf	(sqrtf@t+3)& (0+255),w,b
  5835  00359C  5B87               	subwfb	(sqrtf@ix+3)& (0+255),f,b
  5836  00359E  5180               	movf	sqrtf@r& (0+255),w,b
  5837  0035A0  2770               	addwf	sqrtf@q& (0+255),f,b
  5838  0035A2  5181               	movf	(sqrtf@r+1)& (0+255),w,b
  5839  0035A4  2371               	addwfc	(sqrtf@q+1)& (0+255),f,b
  5840  0035A6  5182               	movf	(sqrtf@r+2)& (0+255),w,b
  5841  0035A8  2372               	addwfc	(sqrtf@q+2)& (0+255),f,b
  5842  0035AA  5183               	movf	(sqrtf@r+3)& (0+255),w,b
  5843  0035AC  2373               	addwfc	(sqrtf@q+3)& (0+255),f,b
  5844  0035AE                     l941:
  5845                           
  5846                           ; BSR set to: 0
  5847  0035AE  5184               	movf	sqrtf@ix& (0+255),w,b
  5848  0035B0  2784               	addwf	sqrtf@ix& (0+255),f,b
  5849  0035B2  5185               	movf	(sqrtf@ix+1)& (0+255),w,b
  5850  0035B4  2385               	addwfc	(sqrtf@ix+1)& (0+255),f,b
  5851  0035B6  5186               	movf	(sqrtf@ix+2)& (0+255),w,b
  5852  0035B8  2386               	addwfc	(sqrtf@ix+2)& (0+255),f,b
  5853  0035BA  5187               	movf	(sqrtf@ix+3)& (0+255),w,b
  5854  0035BC  2387               	addwfc	(sqrtf@ix+3)& (0+255),f,b
  5855  0035BE                     
  5856                           ; BSR set to: 0
  5857  0035BE  90D8               	bcf	status,0,c
  5858  0035C0  3383               	rrcf	(sqrtf@r+3)& (0+255),f,b
  5859  0035C2  3382               	rrcf	(sqrtf@r+2)& (0+255),f,b
  5860  0035C4  3381               	rrcf	(sqrtf@r+1)& (0+255),f,b
  5861  0035C6  3380               	rrcf	sqrtf@r& (0+255),f,b
  5862  0035C8                     l2875:
  5863                           
  5864                           ; BSR set to: 0
  5865  0035C8  5180               	movf	sqrtf@r& (0+255),w,b
  5866  0035CA  1181               	iorwf	(sqrtf@r+1)& (0+255),w,b
  5867  0035CC  1182               	iorwf	(sqrtf@r+2)& (0+255),w,b
  5868  0035CE  1183               	iorwf	(sqrtf@r+3)& (0+255),w,b
  5869  0035D0  A4D8               	btfss	status,2,c
  5870  0035D2  EFED  F01A         	goto	u2951
  5871  0035D6  EFEF  F01A         	goto	u2950
  5872  0035DA                     u2951:
  5873  0035DA  EF9C  F01A         	goto	l2869
  5874  0035DE                     u2950:
  5875  0035DE                     
  5876                           ; BSR set to: 0
  5877  0035DE  5184               	movf	sqrtf@ix& (0+255),w,b
  5878  0035E0  1185               	iorwf	(sqrtf@ix+1)& (0+255),w,b
  5879  0035E2  1186               	iorwf	(sqrtf@ix+2)& (0+255),w,b
  5880  0035E4  1187               	iorwf	(sqrtf@ix+3)& (0+255),w,b
  5881  0035E6  B4D8               	btfsc	status,2,c
  5882  0035E8  EFF8  F01A         	goto	u2961
  5883  0035EC  EFFA  F01A         	goto	u2960
  5884  0035F0                     u2961:
  5885  0035F0  EF5B  F01B         	goto	l943
  5886  0035F4                     u2960:
  5887  0035F4                     
  5888                           ; BSR set to: 0
  5889  0035F4  0E00               	movlw	0
  5890  0035F6  6F78               	movwf	sqrtf@z& (0+255),b
  5891  0035F8  0E00               	movlw	0
  5892  0035FA  6F79               	movwf	(sqrtf@z+1)& (0+255),b
  5893  0035FC  0E80               	movlw	128
  5894  0035FE  6F7A               	movwf	(sqrtf@z+2)& (0+255),b
  5895  003600  0E3F               	movlw	63
  5896  003602  6F7B               	movwf	(sqrtf@z+3)& (0+255),b
  5897  003604                     
  5898                           ; BSR set to: 0
  5899  003604  C078  F040         	movff	sqrtf@z,___flge@ff1
  5900  003608  C079  F041         	movff	sqrtf@z+1,___flge@ff1+1
  5901  00360C  C07A  F042         	movff	sqrtf@z+2,___flge@ff1+2
  5902  003610  C07B  F043         	movff	sqrtf@z+3,___flge@ff1+3
  5903  003614  0E00               	movlw	0
  5904  003616  6E44               	movwf	___flge@ff2^0,c
  5905  003618  0E00               	movlw	0
  5906  00361A  6E45               	movwf	(___flge@ff2+1)^0,c
  5907  00361C  0E80               	movlw	128
  5908  00361E  6E46               	movwf	(___flge@ff2+2)^0,c
  5909  003620  0E3F               	movlw	63
  5910  003622  6E47               	movwf	(___flge@ff2+3)^0,c
  5911  003624  EC8D  F026         	call	___flge	;wreg free
  5912  003628  A0D8               	btfss	status,0,c
  5913  00362A  EF19  F01B         	goto	u2971
  5914  00362E  EF1B  F01B         	goto	u2970
  5915  003632                     u2971:
  5916  003632  EF5B  F01B         	goto	l943
  5917  003636                     u2970:
  5918  003636  0E00               	movlw	0
  5919  003638  0100               	movlb	0	; () banked
  5920  00363A  6F78               	movwf	sqrtf@z& (0+255),b
  5921  00363C  0E00               	movlw	0
  5922  00363E  6F79               	movwf	(sqrtf@z+1)& (0+255),b
  5923  003640  0E80               	movlw	128
  5924  003642  6F7A               	movwf	(sqrtf@z+2)& (0+255),b
  5925  003644  0E3F               	movlw	63
  5926  003646  6F7B               	movwf	(sqrtf@z+3)& (0+255),b
  5927  003648                     
  5928                           ; BSR set to: 0
  5929  003648  0E00               	movlw	0
  5930  00364A  6E40               	movwf	___flge@ff1^0,c
  5931  00364C  0E00               	movlw	0
  5932  00364E  6E41               	movwf	(___flge@ff1+1)^0,c
  5933  003650  0E80               	movlw	128
  5934  003652  6E42               	movwf	(___flge@ff1+2)^0,c
  5935  003654  0E3F               	movlw	63
  5936  003656  6E43               	movwf	(___flge@ff1+3)^0,c
  5937  003658  C078  F044         	movff	sqrtf@z,___flge@ff2
  5938  00365C  C079  F045         	movff	sqrtf@z+1,___flge@ff2+1
  5939  003660  C07A  F046         	movff	sqrtf@z+2,___flge@ff2+2
  5940  003664  C07B  F047         	movff	sqrtf@z+3,___flge@ff2+3
  5941  003668  EC8D  F026         	call	___flge	;wreg free
  5942  00366C  B0D8               	btfsc	status,0,c
  5943  00366E  EF3B  F01B         	goto	u2981
  5944  003672  EF3D  F01B         	goto	u2980
  5945  003676                     u2981:
  5946  003676  EF46  F01B         	goto	l2889
  5947  00367A                     u2980:
  5948  00367A  0E02               	movlw	2
  5949  00367C  0100               	movlb	0	; () banked
  5950  00367E  2770               	addwf	sqrtf@q& (0+255),f,b
  5951  003680  0E00               	movlw	0
  5952  003682  2371               	addwfc	(sqrtf@q+1)& (0+255),f,b
  5953  003684  2372               	addwfc	(sqrtf@q+2)& (0+255),f,b
  5954  003686  2373               	addwfc	(sqrtf@q+3)& (0+255),f,b
  5955  003688  EF5B  F01B         	goto	l943
  5956  00368C                     l2889:
  5957  00368C  0E01               	movlw	1
  5958  00368E  0100               	movlb	0	; () banked
  5959  003690  1570               	andwf	sqrtf@q& (0+255),w,b
  5960  003692  6E50               	movwf	??_sqrtf^0,c
  5961  003694  0E00               	movlw	0
  5962  003696  1571               	andwf	(sqrtf@q+1)& (0+255),w,b
  5963  003698  6E51               	movwf	(??_sqrtf+1)^0,c
  5964  00369A  0E00               	movlw	0
  5965  00369C  1572               	andwf	(sqrtf@q+2)& (0+255),w,b
  5966  00369E  6E52               	movwf	(??_sqrtf+2)^0,c
  5967  0036A0  0E00               	movlw	0
  5968  0036A2  1573               	andwf	(sqrtf@q+3)& (0+255),w,b
  5969  0036A4  6E53               	movwf	(??_sqrtf+3)^0,c
  5970  0036A6  5050               	movf	??_sqrtf^0,w,c
  5971  0036A8  2770               	addwf	sqrtf@q& (0+255),f,b
  5972  0036AA  5051               	movf	(??_sqrtf+1)^0,w,c
  5973  0036AC  2371               	addwfc	(sqrtf@q+1)& (0+255),f,b
  5974  0036AE  5052               	movf	(??_sqrtf+2)^0,w,c
  5975  0036B0  2372               	addwfc	(sqrtf@q+2)& (0+255),f,b
  5976  0036B2  5053               	movf	(??_sqrtf+3)^0,w,c
  5977  0036B4  2373               	addwfc	(sqrtf@q+3)& (0+255),f,b
  5978  0036B6                     l943:
  5979  0036B6  C070  F050         	movff	sqrtf@q,??_sqrtf
  5980  0036BA  C071  F051         	movff	sqrtf@q+1,??_sqrtf+1
  5981  0036BE  C072  F052         	movff	sqrtf@q+2,??_sqrtf+2
  5982  0036C2  C073  F053         	movff	sqrtf@q+3,??_sqrtf+3
  5983  0036C6  3453               	rlcf	(??_sqrtf+3)^0,w,c
  5984  0036C8  3253               	rrcf	(??_sqrtf+3)^0,f,c
  5985  0036CA  3252               	rrcf	(??_sqrtf+2)^0,f,c
  5986  0036CC  3251               	rrcf	(??_sqrtf+1)^0,f,c
  5987  0036CE  3250               	rrcf	??_sqrtf^0,f,c
  5988  0036D0  0E00               	movlw	0
  5989  0036D2  2450               	addwf	??_sqrtf^0,w,c
  5990  0036D4  0100               	movlb	0	; () banked
  5991  0036D6  6F84               	movwf	sqrtf@ix& (0+255),b
  5992  0036D8  0E00               	movlw	0
  5993  0036DA  2051               	addwfc	(??_sqrtf+1)^0,w,c
  5994  0036DC  6F85               	movwf	(sqrtf@ix+1)& (0+255),b
  5995  0036DE  0E00               	movlw	0
  5996  0036E0  2052               	addwfc	(??_sqrtf+2)^0,w,c
  5997  0036E2  6F86               	movwf	(sqrtf@ix+2)& (0+255),b
  5998  0036E4  0E3F               	movlw	63
  5999  0036E6  2053               	addwfc	(??_sqrtf+3)^0,w,c
  6000  0036E8  6F87               	movwf	(sqrtf@ix+3)& (0+255),b
  6001  0036EA  C07C  F050         	movff	sqrtf@m,??_sqrtf
  6002  0036EE  C07D  F051         	movff	sqrtf@m+1,??_sqrtf+1
  6003  0036F2  C07E  F052         	movff	sqrtf@m+2,??_sqrtf+2
  6004  0036F6  C07F  F053         	movff	sqrtf@m+3,??_sqrtf+3
  6005  0036FA  0E17               	movlw	23
  6006  0036FC                     u2995:
  6007  0036FC  90D8               	bcf	status,0,c
  6008  0036FE  3650               	rlcf	??_sqrtf^0,f,c
  6009  003700  3651               	rlcf	(??_sqrtf+1)^0,f,c
  6010  003702  3652               	rlcf	(??_sqrtf+2)^0,f,c
  6011  003704  3653               	rlcf	(??_sqrtf+3)^0,f,c
  6012  003706  2EE8               	decfsz	wreg,f,c
  6013  003708  EF7E  F01B         	goto	u2995
  6014  00370C  5050               	movf	??_sqrtf^0,w,c
  6015  00370E  2784               	addwf	sqrtf@ix& (0+255),f,b
  6016  003710  5051               	movf	(??_sqrtf+1)^0,w,c
  6017  003712  2385               	addwfc	(sqrtf@ix+1)& (0+255),f,b
  6018  003714  5052               	movf	(??_sqrtf+2)^0,w,c
  6019  003716  2386               	addwfc	(sqrtf@ix+2)& (0+255),f,b
  6020  003718  5053               	movf	(??_sqrtf+3)^0,w,c
  6021  00371A  2387               	addwfc	(sqrtf@ix+3)& (0+255),f,b
  6022  00371C                     
  6023                           ; BSR set to: 0
  6024  00371C  C084  F06C         	movff	sqrtf@ix,sqrtf@__xc8_float_word
  6025  003720  C085  F06D         	movff	sqrtf@ix+1,sqrtf@__xc8_float_word+1
  6026  003724  C086  F06E         	movff	sqrtf@ix+2,sqrtf@__xc8_float_word+2
  6027  003728  C087  F06F         	movff	sqrtf@ix+3,sqrtf@__xc8_float_word+3
  6028  00372C                     
  6029                           ; BSR set to: 0
  6030  00372C  C06C  F078         	movff	sqrtf@__xc8_float_word,sqrtf@z
  6031  003730  C06D  F079         	movff	sqrtf@__xc8_float_word+1,sqrtf@z+1
  6032  003734  C06E  F07A         	movff	sqrtf@__xc8_float_word+2,sqrtf@z+2
  6033  003738  C06F  F07B         	movff	sqrtf@__xc8_float_word+3,sqrtf@z+3
  6034  00373C                     
  6035                           ; BSR set to: 0
  6036  00373C  C078  F04C         	movff	sqrtf@z,?_sqrtf
  6037  003740  C079  F04D         	movff	sqrtf@z+1,?_sqrtf+1
  6038  003744  C07A  F04E         	movff	sqrtf@z+2,?_sqrtf+2
  6039  003748  C07B  F04F         	movff	sqrtf@z+3,?_sqrtf+3
  6040  00374C                     l930:
  6041  00374C  0012               	return		;funcret
  6042  00374E                     __end_of_sqrtf:
  6043                           	callstack 0
  6044                           
  6045 ;; *************** function _nanf *****************
  6046 ;; Defined at:
  6047 ;;		line 4 in file "C:\Program Files\Microchip\xc8\v2.20\pic\sources\c99\common\nanf.c"
  6048 ;; Parameters:    Size  Location     Type
  6049 ;;  s               2    0[COMRAM] PTR const unsigned char 
  6050 ;;		 -> STR_1(1), 
  6051 ;; Auto vars:     Size  Location     Type
  6052 ;;  u               4    4[COMRAM] struct .
  6053 ;; Return value:  Size  Location     Type
  6054 ;;                  4    0[COMRAM] float 
  6055 ;; Registers used:
  6056 ;;		wreg, status,2
  6057 ;; Tracked objects:
  6058 ;;		On entry : 0/0
  6059 ;;		On exit  : 0/0
  6060 ;;		Unchanged: 0/0
  6061 ;; Data sizes:     COMRAM   BANK0   BANK1   BANK2   BANK3   BANK4   BANK5   BANK6   BANK7
  6062 ;;      Params:         4       0       0       0       0       0       0       0       0
  6063 ;;      Locals:         4       0       0       0       0       0       0       0       0
  6064 ;;      Temps:          0       0       0       0       0       0       0       0       0
  6065 ;;      Totals:         8       0       0       0       0       0       0       0       0
  6066 ;;Total ram usage:        8 bytes
  6067 ;; Hardware stack levels used:    1
  6068 ;; This function calls:
  6069 ;;		Nothing
  6070 ;; This function is called by:
  6071 ;;		_sqrtf
  6072 ;; This function uses a non-reentrant model
  6073 ;;
  6074                           
  6075                           	psect	text3
  6076  004ED0                     __ptext3:
  6077                           	callstack 0
  6078  004ED0                     _nanf:
  6079                           	callstack 28
  6080  004ED0  0EFF               	movlw	255
  6081  004ED2  6E05               	movwf	nanf@u^0,c
  6082  004ED4  0EFF               	movlw	255
  6083  004ED6  6E06               	movwf	(nanf@u+1)^0,c
  6084  004ED8  0EFF               	movlw	255
  6085  004EDA  6E07               	movwf	(nanf@u+2)^0,c
  6086  004EDC  0E7F               	movlw	127
  6087  004EDE  6E08               	movwf	(nanf@u+3)^0,c
  6088  004EE0  C005  F001         	movff	nanf@u,?_nanf
  6089  004EE4  C006  F002         	movff	nanf@u+1,?_nanf+1
  6090  004EE8  C007  F003         	movff	nanf@u+2,?_nanf+2
  6091  004EEC  C008  F004         	movff	nanf@u+3,?_nanf+3
  6092  004EF0  0012               	return		;funcret
  6093  004EF2                     __end_of_nanf:
  6094                           	callstack 0
  6095                           
  6096 ;; *************** function ___flge *****************
  6097 ;; Defined at:
  6098 ;;		line 4 in file "C:\Program Files\Microchip\xc8\v2.20\pic\sources\c99\common\flge.c"
  6099 ;; Parameters:    Size  Location     Type
  6100 ;;  ff1             4   63[COMRAM] float 
  6101 ;;  ff2             4   67[COMRAM] float 
  6102 ;; Auto vars:     Size  Location     Type
  6103 ;;		None
  6104 ;; Return value:  Size  Location     Type
  6105 ;;		None               void
  6106 ;; Registers used:
  6107 ;;		wreg, status,2, status,0
  6108 ;; Tracked objects:
  6109 ;;		On entry : 0/0
  6110 ;;		On exit  : 0/0
  6111 ;;		Unchanged: 0/0
  6112 ;; Data sizes:     COMRAM   BANK0   BANK1   BANK2   BANK3   BANK4   BANK5   BANK6   BANK7
  6113 ;;      Params:         8       0       0       0       0       0       0       0       0
  6114 ;;      Locals:         0       0       0       0       0       0       0       0       0
  6115 ;;      Temps:          4       0       0       0       0       0       0       0       0
  6116 ;;      Totals:        12       0       0       0       0       0       0       0       0
  6117 ;;Total ram usage:       12 bytes
  6118 ;; Hardware stack levels used:    1
  6119 ;; This function calls:
  6120 ;;		Nothing
  6121 ;; This function is called by:
  6122 ;;		_powf
  6123 ;;		_sqrtf
  6124 ;; This function uses a non-reentrant model
  6125 ;;
  6126                           
  6127                           	psect	text4
  6128  004D1A                     __ptext4:
  6129                           	callstack 0
  6130  004D1A                     ___flge:
  6131                           	callstack 28
  6132  004D1A  0E00               	movlw	0
  6133  004D1C  1440               	andwf	___flge@ff1^0,w,c
  6134  004D1E  6E48               	movwf	??___flge^0,c
  6135  004D20  0E00               	movlw	0
  6136  004D22  1441               	andwf	(___flge@ff1+1)^0,w,c
  6137  004D24  6E49               	movwf	(??___flge+1)^0,c
  6138  004D26  0E80               	movlw	128
  6139  004D28  1442               	andwf	(___flge@ff1+2)^0,w,c
  6140  004D2A  6E4A               	movwf	(??___flge+2)^0,c
  6141  004D2C  0E7F               	movlw	127
  6142  004D2E  1443               	andwf	(___flge@ff1+3)^0,w,c
  6143  004D30  6E4B               	movwf	(??___flge+3)^0,c
  6144  004D32  5048               	movf	??___flge^0,w,c
  6145  004D34  1049               	iorwf	(??___flge+1)^0,w,c
  6146  004D36  104A               	iorwf	(??___flge+2)^0,w,c
  6147  004D38  104B               	iorwf	(??___flge+3)^0,w,c
  6148  004D3A  A4D8               	btfss	status,2,c
  6149  004D3C  EFA2  F026         	goto	u2471
  6150  004D40  EFA4  F026         	goto	u2470
  6151  004D44                     u2471:
  6152  004D44  EFAC  F026         	goto	l2601
  6153  004D48                     u2470:
  6154  004D48  0E00               	movlw	0
  6155  004D4A  6E40               	movwf	___flge@ff1^0,c
  6156  004D4C  0E00               	movlw	0
  6157  004D4E  6E41               	movwf	(___flge@ff1+1)^0,c
  6158  004D50  0E00               	movlw	0
  6159  004D52  6E42               	movwf	(___flge@ff1+2)^0,c
  6160  004D54  0E00               	movlw	0
  6161  004D56  6E43               	movwf	(___flge@ff1+3)^0,c
  6162  004D58                     l2601:
  6163  004D58  0E00               	movlw	0
  6164  004D5A  1444               	andwf	___flge@ff2^0,w,c
  6165  004D5C  6E48               	movwf	??___flge^0,c
  6166  004D5E  0E00               	movlw	0
  6167  004D60  1445               	andwf	(___flge@ff2+1)^0,w,c
  6168  004D62  6E49               	movwf	(??___flge+1)^0,c
  6169  004D64  0E80               	movlw	128
  6170  004D66  1446               	andwf	(___flge@ff2+2)^0,w,c
  6171  004D68  6E4A               	movwf	(??___flge+2)^0,c
  6172  004D6A  0E7F               	movlw	127
  6173  004D6C  1447               	andwf	(___flge@ff2+3)^0,w,c
  6174  004D6E  6E4B               	movwf	(??___flge+3)^0,c
  6175  004D70  5048               	movf	??___flge^0,w,c
  6176  004D72  1049               	iorwf	(??___flge+1)^0,w,c
  6177  004D74  104A               	iorwf	(??___flge+2)^0,w,c
  6178  004D76  104B               	iorwf	(??___flge+3)^0,w,c
  6179  004D78  A4D8               	btfss	status,2,c
  6180  004D7A  EFC1  F026         	goto	u2481
  6181  004D7E  EFC3  F026         	goto	u2480
  6182  004D82                     u2481:
  6183  004D82  EFCB  F026         	goto	l2605
  6184  004D86                     u2480:
  6185  004D86  0E00               	movlw	0
  6186  004D88  6E44               	movwf	___flge@ff2^0,c
  6187  004D8A  0E00               	movlw	0
  6188  004D8C  6E45               	movwf	(___flge@ff2+1)^0,c
  6189  004D8E  0E00               	movlw	0
  6190  004D90  6E46               	movwf	(___flge@ff2+2)^0,c
  6191  004D92  0E00               	movlw	0
  6192  004D94  6E47               	movwf	(___flge@ff2+3)^0,c
  6193  004D96                     l2605:
  6194  004D96  AE43               	btfss	(___flge@ff1+3)^0,7,c
  6195  004D98  EFD0  F026         	goto	u2491
  6196  004D9C  EFD2  F026         	goto	u2490
  6197  004DA0                     u2491:
  6198  004DA0  EFDB  F026         	goto	l2609
  6199  004DA4                     u2490:
  6200  004DA4  6C40               	negf	___flge@ff1^0,c
  6201  004DA6  1E41               	comf	(___flge@ff1+1)^0,f,c
  6202  004DA8  B0D8               	btfsc	status,0,c
  6203  004DAA  2A41               	incf	(___flge@ff1+1)^0,f,c
  6204  004DAC  1E42               	comf	(___flge@ff1+2)^0,f,c
  6205  004DAE  B0D8               	btfsc	status,0,c
  6206  004DB0  2A42               	incf	(___flge@ff1+2)^0,f,c
  6207  004DB2  0E80               	movlw	128
  6208  004DB4  5643               	subfwb	(___flge@ff1+3)^0,f,c
  6209  004DB6                     l2609:
  6210  004DB6  AE47               	btfss	(___flge@ff2+3)^0,7,c
  6211  004DB8  EFE0  F026         	goto	u2501
  6212  004DBC  EFE2  F026         	goto	u2500
  6213  004DC0                     u2501:
  6214  004DC0  EFEB  F026         	goto	l316
  6215  004DC4                     u2500:
  6216  004DC4  6C44               	negf	___flge@ff2^0,c
  6217  004DC6  1E45               	comf	(___flge@ff2+1)^0,f,c
  6218  004DC8  B0D8               	btfsc	status,0,c
  6219  004DCA  2A45               	incf	(___flge@ff2+1)^0,f,c
  6220  004DCC  1E46               	comf	(___flge@ff2+2)^0,f,c
  6221  004DCE  B0D8               	btfsc	status,0,c
  6222  004DD0  2A46               	incf	(___flge@ff2+2)^0,f,c
  6223  004DD2  0E80               	movlw	128
  6224  004DD4  5647               	subfwb	(___flge@ff2+3)^0,f,c
  6225  004DD6                     l316:
  6226  004DD6  0E00               	movlw	0
  6227  004DD8  1A40               	xorwf	___flge@ff1^0,f,c
  6228  004DDA  0E00               	movlw	0
  6229  004DDC  1A41               	xorwf	(___flge@ff1+1)^0,f,c
  6230  004DDE  0E00               	movlw	0
  6231  004DE0  1A42               	xorwf	(___flge@ff1+2)^0,f,c
  6232  004DE2  0E80               	movlw	128
  6233  004DE4  1A43               	xorwf	(___flge@ff1+3)^0,f,c
  6234  004DE6  0E00               	movlw	0
  6235  004DE8  1A44               	xorwf	___flge@ff2^0,f,c
  6236  004DEA  0E00               	movlw	0
  6237  004DEC  1A45               	xorwf	(___flge@ff2+1)^0,f,c
  6238  004DEE  0E00               	movlw	0
  6239  004DF0  1A46               	xorwf	(___flge@ff2+2)^0,f,c
  6240  004DF2  0E80               	movlw	128
  6241  004DF4  1A47               	xorwf	(___flge@ff2+3)^0,f,c
  6242  004DF6  5044               	movf	___flge@ff2^0,w,c
  6243  004DF8  5C40               	subwf	___flge@ff1^0,w,c
  6244  004DFA  5045               	movf	(___flge@ff2+1)^0,w,c
  6245  004DFC  5841               	subwfb	(___flge@ff1+1)^0,w,c
  6246  004DFE  5046               	movf	(___flge@ff2+2)^0,w,c
  6247  004E00  5842               	subwfb	(___flge@ff1+2)^0,w,c
  6248  004E02  5047               	movf	(___flge@ff2+3)^0,w,c
  6249  004E04  5843               	subwfb	(___flge@ff1+3)^0,w,c
  6250  004E06  B0D8               	btfsc	status,0,c
  6251  004E08  EF08  F027         	goto	u2511
  6252  004E0C  EF0A  F027         	goto	u2510
  6253  004E10                     u2511:
  6254  004E10  EF0D  F027         	goto	l2615
  6255  004E14                     u2510:
  6256  004E14  90D8               	bcf	status,0,c
  6257  004E16  EF0E  F027         	goto	l321
  6258  004E1A                     l2615:
  6259  004E1A  80D8               	bsf	status,0,c
  6260  004E1C                     l321:
  6261  004E1C  0012               	return		;funcret
  6262  004E1E                     __end_of___flge:
  6263                           	callstack 0
  6264                           
  6265 ;; *************** function _scalbnf *****************
  6266 ;; Defined at:
  6267 ;;		line 4 in file "C:\Program Files\Microchip\xc8\v2.20\pic\sources\c99\common\scalbnf.c"
  6268 ;; Parameters:    Size  Location     Type
  6269 ;;  x               4   55[COMRAM] float 
  6270 ;;  n               2   59[COMRAM] int 
  6271 ;; Auto vars:     Size  Location     Type
  6272 ;;  y               4   69[COMRAM] float 
  6273 ;;  u               4   65[COMRAM] struct .
  6274 ;; Return value:  Size  Location     Type
  6275 ;;                  4   55[COMRAM] float 
  6276 ;; Registers used:
  6277 ;;		wreg, status,2, status,0, prodl, prodh, cstack
  6278 ;; Tracked objects:
  6279 ;;		On entry : 0/0
  6280 ;;		On exit  : 0/0
  6281 ;;		Unchanged: 0/0
  6282 ;; Data sizes:     COMRAM   BANK0   BANK1   BANK2   BANK3   BANK4   BANK5   BANK6   BANK7
  6283 ;;      Params:         6       0       0       0       0       0       0       0       0
  6284 ;;      Locals:         8       0       0       0       0       0       0       0       0
  6285 ;;      Temps:          4       0       0       0       0       0       0       0       0
  6286 ;;      Totals:        18       0       0       0       0       0       0       0       0
  6287 ;;Total ram usage:       18 bytes
  6288 ;; Hardware stack levels used:    1
  6289 ;; Hardware stack levels required when called:    1
  6290 ;; This function calls:
  6291 ;;		___flmul
  6292 ;; This function is called by:
  6293 ;;		_powf
  6294 ;; This function uses a non-reentrant model
  6295 ;;
  6296                           
  6297                           	psect	text5
  6298  00482A                     __ptext5:
  6299                           	callstack 0
  6300  00482A                     _scalbnf:
  6301                           	callstack 28
  6302  00482A  C038  F046         	movff	scalbnf@x,scalbnf@y
  6303  00482E  C039  F047         	movff	scalbnf@x+1,scalbnf@y+1
  6304  004832  C03A  F048         	movff	scalbnf@x+2,scalbnf@y+2
  6305  004836  C03B  F049         	movff	scalbnf@x+3,scalbnf@y+3
  6306  00483A  BE3D               	btfsc	(scalbnf@n+1)^0,7,c
  6307  00483C  EF29  F024         	goto	u3001
  6308  004840  503D               	movf	(scalbnf@n+1)^0,w,c
  6309  004842  E109               	bnz	u3000
  6310  004844  0E80               	movlw	128
  6311  004846  5C3C               	subwf	scalbnf@n^0,w,c
  6312  004848  A0D8               	btfss	status,0,c
  6313  00484A  EF29  F024         	goto	u3001
  6314  00484E  EF2B  F024         	goto	u3000
  6315  004852                     u3001:
  6316  004852  EF89  F024         	goto	l2925
  6317  004856                     u3000:
  6318  004856  C046  F01F         	movff	scalbnf@y,___flmul@b
  6319  00485A  C047  F020         	movff	scalbnf@y+1,___flmul@b+1
  6320  00485E  C048  F021         	movff	scalbnf@y+2,___flmul@b+2
  6321  004862  C049  F022         	movff	scalbnf@y+3,___flmul@b+3
  6322  004866  0E00               	movlw	0
  6323  004868  6E23               	movwf	___flmul@a^0,c
  6324  00486A  0E00               	movlw	0
  6325  00486C  6E24               	movwf	(___flmul@a+1)^0,c
  6326  00486E  0E00               	movlw	0
  6327  004870  6E25               	movwf	(___flmul@a+2)^0,c
  6328  004872  0E7F               	movlw	127
  6329  004874  6E26               	movwf	(___flmul@a+3)^0,c
  6330  004876  EC33  F020         	call	___flmul	;wreg free
  6331  00487A  C01F  F046         	movff	?___flmul,scalbnf@y
  6332  00487E  C020  F047         	movff	?___flmul+1,scalbnf@y+1
  6333  004882  C021  F048         	movff	?___flmul+2,scalbnf@y+2
  6334  004886  C022  F049         	movff	?___flmul+3,scalbnf@y+3
  6335  00488A  0E81               	movlw	129
  6336  00488C  263C               	addwf	scalbnf@n^0,f,c
  6337  00488E  0EFF               	movlw	255
  6338  004890  223D               	addwfc	(scalbnf@n+1)^0,f,c
  6339  004892  BE3D               	btfsc	(scalbnf@n+1)^0,7,c
  6340  004894  EF55  F024         	goto	u3011
  6341  004898  503D               	movf	(scalbnf@n+1)^0,w,c
  6342  00489A  E109               	bnz	u3010
  6343  00489C  0E80               	movlw	128
  6344  00489E  5C3C               	subwf	scalbnf@n^0,w,c
  6345  0048A0  A0D8               	btfss	status,0,c
  6346  0048A2  EF55  F024         	goto	u3011
  6347  0048A6  EF57  F024         	goto	u3010
  6348  0048AA                     u3011:
  6349  0048AA  EFF3  F024         	goto	l2941
  6350  0048AE                     u3010:
  6351  0048AE  C046  F01F         	movff	scalbnf@y,___flmul@b
  6352  0048B2  C047  F020         	movff	scalbnf@y+1,___flmul@b+1
  6353  0048B6  C048  F021         	movff	scalbnf@y+2,___flmul@b+2
  6354  0048BA  C049  F022         	movff	scalbnf@y+3,___flmul@b+3
  6355  0048BE  0E00               	movlw	0
  6356  0048C0  6E23               	movwf	___flmul@a^0,c
  6357  0048C2  0E00               	movlw	0
  6358  0048C4  6E24               	movwf	(___flmul@a+1)^0,c
  6359  0048C6  0E00               	movlw	0
  6360  0048C8  6E25               	movwf	(___flmul@a+2)^0,c
  6361  0048CA  0E7F               	movlw	127
  6362  0048CC  6E26               	movwf	(___flmul@a+3)^0,c
  6363  0048CE  EC33  F020         	call	___flmul	;wreg free
  6364  0048D2  C01F  F046         	movff	?___flmul,scalbnf@y
  6365  0048D6  C020  F047         	movff	?___flmul+1,scalbnf@y+1
  6366  0048DA  C021  F048         	movff	?___flmul+2,scalbnf@y+2
  6367  0048DE  C022  F049         	movff	?___flmul+3,scalbnf@y+3
  6368  0048E2  0E81               	movlw	129
  6369  0048E4  263C               	addwf	scalbnf@n^0,f,c
  6370  0048E6  0EFF               	movlw	255
  6371  0048E8  223D               	addwfc	(scalbnf@n+1)^0,f,c
  6372  0048EA  BE3D               	btfsc	(scalbnf@n+1)^0,7,c
  6373  0048EC  EF81  F024         	goto	u3021
  6374  0048F0  503D               	movf	(scalbnf@n+1)^0,w,c
  6375  0048F2  E109               	bnz	u3020
  6376  0048F4  0E80               	movlw	128
  6377  0048F6  5C3C               	subwf	scalbnf@n^0,w,c
  6378  0048F8  A0D8               	btfss	status,0,c
  6379  0048FA  EF81  F024         	goto	u3021
  6380  0048FE  EF83  F024         	goto	u3020
  6381  004902                     u3021:
  6382  004902  EFF3  F024         	goto	l2941
  6383  004906                     u3020:
  6384  004906  0E00               	movlw	0
  6385  004908  6E3D               	movwf	(scalbnf@n+1)^0,c
  6386  00490A  0E7F               	movlw	127
  6387  00490C  6E3C               	movwf	scalbnf@n^0,c
  6388  00490E  EFF3  F024         	goto	l2941
  6389  004912                     l2925:
  6390  004912  AE3D               	btfss	(scalbnf@n+1)^0,7,c
  6391  004914  EF95  F024         	goto	u3031
  6392  004918  0E82               	movlw	130
  6393  00491A  5C3C               	subwf	scalbnf@n^0,w,c
  6394  00491C  0EFF               	movlw	255
  6395  00491E  583D               	subwfb	(scalbnf@n+1)^0,w,c
  6396  004920  B0D8               	btfsc	status,0,c
  6397  004922  EF95  F024         	goto	u3031
  6398  004926  EF97  F024         	goto	u3030
  6399  00492A                     u3031:
  6400  00492A  EFF3  F024         	goto	l2941
  6401  00492E                     u3030:
  6402  00492E  C046  F01F         	movff	scalbnf@y,___flmul@b
  6403  004932  C047  F020         	movff	scalbnf@y+1,___flmul@b+1
  6404  004936  C048  F021         	movff	scalbnf@y+2,___flmul@b+2
  6405  00493A  C049  F022         	movff	scalbnf@y+3,___flmul@b+3
  6406  00493E  0E00               	movlw	0
  6407  004940  6E23               	movwf	___flmul@a^0,c
  6408  004942  0E00               	movlw	0
  6409  004944  6E24               	movwf	(___flmul@a+1)^0,c
  6410  004946  0E80               	movlw	128
  6411  004948  6E25               	movwf	(___flmul@a+2)^0,c
  6412  00494A  0E0C               	movlw	12
  6413  00494C  6E26               	movwf	(___flmul@a+3)^0,c
  6414  00494E  EC33  F020         	call	___flmul	;wreg free
  6415  004952  C01F  F046         	movff	?___flmul,scalbnf@y
  6416  004956  C020  F047         	movff	?___flmul+1,scalbnf@y+1
  6417  00495A  C021  F048         	movff	?___flmul+2,scalbnf@y+2
  6418  00495E  C022  F049         	movff	?___flmul+3,scalbnf@y+3
  6419  004962  0E66               	movlw	102
  6420  004964  263C               	addwf	scalbnf@n^0,f,c
  6421  004966  0E00               	movlw	0
  6422  004968  223D               	addwfc	(scalbnf@n+1)^0,f,c
  6423  00496A  AE3D               	btfss	(scalbnf@n+1)^0,7,c
  6424  00496C  EFC1  F024         	goto	u3041
  6425  004970  0E82               	movlw	130
  6426  004972  5C3C               	subwf	scalbnf@n^0,w,c
  6427  004974  0EFF               	movlw	255
  6428  004976  583D               	subwfb	(scalbnf@n+1)^0,w,c
  6429  004978  B0D8               	btfsc	status,0,c
  6430  00497A  EFC1  F024         	goto	u3041
  6431  00497E  EFC3  F024         	goto	u3040
  6432  004982                     u3041:
  6433  004982  EFF3  F024         	goto	l2941
  6434  004986                     u3040:
  6435  004986  C046  F01F         	movff	scalbnf@y,___flmul@b
  6436  00498A  C047  F020         	movff	scalbnf@y+1,___flmul@b+1
  6437  00498E  C048  F021         	movff	scalbnf@y+2,___flmul@b+2
  6438  004992  C049  F022         	movff	scalbnf@y+3,___flmul@b+3
  6439  004996  0E00               	movlw	0
  6440  004998  6E23               	movwf	___flmul@a^0,c
  6441  00499A  0E00               	movlw	0
  6442  00499C  6E24               	movwf	(___flmul@a+1)^0,c
  6443  00499E  0E80               	movlw	128
  6444  0049A0  6E25               	movwf	(___flmul@a+2)^0,c
  6445  0049A2  0E0C               	movlw	12
  6446  0049A4  6E26               	movwf	(___flmul@a+3)^0,c
  6447  0049A6  EC33  F020         	call	___flmul	;wreg free
  6448  0049AA  C01F  F046         	movff	?___flmul,scalbnf@y
  6449  0049AE  C020  F047         	movff	?___flmul+1,scalbnf@y+1
  6450  0049B2  C021  F048         	movff	?___flmul+2,scalbnf@y+2
  6451  0049B6  C022  F049         	movff	?___flmul+3,scalbnf@y+3
  6452  0049BA  0E66               	movlw	102
  6453  0049BC  263C               	addwf	scalbnf@n^0,f,c
  6454  0049BE  0E00               	movlw	0
  6455  0049C0  223D               	addwfc	(scalbnf@n+1)^0,f,c
  6456  0049C2  AE3D               	btfss	(scalbnf@n+1)^0,7,c
  6457  0049C4  EFED  F024         	goto	u3051
  6458  0049C8  0E82               	movlw	130
  6459  0049CA  5C3C               	subwf	scalbnf@n^0,w,c
  6460  0049CC  0EFF               	movlw	255
  6461  0049CE  583D               	subwfb	(scalbnf@n+1)^0,w,c
  6462  0049D0  B0D8               	btfsc	status,0,c
  6463  0049D2  EFED  F024         	goto	u3051
  6464  0049D6  EFEF  F024         	goto	u3050
  6465  0049DA                     u3051:
  6466  0049DA  EFF3  F024         	goto	l2941
  6467  0049DE                     u3050:
  6468  0049DE  0EFF               	movlw	255
  6469  0049E0  6E3D               	movwf	(scalbnf@n+1)^0,c
  6470  0049E2  0E82               	movlw	130
  6471  0049E4  6E3C               	movwf	scalbnf@n^0,c
  6472  0049E6                     l2941:
  6473  0049E6  0E7F               	movlw	127
  6474  0049E8  243C               	addwf	scalbnf@n^0,w,c
  6475  0049EA  6E3E               	movwf	??_scalbnf^0,c
  6476  0049EC  0E00               	movlw	0
  6477  0049EE  203D               	addwfc	(scalbnf@n+1)^0,w,c
  6478  0049F0  6E3F               	movwf	(??_scalbnf+1)^0,c
  6479  0049F2  6A40               	clrf	(??_scalbnf+2)^0,c
  6480  0049F4  6A41               	clrf	(??_scalbnf+3)^0,c
  6481  0049F6  0E17               	movlw	23
  6482  0049F8                     u3065:
  6483  0049F8  90D8               	bcf	status,0,c
  6484  0049FA  363E               	rlcf	??_scalbnf^0,f,c
  6485  0049FC  363F               	rlcf	(??_scalbnf+1)^0,f,c
  6486  0049FE  3640               	rlcf	(??_scalbnf+2)^0,f,c
  6487  004A00  3641               	rlcf	(??_scalbnf+3)^0,f,c
  6488  004A02  2EE8               	decfsz	wreg,f,c
  6489  004A04  EFFC  F024         	goto	u3065
  6490  004A08  C03E  F042         	movff	??_scalbnf,scalbnf@u
  6491  004A0C  C03F  F043         	movff	??_scalbnf+1,scalbnf@u+1
  6492  004A10  C040  F044         	movff	??_scalbnf+2,scalbnf@u+2
  6493  004A14  C041  F045         	movff	??_scalbnf+3,scalbnf@u+3
  6494  004A18  C042  F01F         	movff	scalbnf@u,___flmul@b
  6495  004A1C  C043  F020         	movff	scalbnf@u+1,___flmul@b+1
  6496  004A20  C044  F021         	movff	scalbnf@u+2,___flmul@b+2
  6497  004A24  C045  F022         	movff	scalbnf@u+3,___flmul@b+3
  6498  004A28  C046  F023         	movff	scalbnf@y,___flmul@a
  6499  004A2C  C047  F024         	movff	scalbnf@y+1,___flmul@a+1
  6500  004A30  C048  F025         	movff	scalbnf@y+2,___flmul@a+2
  6501  004A34  C049  F026         	movff	scalbnf@y+3,___flmul@a+3
  6502  004A38  EC33  F020         	call	___flmul	;wreg free
  6503  004A3C  C01F  F038         	movff	?___flmul,scalbnf@x
  6504  004A40  C020  F039         	movff	?___flmul+1,scalbnf@x+1
  6505  004A44  C021  F03A         	movff	?___flmul+2,scalbnf@x+2
  6506  004A48  C022  F03B         	movff	?___flmul+3,scalbnf@x+3
  6507  004A4C  C038  F038         	movff	scalbnf@x,?_scalbnf
  6508  004A50  C039  F039         	movff	scalbnf@x+1,?_scalbnf+1
  6509  004A54  C03A  F03A         	movff	scalbnf@x+2,?_scalbnf+2
  6510  004A58  C03B  F03B         	movff	scalbnf@x+3,?_scalbnf+3
  6511  004A5C  0012               	return		;funcret
  6512  004A5E                     __end_of_scalbnf:
  6513                           	callstack 0
  6514                           
  6515 ;; *************** function ___flmul *****************
  6516 ;; Defined at:
  6517 ;;		line 8 in file "C:\Program Files\Microchip\xc8\v2.20\pic\sources\c99\common\sprcmul.c"
  6518 ;; Parameters:    Size  Location     Type
  6519 ;;  b               4   30[COMRAM] float 
  6520 ;;  a               4   34[COMRAM] float 
  6521 ;; Auto vars:     Size  Location     Type
  6522 ;;  prod            4   49[COMRAM] struct .
  6523 ;;  grs             4   43[COMRAM] unsigned long 
  6524 ;;  temp            2   53[COMRAM] struct .
  6525 ;;  bexp            1   48[COMRAM] unsigned char 
  6526 ;;  aexp            1   47[COMRAM] unsigned char 
  6527 ;;  sign            1   42[COMRAM] unsigned char 
  6528 ;; Return value:  Size  Location     Type
  6529 ;;                  4   30[COMRAM] unsigned char 
  6530 ;; Registers used:
  6531 ;;		wreg, status,2, status,0, prodl, prodh
  6532 ;; Tracked objects:
  6533 ;;		On entry : 0/0
  6534 ;;		On exit  : 0/0
  6535 ;;		Unchanged: 0/0
  6536 ;; Data sizes:     COMRAM   BANK0   BANK1   BANK2   BANK3   BANK4   BANK5   BANK6   BANK7
  6537 ;;      Params:         8       0       0       0       0       0       0       0       0
  6538 ;;      Locals:        13       0       0       0       0       0       0       0       0
  6539 ;;      Temps:          4       0       0       0       0       0       0       0       0
  6540 ;;      Totals:        25       0       0       0       0       0       0       0       0
  6541 ;;Total ram usage:       25 bytes
  6542 ;; Hardware stack levels used:    1
  6543 ;; This function calls:
  6544 ;;		Nothing
  6545 ;; This function is called by:
  6546 ;;		_powf
  6547 ;;		_scalbnf
  6548 ;;		_sqrtf
  6549 ;; This function uses a non-reentrant model
  6550 ;;
  6551                           
  6552                           	psect	text6
  6553  004066                     __ptext6:
  6554                           	callstack 0
  6555  004066                     ___flmul:
  6556                           	callstack 28
  6557  004066  5022               	movf	(___flmul@b+3)^0,w,c
  6558  004068  0B80               	andlw	128
  6559  00406A  6E2B               	movwf	___flmul@sign^0,c
  6560  00406C  5022               	movf	(___flmul@b+3)^0,w,c
  6561  00406E  2422               	addwf	(___flmul@b+3)^0,w,c
  6562  004070  6E31               	movwf	___flmul@bexp^0,c
  6563  004072  AE21               	btfss	(___flmul@b+2)^0,7,c
  6564  004074  EF3E  F020         	goto	u2281
  6565  004078  EF40  F020         	goto	u2280
  6566  00407C                     u2281:
  6567  00407C  EF41  F020         	goto	l2473
  6568  004080                     u2280:
  6569  004080  8031               	bsf	___flmul@bexp^0,0,c
  6570  004082                     l2473:
  6571  004082  5031               	movf	___flmul@bexp^0,w,c
  6572  004084  B4D8               	btfsc	status,2,c
  6573  004086  EF47  F020         	goto	u2291
  6574  00408A  EF49  F020         	goto	u2290
  6575  00408E                     u2291:
  6576  00408E  EF5C  F020         	goto	l2481
  6577  004092                     u2290:
  6578  004092  2831               	incf	___flmul@bexp^0,w,c
  6579  004094  A4D8               	btfss	status,2,c
  6580  004096  EF4F  F020         	goto	u2301
  6581  00409A  EF51  F020         	goto	u2300
  6582  00409E                     u2301:
  6583  00409E  EF59  F020         	goto	l2479
  6584  0040A2                     u2300:
  6585  0040A2  0E00               	movlw	0
  6586  0040A4  6E1F               	movwf	___flmul@b^0,c
  6587  0040A6  0E00               	movlw	0
  6588  0040A8  6E20               	movwf	(___flmul@b+1)^0,c
  6589  0040AA  0E00               	movlw	0
  6590  0040AC  6E21               	movwf	(___flmul@b+2)^0,c
  6591  0040AE  0E00               	movlw	0
  6592  0040B0  6E22               	movwf	(___flmul@b+3)^0,c
  6593  0040B2                     l2479:
  6594  0040B2  8E21               	bsf	(___flmul@b+2)^0,7,c
  6595  0040B4  EF64  F020         	goto	l2483
  6596  0040B8                     l2481:
  6597  0040B8  0E00               	movlw	0
  6598  0040BA  6E1F               	movwf	___flmul@b^0,c
  6599  0040BC  0E00               	movlw	0
  6600  0040BE  6E20               	movwf	(___flmul@b+1)^0,c
  6601  0040C0  0E00               	movlw	0
  6602  0040C2  6E21               	movwf	(___flmul@b+2)^0,c
  6603  0040C4  0E00               	movlw	0
  6604  0040C6  6E22               	movwf	(___flmul@b+3)^0,c
  6605  0040C8                     l2483:
  6606  0040C8  5026               	movf	(___flmul@a+3)^0,w,c
  6607  0040CA  0B80               	andlw	128
  6608  0040CC  1A2B               	xorwf	___flmul@sign^0,f,c
  6609  0040CE  5026               	movf	(___flmul@a+3)^0,w,c
  6610  0040D0  2426               	addwf	(___flmul@a+3)^0,w,c
  6611  0040D2  6E30               	movwf	___flmul@aexp^0,c
  6612  0040D4  AE25               	btfss	(___flmul@a+2)^0,7,c
  6613  0040D6  EF6F  F020         	goto	u2311
  6614  0040DA  EF71  F020         	goto	u2310
  6615  0040DE                     u2311:
  6616  0040DE  EF72  F020         	goto	l2491
  6617  0040E2                     u2310:
  6618  0040E2  8030               	bsf	___flmul@aexp^0,0,c
  6619  0040E4                     l2491:
  6620  0040E4  5030               	movf	___flmul@aexp^0,w,c
  6621  0040E6  B4D8               	btfsc	status,2,c
  6622  0040E8  EF78  F020         	goto	u2321
  6623  0040EC  EF7A  F020         	goto	u2320
  6624  0040F0                     u2321:
  6625  0040F0  EF8D  F020         	goto	l2499
  6626  0040F4                     u2320:
  6627  0040F4  2830               	incf	___flmul@aexp^0,w,c
  6628  0040F6  A4D8               	btfss	status,2,c
  6629  0040F8  EF80  F020         	goto	u2331
  6630  0040FC  EF82  F020         	goto	u2330
  6631  004100                     u2331:
  6632  004100  EF8A  F020         	goto	l2497
  6633  004104                     u2330:
  6634  004104  0E00               	movlw	0
  6635  004106  6E23               	movwf	___flmul@a^0,c
  6636  004108  0E00               	movlw	0
  6637  00410A  6E24               	movwf	(___flmul@a+1)^0,c
  6638  00410C  0E00               	movlw	0
  6639  00410E  6E25               	movwf	(___flmul@a+2)^0,c
  6640  004110  0E00               	movlw	0
  6641  004112  6E26               	movwf	(___flmul@a+3)^0,c
  6642  004114                     l2497:
  6643  004114  8E25               	bsf	(___flmul@a+2)^0,7,c
  6644  004116  EF95  F020         	goto	l665
  6645  00411A                     l2499:
  6646  00411A  0E00               	movlw	0
  6647  00411C  6E23               	movwf	___flmul@a^0,c
  6648  00411E  0E00               	movlw	0
  6649  004120  6E24               	movwf	(___flmul@a+1)^0,c
  6650  004122  0E00               	movlw	0
  6651  004124  6E25               	movwf	(___flmul@a+2)^0,c
  6652  004126  0E00               	movlw	0
  6653  004128  6E26               	movwf	(___flmul@a+3)^0,c
  6654  00412A                     l665:
  6655  00412A  5030               	movf	___flmul@aexp^0,w,c
  6656  00412C  B4D8               	btfsc	status,2,c
  6657  00412E  EF9B  F020         	goto	u2341
  6658  004132  EF9D  F020         	goto	u2340
  6659  004136                     u2341:
  6660  004136  EFA5  F020         	goto	l2503
  6661  00413A                     u2340:
  6662  00413A  5031               	movf	___flmul@bexp^0,w,c
  6663  00413C  A4D8               	btfss	status,2,c
  6664  00413E  EFA3  F020         	goto	u2351
  6665  004142  EFA5  F020         	goto	u2350
  6666  004146                     u2351:
  6667  004146  EFAF  F020         	goto	l2507
  6668  00414A                     u2350:
  6669  00414A                     l2503:
  6670  00414A  0E00               	movlw	0
  6671  00414C  6E1F               	movwf	?___flmul^0,c
  6672  00414E  0E00               	movlw	0
  6673  004150  6E20               	movwf	(?___flmul+1)^0,c
  6674  004152  0E00               	movlw	0
  6675  004154  6E21               	movwf	(?___flmul+2)^0,c
  6676  004156  0E00               	movlw	0
  6677  004158  6E22               	movwf	(?___flmul+3)^0,c
  6678  00415A  EF47  F022         	goto	l669
  6679  00415E                     l2507:
  6680  00415E  5025               	movf	(___flmul@a+2)^0,w,c
  6681  004160  021F               	mulwf	___flmul@b^0,c
  6682  004162  CFF3 F036          	movff	prodl,___flmul@temp
  6683  004166  CFF4 F037          	movff	prodh,___flmul@temp+1
  6684  00416A  5036               	movf	___flmul@temp^0,w,c
  6685  00416C  6E2C               	movwf	___flmul@grs^0,c
  6686  00416E  6A2D               	clrf	(___flmul@grs+1)^0,c
  6687  004170  6A2E               	clrf	(___flmul@grs+2)^0,c
  6688  004172  6A2F               	clrf	(___flmul@grs+3)^0,c
  6689  004174  5037               	movf	(___flmul@temp+1)^0,w,c
  6690  004176  6E32               	movwf	___flmul@prod^0,c
  6691  004178  6A33               	clrf	(___flmul@prod+1)^0,c
  6692  00417A  6A34               	clrf	(___flmul@prod+2)^0,c
  6693  00417C  6A35               	clrf	(___flmul@prod+3)^0,c
  6694  00417E  5024               	movf	(___flmul@a+1)^0,w,c
  6695  004180  0220               	mulwf	(___flmul@b+1)^0,c
  6696  004182  CFF3 F036          	movff	prodl,___flmul@temp
  6697  004186  CFF4 F037          	movff	prodh,___flmul@temp+1
  6698  00418A  5036               	movf	___flmul@temp^0,w,c
  6699  00418C  262C               	addwf	___flmul@grs^0,f,c
  6700  00418E  0E00               	movlw	0
  6701  004190  222D               	addwfc	(___flmul@grs+1)^0,f,c
  6702  004192  222E               	addwfc	(___flmul@grs+2)^0,f,c
  6703  004194  222F               	addwfc	(___flmul@grs+3)^0,f,c
  6704  004196  5037               	movf	(___flmul@temp+1)^0,w,c
  6705  004198  2632               	addwf	___flmul@prod^0,f,c
  6706  00419A  0E00               	movlw	0
  6707  00419C  2233               	addwfc	(___flmul@prod+1)^0,f,c
  6708  00419E  2234               	addwfc	(___flmul@prod+2)^0,f,c
  6709  0041A0  2235               	addwfc	(___flmul@prod+3)^0,f,c
  6710  0041A2  5023               	movf	___flmul@a^0,w,c
  6711  0041A4  0221               	mulwf	(___flmul@b+2)^0,c
  6712  0041A6  CFF3 F036          	movff	prodl,___flmul@temp
  6713  0041AA  CFF4 F037          	movff	prodh,___flmul@temp+1
  6714  0041AE  5036               	movf	___flmul@temp^0,w,c
  6715  0041B0  262C               	addwf	___flmul@grs^0,f,c
  6716  0041B2  0E00               	movlw	0
  6717  0041B4  222D               	addwfc	(___flmul@grs+1)^0,f,c
  6718  0041B6  222E               	addwfc	(___flmul@grs+2)^0,f,c
  6719  0041B8  222F               	addwfc	(___flmul@grs+3)^0,f,c
  6720  0041BA  5037               	movf	(___flmul@temp+1)^0,w,c
  6721  0041BC  2632               	addwf	___flmul@prod^0,f,c
  6722  0041BE  0E00               	movlw	0
  6723  0041C0  2233               	addwfc	(___flmul@prod+1)^0,f,c
  6724  0041C2  2234               	addwfc	(___flmul@prod+2)^0,f,c
  6725  0041C4  2235               	addwfc	(___flmul@prod+3)^0,f,c
  6726  0041C6  C02E  F02F         	movff	___flmul@grs+2,___flmul@grs+3
  6727  0041CA  C02D  F02E         	movff	___flmul@grs+1,___flmul@grs+2
  6728  0041CE  C02C  F02D         	movff	___flmul@grs,___flmul@grs+1
  6729  0041D2  6A2C               	clrf	___flmul@grs^0,c
  6730  0041D4  5023               	movf	___flmul@a^0,w,c
  6731  0041D6  0220               	mulwf	(___flmul@b+1)^0,c
  6732  0041D8  CFF3 F036          	movff	prodl,___flmul@temp
  6733  0041DC  CFF4 F037          	movff	prodh,___flmul@temp+1
  6734  0041E0  5036               	movf	___flmul@temp^0,w,c
  6735  0041E2  262C               	addwf	___flmul@grs^0,f,c
  6736  0041E4  5037               	movf	(___flmul@temp+1)^0,w,c
  6737  0041E6  222D               	addwfc	(___flmul@grs+1)^0,f,c
  6738  0041E8  0E00               	movlw	0
  6739  0041EA  222E               	addwfc	(___flmul@grs+2)^0,f,c
  6740  0041EC  0E00               	movlw	0
  6741  0041EE  222F               	addwfc	(___flmul@grs+3)^0,f,c
  6742  0041F0  5024               	movf	(___flmul@a+1)^0,w,c
  6743  0041F2  021F               	mulwf	___flmul@b^0,c
  6744  0041F4  CFF3 F036          	movff	prodl,___flmul@temp
  6745  0041F8  CFF4 F037          	movff	prodh,___flmul@temp+1
  6746  0041FC  5036               	movf	___flmul@temp^0,w,c
  6747  0041FE  262C               	addwf	___flmul@grs^0,f,c
  6748  004200  5037               	movf	(___flmul@temp+1)^0,w,c
  6749  004202  222D               	addwfc	(___flmul@grs+1)^0,f,c
  6750  004204  0E00               	movlw	0
  6751  004206  222E               	addwfc	(___flmul@grs+2)^0,f,c
  6752  004208  0E00               	movlw	0
  6753  00420A  222F               	addwfc	(___flmul@grs+3)^0,f,c
  6754  00420C  C02E  F02F         	movff	___flmul@grs+2,___flmul@grs+3
  6755  004210  C02D  F02E         	movff	___flmul@grs+1,___flmul@grs+2
  6756  004214  C02C  F02D         	movff	___flmul@grs,___flmul@grs+1
  6757  004218  6A2C               	clrf	___flmul@grs^0,c
  6758  00421A  5023               	movf	___flmul@a^0,w,c
  6759  00421C  021F               	mulwf	___flmul@b^0,c
  6760  00421E  CFF3 F036          	movff	prodl,___flmul@temp
  6761  004222  CFF4 F037          	movff	prodh,___flmul@temp+1
  6762  004226  5036               	movf	___flmul@temp^0,w,c
  6763  004228  262C               	addwf	___flmul@grs^0,f,c
  6764  00422A  5037               	movf	(___flmul@temp+1)^0,w,c
  6765  00422C  222D               	addwfc	(___flmul@grs+1)^0,f,c
  6766  00422E  0E00               	movlw	0
  6767  004230  222E               	addwfc	(___flmul@grs+2)^0,f,c
  6768  004232  0E00               	movlw	0
  6769  004234  222F               	addwfc	(___flmul@grs+3)^0,f,c
  6770  004236  5025               	movf	(___flmul@a+2)^0,w,c
  6771  004238  0220               	mulwf	(___flmul@b+1)^0,c
  6772  00423A  CFF3 F036          	movff	prodl,___flmul@temp
  6773  00423E  CFF4 F037          	movff	prodh,___flmul@temp+1
  6774  004242  5036               	movf	___flmul@temp^0,w,c
  6775  004244  2632               	addwf	___flmul@prod^0,f,c
  6776  004246  5037               	movf	(___flmul@temp+1)^0,w,c
  6777  004248  2233               	addwfc	(___flmul@prod+1)^0,f,c
  6778  00424A  0E00               	movlw	0
  6779  00424C  2234               	addwfc	(___flmul@prod+2)^0,f,c
  6780  00424E  0E00               	movlw	0
  6781  004250  2235               	addwfc	(___flmul@prod+3)^0,f,c
  6782  004252  5024               	movf	(___flmul@a+1)^0,w,c
  6783  004254  0221               	mulwf	(___flmul@b+2)^0,c
  6784  004256  CFF3 F036          	movff	prodl,___flmul@temp
  6785  00425A  CFF4 F037          	movff	prodh,___flmul@temp+1
  6786  00425E  5036               	movf	___flmul@temp^0,w,c
  6787  004260  2632               	addwf	___flmul@prod^0,f,c
  6788  004262  5037               	movf	(___flmul@temp+1)^0,w,c
  6789  004264  2233               	addwfc	(___flmul@prod+1)^0,f,c
  6790  004266  0E00               	movlw	0
  6791  004268  2234               	addwfc	(___flmul@prod+2)^0,f,c
  6792  00426A  0E00               	movlw	0
  6793  00426C  2235               	addwfc	(___flmul@prod+3)^0,f,c
  6794  00426E  5025               	movf	(___flmul@a+2)^0,w,c
  6795  004270  0221               	mulwf	(___flmul@b+2)^0,c
  6796  004272  CFF3 F036          	movff	prodl,___flmul@temp
  6797  004276  CFF4 F037          	movff	prodh,___flmul@temp+1
  6798  00427A  5036               	movf	___flmul@temp^0,w,c
  6799  00427C  6E27               	movwf	??___flmul^0,c
  6800  00427E  5037               	movf	(___flmul@temp+1)^0,w,c
  6801  004280  6E28               	movwf	(??___flmul+1)^0,c
  6802  004282  6A29               	clrf	(??___flmul+2)^0,c
  6803  004284  6A2A               	clrf	(??___flmul+3)^0,c
  6804  004286  C029  F02A         	movff	??___flmul+2,??___flmul+3
  6805  00428A  C028  F029         	movff	??___flmul+1,??___flmul+2
  6806  00428E  C027  F028         	movff	??___flmul,??___flmul+1
  6807  004292  6A27               	clrf	??___flmul^0,c
  6808  004294  5027               	movf	??___flmul^0,w,c
  6809  004296  2632               	addwf	___flmul@prod^0,f,c
  6810  004298  5028               	movf	(??___flmul+1)^0,w,c
  6811  00429A  2233               	addwfc	(___flmul@prod+1)^0,f,c
  6812  00429C  5029               	movf	(??___flmul+2)^0,w,c
  6813  00429E  2234               	addwfc	(___flmul@prod+2)^0,f,c
  6814  0042A0  502A               	movf	(??___flmul+3)^0,w,c
  6815  0042A2  2235               	addwfc	(___flmul@prod+3)^0,f,c
  6816  0042A4  C02C  F027         	movff	___flmul@grs,??___flmul
  6817  0042A8  C02D  F028         	movff	___flmul@grs+1,??___flmul+1
  6818  0042AC  C02E  F029         	movff	___flmul@grs+2,??___flmul+2
  6819  0042B0  C02F  F02A         	movff	___flmul@grs+3,??___flmul+3
  6820  0042B4  0E19               	movlw	25
  6821  0042B6  EF62  F021         	goto	u2360
  6822  0042BA                     u2365:
  6823  0042BA  90D8               	bcf	status,0,c
  6824  0042BC  322A               	rrcf	(??___flmul+3)^0,f,c
  6825  0042BE  3229               	rrcf	(??___flmul+2)^0,f,c
  6826  0042C0  3228               	rrcf	(??___flmul+1)^0,f,c
  6827  0042C2  3227               	rrcf	??___flmul^0,f,c
  6828  0042C4                     u2360:
  6829  0042C4  2EE8               	decfsz	wreg,f,c
  6830  0042C6  EF5D  F021         	goto	u2365
  6831  0042CA  5027               	movf	??___flmul^0,w,c
  6832  0042CC  2632               	addwf	___flmul@prod^0,f,c
  6833  0042CE  5028               	movf	(??___flmul+1)^0,w,c
  6834  0042D0  2233               	addwfc	(___flmul@prod+1)^0,f,c
  6835  0042D2  5029               	movf	(??___flmul+2)^0,w,c
  6836  0042D4  2234               	addwfc	(___flmul@prod+2)^0,f,c
  6837  0042D6  502A               	movf	(??___flmul+3)^0,w,c
  6838  0042D8  2235               	addwfc	(___flmul@prod+3)^0,f,c
  6839  0042DA  C02E  F02F         	movff	___flmul@grs+2,___flmul@grs+3
  6840  0042DE  C02D  F02E         	movff	___flmul@grs+1,___flmul@grs+2
  6841  0042E2  C02C  F02D         	movff	___flmul@grs,___flmul@grs+1
  6842  0042E6  6A2C               	clrf	___flmul@grs^0,c
  6843  0042E8  5030               	movf	___flmul@aexp^0,w,c
  6844  0042EA  C031  F027         	movff	___flmul@bexp,??___flmul
  6845  0042EE  6A28               	clrf	(??___flmul+1)^0,c
  6846  0042F0  2627               	addwf	??___flmul^0,f,c
  6847  0042F2  0E00               	movlw	0
  6848  0042F4  2228               	addwfc	(??___flmul+1)^0,f,c
  6849  0042F6  0E82               	movlw	130
  6850  0042F8  2427               	addwf	??___flmul^0,w,c
  6851  0042FA  6E36               	movwf	___flmul@temp^0,c
  6852  0042FC  0EFF               	movlw	255
  6853  0042FE  2028               	addwfc	(??___flmul+1)^0,w,c
  6854  004300  6E37               	movwf	(___flmul@temp+1)^0,c
  6855  004302  EF98  F021         	goto	l2555
  6856  004306                     l2549:
  6857  004306  90D8               	bcf	status,0,c
  6858  004308  3632               	rlcf	___flmul@prod^0,f,c
  6859  00430A  3633               	rlcf	(___flmul@prod+1)^0,f,c
  6860  00430C  3634               	rlcf	(___flmul@prod+2)^0,f,c
  6861  00430E  3635               	rlcf	(___flmul@prod+3)^0,f,c
  6862  004310  AE2F               	btfss	(___flmul@grs+3)^0,7,c
  6863  004312  EF8D  F021         	goto	u2371
  6864  004316  EF8F  F021         	goto	u2370
  6865  00431A                     u2371:
  6866  00431A  EF90  F021         	goto	l672
  6867  00431E                     u2370:
  6868  00431E  8032               	bsf	___flmul@prod^0,0,c
  6869  004320                     l672:
  6870  004320  90D8               	bcf	status,0,c
  6871  004322  362C               	rlcf	___flmul@grs^0,f,c
  6872  004324  362D               	rlcf	(___flmul@grs+1)^0,f,c
  6873  004326  362E               	rlcf	(___flmul@grs+2)^0,f,c
  6874  004328  362F               	rlcf	(___flmul@grs+3)^0,f,c
  6875  00432A  0636               	decf	___flmul@temp^0,f,c
  6876  00432C  A0D8               	btfss	status,0,c
  6877  00432E  0637               	decf	(___flmul@temp+1)^0,f,c
  6878  004330                     l2555:
  6879  004330  AE34               	btfss	(___flmul@prod+2)^0,7,c
  6880  004332  EF9D  F021         	goto	u2381
  6881  004336  EF9F  F021         	goto	u2380
  6882  00433A                     u2381:
  6883  00433A  EF83  F021         	goto	l2549
  6884  00433E                     u2380:
  6885  00433E  0E00               	movlw	0
  6886  004340  6E30               	movwf	___flmul@aexp^0,c
  6887  004342  AE2F               	btfss	(___flmul@grs+3)^0,7,c
  6888  004344  EFA6  F021         	goto	u2391
  6889  004348  EFA8  F021         	goto	u2390
  6890  00434C                     u2391:
  6891  00434C  EFCC  F021         	goto	l674
  6892  004350                     u2390:
  6893  004350  0EFF               	movlw	255
  6894  004352  142C               	andwf	___flmul@grs^0,w,c
  6895  004354  6E27               	movwf	??___flmul^0,c
  6896  004356  0EFF               	movlw	255
  6897  004358  142D               	andwf	(___flmul@grs+1)^0,w,c
  6898  00435A  6E28               	movwf	(??___flmul+1)^0,c
  6899  00435C  0EFF               	movlw	255
  6900  00435E  142E               	andwf	(___flmul@grs+2)^0,w,c
  6901  004360  6E29               	movwf	(??___flmul+2)^0,c
  6902  004362  0E7F               	movlw	127
  6903  004364  142F               	andwf	(___flmul@grs+3)^0,w,c
  6904  004366  6E2A               	movwf	(??___flmul+3)^0,c
  6905  004368  5027               	movf	??___flmul^0,w,c
  6906  00436A  1028               	iorwf	(??___flmul+1)^0,w,c
  6907  00436C  1029               	iorwf	(??___flmul+2)^0,w,c
  6908  00436E  102A               	iorwf	(??___flmul+3)^0,w,c
  6909  004370  B4D8               	btfsc	status,2,c
  6910  004372  EFBD  F021         	goto	u2401
  6911  004376  EFBF  F021         	goto	u2400
  6912  00437A                     u2401:
  6913  00437A  EFC3  F021         	goto	l675
  6914  00437E                     u2400:
  6915  00437E                     l2563:
  6916  00437E  0E01               	movlw	1
  6917  004380  6E30               	movwf	___flmul@aexp^0,c
  6918  004382  EFCC  F021         	goto	l674
  6919  004386                     l675:
  6920  004386  A032               	btfss	___flmul@prod^0,0,c
  6921  004388  EFC8  F021         	goto	u2411
  6922  00438C  EFCA  F021         	goto	u2410
  6923  004390                     u2411:
  6924  004390  EFCC  F021         	goto	l674
  6925  004394                     u2410:
  6926  004394  EFBF  F021         	goto	l2563
  6927  004398                     l674:
  6928  004398  5030               	movf	___flmul@aexp^0,w,c
  6929  00439A  B4D8               	btfsc	status,2,c
  6930  00439C  EFD2  F021         	goto	u2421
  6931  0043A0  EFD4  F021         	goto	u2420
  6932  0043A4                     u2421:
  6933  0043A4  EFF8  F021         	goto	l2575
  6934  0043A8                     u2420:
  6935  0043A8  0E01               	movlw	1
  6936  0043AA  2632               	addwf	___flmul@prod^0,f,c
  6937  0043AC  0E00               	movlw	0
  6938  0043AE  2233               	addwfc	(___flmul@prod+1)^0,f,c
  6939  0043B0  2234               	addwfc	(___flmul@prod+2)^0,f,c
  6940  0043B2  2235               	addwfc	(___flmul@prod+3)^0,f,c
  6941  0043B4  A035               	btfss	(___flmul@prod+3)^0,0,c
  6942  0043B6  EFDF  F021         	goto	u2431
  6943  0043BA  EFE1  F021         	goto	u2430
  6944  0043BE                     u2431:
  6945  0043BE  EFF8  F021         	goto	l2575
  6946  0043C2                     u2430:
  6947  0043C2  C032  F027         	movff	___flmul@prod,??___flmul
  6948  0043C6  C033  F028         	movff	___flmul@prod+1,??___flmul+1
  6949  0043CA  C034  F029         	movff	___flmul@prod+2,??___flmul+2
  6950  0043CE  C035  F02A         	movff	___flmul@prod+3,??___flmul+3
  6951  0043D2  342A               	rlcf	(??___flmul+3)^0,w,c
  6952  0043D4  322A               	rrcf	(??___flmul+3)^0,f,c
  6953  0043D6  3229               	rrcf	(??___flmul+2)^0,f,c
  6954  0043D8  3228               	rrcf	(??___flmul+1)^0,f,c
  6955  0043DA  3227               	rrcf	??___flmul^0,f,c
  6956  0043DC  C027  F032         	movff	??___flmul,___flmul@prod
  6957  0043E0  C028  F033         	movff	??___flmul+1,___flmul@prod+1
  6958  0043E4  C029  F034         	movff	??___flmul+2,___flmul@prod+2
  6959  0043E8  C02A  F035         	movff	??___flmul+3,___flmul@prod+3
  6960  0043EC  4A36               	infsnz	___flmul@temp^0,f,c
  6961  0043EE  2A37               	incf	(___flmul@temp+1)^0,f,c
  6962  0043F0                     l2575:
  6963  0043F0  BE37               	btfsc	(___flmul@temp+1)^0,7,c
  6964  0043F2  EF03  F022         	goto	u2441
  6965  0043F6  5037               	movf	(___flmul@temp+1)^0,w,c
  6966  0043F8  E108               	bnz	u2440
  6967  0043FA  2836               	incf	___flmul@temp^0,w,c
  6968  0043FC  A0D8               	btfss	status,0,c
  6969  0043FE  EF03  F022         	goto	u2441
  6970  004402  EF05  F022         	goto	u2440
  6971  004406                     u2441:
  6972  004406  EF0F  F022         	goto	l2579
  6973  00440A                     u2440:
  6974  00440A  0E00               	movlw	0
  6975  00440C  6E32               	movwf	___flmul@prod^0,c
  6976  00440E  0E00               	movlw	0
  6977  004410  6E33               	movwf	(___flmul@prod+1)^0,c
  6978  004412  0E80               	movlw	128
  6979  004414  6E34               	movwf	(___flmul@prod+2)^0,c
  6980  004416  0E7F               	movlw	127
  6981  004418  6E35               	movwf	(___flmul@prod+3)^0,c
  6982  00441A  EF3D  F022         	goto	l2591
  6983  00441E                     l2579:
  6984  00441E  BE37               	btfsc	(___flmul@temp+1)^0,7,c
  6985  004420  EF1C  F022         	goto	u2450
  6986  004424  5037               	movf	(___flmul@temp+1)^0,w,c
  6987  004426  E106               	bnz	u2451
  6988  004428  0436               	decf	___flmul@temp^0,w,c
  6989  00442A  B0D8               	btfsc	status,0,c
  6990  00442C  EF1A  F022         	goto	u2451
  6991  004430  EF1C  F022         	goto	u2450
  6992  004434                     u2451:
  6993  004434  EF28  F022         	goto	l682
  6994  004438                     u2450:
  6995  004438  0E00               	movlw	0
  6996  00443A  6E32               	movwf	___flmul@prod^0,c
  6997  00443C  0E00               	movlw	0
  6998  00443E  6E33               	movwf	(___flmul@prod+1)^0,c
  6999  004440  0E00               	movlw	0
  7000  004442  6E34               	movwf	(___flmul@prod+2)^0,c
  7001  004444  0E00               	movlw	0
  7002  004446  6E35               	movwf	(___flmul@prod+3)^0,c
  7003  004448  0E00               	movlw	0
  7004  00444A  6E2B               	movwf	___flmul@sign^0,c
  7005  00444C  EF3D  F022         	goto	l2591
  7006  004450                     l682:
  7007  004450  C036  F031         	movff	___flmul@temp,___flmul@bexp
  7008  004454  0EFF               	movlw	255
  7009  004456  1632               	andwf	___flmul@prod^0,f,c
  7010  004458  0EFF               	movlw	255
  7011  00445A  1633               	andwf	(___flmul@prod+1)^0,f,c
  7012  00445C  0E7F               	movlw	127
  7013  00445E  1634               	andwf	(___flmul@prod+2)^0,f,c
  7014  004460  0E00               	movlw	0
  7015  004462  1635               	andwf	(___flmul@prod+3)^0,f,c
  7016  004464  A031               	btfss	___flmul@bexp^0,0,c
  7017  004466  EF37  F022         	goto	u2461
  7018  00446A  EF39  F022         	goto	u2460
  7019  00446E                     u2461:
  7020  00446E  EF3A  F022         	goto	l2589
  7021  004472                     u2460:
  7022  004472  8E34               	bsf	(___flmul@prod+2)^0,7,c
  7023  004474                     l2589:
  7024  004474  90D8               	bcf	status,0,c
  7025  004476  3031               	rrcf	___flmul@bexp^0,w,c
  7026  004478  6E35               	movwf	(___flmul@prod+3)^0,c
  7027  00447A                     l2591:
  7028  00447A  502B               	movf	___flmul@sign^0,w,c
  7029  00447C  1235               	iorwf	(___flmul@prod+3)^0,f,c
  7030  00447E  C032  F01F         	movff	___flmul@prod,?___flmul
  7031  004482  C033  F020         	movff	___flmul@prod+1,?___flmul+1
  7032  004486  C034  F021         	movff	___flmul@prod+2,?___flmul+2
  7033  00448A  C035  F022         	movff	___flmul@prod+3,?___flmul+3
  7034  00448E                     l669:
  7035  00448E  0012               	return		;funcret
  7036  004490                     __end_of___flmul:
  7037                           	callstack 0
  7038                           
  7039 ;; *************** function _fabsf *****************
  7040 ;; Defined at:
  7041 ;;		line 4 in file "C:\Program Files\Microchip\xc8\v2.20\pic\sources\c99\common\fabsf.c"
  7042 ;; Parameters:    Size  Location     Type
  7043 ;;  x               4    0[COMRAM] float 
  7044 ;; Auto vars:     Size  Location     Type
  7045 ;;  u               4    4[COMRAM] struct .
  7046 ;; Return value:  Size  Location     Type
  7047 ;;                  4    0[COMRAM] float 
  7048 ;; Registers used:
  7049 ;;		status,2, status,0
  7050 ;; Tracked objects:
  7051 ;;		On entry : 0/0
  7052 ;;		On exit  : 0/0
  7053 ;;		Unchanged: 0/0
  7054 ;; Data sizes:     COMRAM   BANK0   BANK1   BANK2   BANK3   BANK4   BANK5   BANK6   BANK7
  7055 ;;      Params:         4       0       0       0       0       0       0       0       0
  7056 ;;      Locals:         4       0       0       0       0       0       0       0       0
  7057 ;;      Temps:          0       0       0       0       0       0       0       0       0
  7058 ;;      Totals:         8       0       0       0       0       0       0       0       0
  7059 ;;Total ram usage:        8 bytes
  7060 ;; Hardware stack levels used:    1
  7061 ;; This function calls:
  7062 ;;		Nothing
  7063 ;; This function is called by:
  7064 ;;		_powf
  7065 ;; This function uses a non-reentrant model
  7066 ;;
  7067                           
  7068                           	psect	text7
  7069  004E9C                     __ptext7:
  7070                           	callstack 0
  7071  004E9C                     _fabsf:
  7072                           	callstack 29
  7073  004E9C  C0B7  F005         	movff	fabsf@F463,fabsf@u
  7074  004EA0  C0B8  F006         	movff	fabsf@F463+1,fabsf@u+1
  7075  004EA4  C0B9  F007         	movff	fabsf@F463+2,fabsf@u+2
  7076  004EA8  C0BA  F008         	movff	fabsf@F463+3,fabsf@u+3
  7077  004EAC  C001  F005         	movff	fabsf@x,fabsf@u
  7078  004EB0  C002  F006         	movff	fabsf@x+1,fabsf@u+1
  7079  004EB4  C003  F007         	movff	fabsf@x+2,fabsf@u+2
  7080  004EB8  C004  F008         	movff	fabsf@x+3,fabsf@u+3
  7081  004EBC  9E08               	bcf	(fabsf@u+3)^0,7,c
  7082  004EBE  C005  F001         	movff	fabsf@u,?_fabsf
  7083  004EC2  C006  F002         	movff	fabsf@u+1,?_fabsf+1
  7084  004EC6  C007  F003         	movff	fabsf@u+2,?_fabsf+2
  7085  004ECA  C008  F004         	movff	fabsf@u+3,?_fabsf+3
  7086  004ECE  0012               	return		;funcret
  7087  004ED0                     __end_of_fabsf:
  7088                           	callstack 0
  7089                           
  7090 ;; *************** function ___xxtofl *****************
  7091 ;; Defined at:
  7092 ;;		line 10 in file "C:\Program Files\Microchip\xc8\v2.20\pic\sources\c99\common\xxtofl.c"
  7093 ;; Parameters:    Size  Location     Type
  7094 ;;  sign            1    wreg     unsigned char 
  7095 ;;  val             4    0[COMRAM] long 
  7096 ;; Auto vars:     Size  Location     Type
  7097 ;;  sign            1    8[COMRAM] unsigned char 
  7098 ;;  arg             4   10[COMRAM] unsigned long 
  7099 ;;  exp             1    9[COMRAM] unsigned char 
  7100 ;; Return value:  Size  Location     Type
  7101 ;;                  4    0[COMRAM] unsigned char 
  7102 ;; Registers used:
  7103 ;;		wreg, status,2, status,0
  7104 ;; Tracked objects:
  7105 ;;		On entry : 0/0
  7106 ;;		On exit  : 0/0
  7107 ;;		Unchanged: 0/0
  7108 ;; Data sizes:     COMRAM   BANK0   BANK1   BANK2   BANK3   BANK4   BANK5   BANK6   BANK7
  7109 ;;      Params:         4       0       0       0       0       0       0       0       0
  7110 ;;      Locals:         6       0       0       0       0       0       0       0       0
  7111 ;;      Temps:          4       0       0       0       0       0       0       0       0
  7112 ;;      Totals:        14       0       0       0       0       0       0       0       0
  7113 ;;Total ram usage:       14 bytes
  7114 ;; Hardware stack levels used:    1
  7115 ;; This function calls:
  7116 ;;		Nothing
  7117 ;; This function is called by:
  7118 ;;		_main
  7119 ;;		_powf
  7120 ;; This function uses a non-reentrant model
  7121 ;;
  7122                           
  7123                           	psect	text8
  7124  004A5E                     __ptext8:
  7125                           	callstack 0
  7126  004A5E                     ___xxtofl:
  7127                           	callstack 29
  7128                           
  7129                           ;incstack = 0
  7130                           ;___xxtofl@sign stored from wreg
  7131  004A5E  6E09               	movwf	___xxtofl@sign^0,c
  7132  004A60  5009               	movf	___xxtofl@sign^0,w,c
  7133  004A62  B4D8               	btfsc	status,2,c
  7134  004A64  EF36  F025         	goto	u2761
  7135  004A68  EF38  F025         	goto	u2760
  7136  004A6C                     u2761:
  7137  004A6C  EF5A  F025         	goto	l706
  7138  004A70                     u2760:
  7139  004A70  BE04               	btfsc	(___xxtofl@val+3)^0,7,c
  7140  004A72  EF3F  F025         	goto	u2770
  7141  004A76  EF3D  F025         	goto	u2771
  7142  004A7A                     u2771:
  7143  004A7A  EF5A  F025         	goto	l706
  7144  004A7E                     u2770:
  7145  004A7E  C001  F005         	movff	___xxtofl@val,??___xxtofl
  7146  004A82  C002  F006         	movff	___xxtofl@val+1,??___xxtofl+1
  7147  004A86  C003  F007         	movff	___xxtofl@val+2,??___xxtofl+2
  7148  004A8A  C004  F008         	movff	___xxtofl@val+3,??___xxtofl+3
  7149  004A8E  1E05               	comf	??___xxtofl^0,f,c
  7150  004A90  1E06               	comf	(??___xxtofl+1)^0,f,c
  7151  004A92  1E07               	comf	(??___xxtofl+2)^0,f,c
  7152  004A94  1E08               	comf	(??___xxtofl+3)^0,f,c
  7153  004A96  2A05               	incf	??___xxtofl^0,f,c
  7154  004A98  0E00               	movlw	0
  7155  004A9A  2206               	addwfc	(??___xxtofl+1)^0,f,c
  7156  004A9C  2207               	addwfc	(??___xxtofl+2)^0,f,c
  7157  004A9E  2208               	addwfc	(??___xxtofl+3)^0,f,c
  7158  004AA0  C005  F00B         	movff	??___xxtofl,___xxtofl@arg
  7159  004AA4  C006  F00C         	movff	??___xxtofl+1,___xxtofl@arg+1
  7160  004AA8  C007  F00D         	movff	??___xxtofl+2,___xxtofl@arg+2
  7161  004AAC  C008  F00E         	movff	??___xxtofl+3,___xxtofl@arg+3
  7162  004AB0  EF62  F025         	goto	l2783
  7163  004AB4                     l706:
  7164  004AB4  C001  F00B         	movff	___xxtofl@val,___xxtofl@arg
  7165  004AB8  C002  F00C         	movff	___xxtofl@val+1,___xxtofl@arg+1
  7166  004ABC  C003  F00D         	movff	___xxtofl@val+2,___xxtofl@arg+2
  7167  004AC0  C004  F00E         	movff	___xxtofl@val+3,___xxtofl@arg+3
  7168  004AC4                     l2783:
  7169  004AC4  5001               	movf	___xxtofl@val^0,w,c
  7170  004AC6  1002               	iorwf	(___xxtofl@val+1)^0,w,c
  7171  004AC8  1003               	iorwf	(___xxtofl@val+2)^0,w,c
  7172  004ACA  1004               	iorwf	(___xxtofl@val+3)^0,w,c
  7173  004ACC  A4D8               	btfss	status,2,c
  7174  004ACE  EF6B  F025         	goto	u2781
  7175  004AD2  EF6D  F025         	goto	u2780
  7176  004AD6                     u2781:
  7177  004AD6  EF77  F025         	goto	l2789
  7178  004ADA                     u2780:
  7179  004ADA  0E00               	movlw	0
  7180  004ADC  6E01               	movwf	?___xxtofl^0,c
  7181  004ADE  0E00               	movlw	0
  7182  004AE0  6E02               	movwf	(?___xxtofl+1)^0,c
  7183  004AE2  0E00               	movlw	0
  7184  004AE4  6E03               	movwf	(?___xxtofl+2)^0,c
  7185  004AE6  0E00               	movlw	0
  7186  004AE8  6E04               	movwf	(?___xxtofl+3)^0,c
  7187  004AEA  EF08  F026         	goto	l709
  7188  004AEE                     l2789:
  7189  004AEE  0E96               	movlw	150
  7190  004AF0  6E0A               	movwf	___xxtofl@exp^0,c
  7191  004AF2  EF81  F025         	goto	l2793
  7192  004AF6                     l2791:
  7193  004AF6  2A0A               	incf	___xxtofl@exp^0,f,c
  7194  004AF8  90D8               	bcf	status,0,c
  7195  004AFA  320E               	rrcf	(___xxtofl@arg+3)^0,f,c
  7196  004AFC  320D               	rrcf	(___xxtofl@arg+2)^0,f,c
  7197  004AFE  320C               	rrcf	(___xxtofl@arg+1)^0,f,c
  7198  004B00  320B               	rrcf	___xxtofl@arg^0,f,c
  7199  004B02                     l2793:
  7200  004B02  0E00               	movlw	0
  7201  004B04  140B               	andwf	___xxtofl@arg^0,w,c
  7202  004B06  6E05               	movwf	??___xxtofl^0,c
  7203  004B08  0E00               	movlw	0
  7204  004B0A  140C               	andwf	(___xxtofl@arg+1)^0,w,c
  7205  004B0C  6E06               	movwf	(??___xxtofl+1)^0,c
  7206  004B0E  0E00               	movlw	0
  7207  004B10  140D               	andwf	(___xxtofl@arg+2)^0,w,c
  7208  004B12  6E07               	movwf	(??___xxtofl+2)^0,c
  7209  004B14  0EFE               	movlw	254
  7210  004B16  140E               	andwf	(___xxtofl@arg+3)^0,w,c
  7211  004B18  6E08               	movwf	(??___xxtofl+3)^0,c
  7212  004B1A  5005               	movf	??___xxtofl^0,w,c
  7213  004B1C  1006               	iorwf	(??___xxtofl+1)^0,w,c
  7214  004B1E  1007               	iorwf	(??___xxtofl+2)^0,w,c
  7215  004B20  1008               	iorwf	(??___xxtofl+3)^0,w,c
  7216  004B22  A4D8               	btfss	status,2,c
  7217  004B24  EF96  F025         	goto	u2791
  7218  004B28  EF98  F025         	goto	u2790
  7219  004B2C                     u2791:
  7220  004B2C  EF7B  F025         	goto	l2791
  7221  004B30                     u2790:
  7222  004B30  EFA6  F025         	goto	l713
  7223  004B34                     l2795:
  7224  004B34  2A0A               	incf	___xxtofl@exp^0,f,c
  7225  004B36  0E01               	movlw	1
  7226  004B38  260B               	addwf	___xxtofl@arg^0,f,c
  7227  004B3A  0E00               	movlw	0
  7228  004B3C  220C               	addwfc	(___xxtofl@arg+1)^0,f,c
  7229  004B3E  220D               	addwfc	(___xxtofl@arg+2)^0,f,c
  7230  004B40  220E               	addwfc	(___xxtofl@arg+3)^0,f,c
  7231  004B42  90D8               	bcf	status,0,c
  7232  004B44  320E               	rrcf	(___xxtofl@arg+3)^0,f,c
  7233  004B46  320D               	rrcf	(___xxtofl@arg+2)^0,f,c
  7234  004B48  320C               	rrcf	(___xxtofl@arg+1)^0,f,c
  7235  004B4A  320B               	rrcf	___xxtofl@arg^0,f,c
  7236  004B4C                     l713:
  7237  004B4C  0E00               	movlw	0
  7238  004B4E  140B               	andwf	___xxtofl@arg^0,w,c
  7239  004B50  6E05               	movwf	??___xxtofl^0,c
  7240  004B52  0E00               	movlw	0
  7241  004B54  140C               	andwf	(___xxtofl@arg+1)^0,w,c
  7242  004B56  6E06               	movwf	(??___xxtofl+1)^0,c
  7243  004B58  0E00               	movlw	0
  7244  004B5A  140D               	andwf	(___xxtofl@arg+2)^0,w,c
  7245  004B5C  6E07               	movwf	(??___xxtofl+2)^0,c
  7246  004B5E  0EFF               	movlw	255
  7247  004B60  140E               	andwf	(___xxtofl@arg+3)^0,w,c
  7248  004B62  6E08               	movwf	(??___xxtofl+3)^0,c
  7249  004B64  5005               	movf	??___xxtofl^0,w,c
  7250  004B66  1006               	iorwf	(??___xxtofl+1)^0,w,c
  7251  004B68  1007               	iorwf	(??___xxtofl+2)^0,w,c
  7252  004B6A  1008               	iorwf	(??___xxtofl+3)^0,w,c
  7253  004B6C  A4D8               	btfss	status,2,c
  7254  004B6E  EFBB  F025         	goto	u2801
  7255  004B72  EFBD  F025         	goto	u2800
  7256  004B76                     u2801:
  7257  004B76  EF9A  F025         	goto	l2795
  7258  004B7A                     u2800:
  7259  004B7A  EFC5  F025         	goto	l2803
  7260  004B7E                     l2801:
  7261  004B7E  060A               	decf	___xxtofl@exp^0,f,c
  7262  004B80  90D8               	bcf	status,0,c
  7263  004B82  360B               	rlcf	___xxtofl@arg^0,f,c
  7264  004B84  360C               	rlcf	(___xxtofl@arg+1)^0,f,c
  7265  004B86  360D               	rlcf	(___xxtofl@arg+2)^0,f,c
  7266  004B88  360E               	rlcf	(___xxtofl@arg+3)^0,f,c
  7267  004B8A                     l2803:
  7268  004B8A  BE0D               	btfsc	(___xxtofl@arg+2)^0,7,c
  7269  004B8C  EFCA  F025         	goto	u2811
  7270  004B90  EFCC  F025         	goto	u2810
  7271  004B94                     u2811:
  7272  004B94  EFD4  F025         	goto	l720
  7273  004B98                     u2810:
  7274  004B98  0E02               	movlw	2
  7275  004B9A  600A               	cpfslt	___xxtofl@exp^0,c
  7276  004B9C  EFD2  F025         	goto	u2821
  7277  004BA0  EFD4  F025         	goto	u2820
  7278  004BA4                     u2821:
  7279  004BA4  EFBF  F025         	goto	l2801
  7280  004BA8                     u2820:
  7281  004BA8                     l720:
  7282  004BA8  B00A               	btfsc	___xxtofl@exp^0,0,c
  7283  004BAA  EFD9  F025         	goto	u2831
  7284  004BAE  EFDB  F025         	goto	u2830
  7285  004BB2                     u2831:
  7286  004BB2  EFDC  F025         	goto	l2809
  7287  004BB6                     u2830:
  7288  004BB6  9E0D               	bcf	(___xxtofl@arg+2)^0,7,c
  7289  004BB8                     l2809:
  7290  004BB8  90D8               	bcf	status,0,c
  7291  004BBA  320A               	rrcf	___xxtofl@exp^0,f,c
  7292  004BBC  C00A  F005         	movff	___xxtofl@exp,??___xxtofl
  7293  004BC0  6A06               	clrf	(??___xxtofl+1)^0,c
  7294  004BC2  6A07               	clrf	(??___xxtofl+2)^0,c
  7295  004BC4  6A08               	clrf	(??___xxtofl+3)^0,c
  7296  004BC6  C005  F008         	movff	??___xxtofl,??___xxtofl+3
  7297  004BCA  6A07               	clrf	(??___xxtofl+2)^0,c
  7298  004BCC  6A06               	clrf	(??___xxtofl+1)^0,c
  7299  004BCE  6A05               	clrf	??___xxtofl^0,c
  7300  004BD0  5005               	movf	??___xxtofl^0,w,c
  7301  004BD2  120B               	iorwf	___xxtofl@arg^0,f,c
  7302  004BD4  5006               	movf	(??___xxtofl+1)^0,w,c
  7303  004BD6  120C               	iorwf	(___xxtofl@arg+1)^0,f,c
  7304  004BD8  5007               	movf	(??___xxtofl+2)^0,w,c
  7305  004BDA  120D               	iorwf	(___xxtofl@arg+2)^0,f,c
  7306  004BDC  5008               	movf	(??___xxtofl+3)^0,w,c
  7307  004BDE  120E               	iorwf	(___xxtofl@arg+3)^0,f,c
  7308  004BE0  5009               	movf	___xxtofl@sign^0,w,c
  7309  004BE2  B4D8               	btfsc	status,2,c
  7310  004BE4  EFF6  F025         	goto	u2841
  7311  004BE8  EFF8  F025         	goto	u2840
  7312  004BEC                     u2841:
  7313  004BEC  EF00  F026         	goto	l2819
  7314  004BF0                     u2840:
  7315  004BF0  BE04               	btfsc	(___xxtofl@val+3)^0,7,c
  7316  004BF2  EFFF  F025         	goto	u2850
  7317  004BF6  EFFD  F025         	goto	u2851
  7318  004BFA                     u2851:
  7319  004BFA  EF00  F026         	goto	l2819
  7320  004BFE                     u2850:
  7321  004BFE  8E0E               	bsf	(___xxtofl@arg+3)^0,7,c
  7322  004C00                     l2819:
  7323  004C00  C00B  F001         	movff	___xxtofl@arg,?___xxtofl
  7324  004C04  C00C  F002         	movff	___xxtofl@arg+1,?___xxtofl+1
  7325  004C08  C00D  F003         	movff	___xxtofl@arg+2,?___xxtofl+2
  7326  004C0C  C00E  F004         	movff	___xxtofl@arg+3,?___xxtofl+3
  7327  004C10                     l709:
  7328  004C10  0012               	return		;funcret
  7329  004C12                     __end_of___xxtofl:
  7330                           	callstack 0
  7331                           
  7332 ;; *************** function ___flsub *****************
  7333 ;; Defined at:
  7334 ;;		line 245 in file "C:\Program Files\Microchip\xc8\v2.20\pic\sources\c99\common\sprcadd.c"
  7335 ;; Parameters:    Size  Location     Type
  7336 ;;  b               4   55[COMRAM] unsigned char 
  7337 ;;  a               4   59[COMRAM] unsigned char 
  7338 ;; Auto vars:     Size  Location     Type
  7339 ;;		None
  7340 ;; Return value:  Size  Location     Type
  7341 ;;                  4   55[COMRAM] unsigned char 
  7342 ;; Registers used:
  7343 ;;		wreg, status,2, status,0, cstack
  7344 ;; Tracked objects:
  7345 ;;		On entry : 0/0
  7346 ;;		On exit  : 0/0
  7347 ;;		Unchanged: 0/0
  7348 ;; Data sizes:     COMRAM   BANK0   BANK1   BANK2   BANK3   BANK4   BANK5   BANK6   BANK7
  7349 ;;      Params:         8       0       0       0       0       0       0       0       0
  7350 ;;      Locals:         0       0       0       0       0       0       0       0       0
  7351 ;;      Temps:          0       0       0       0       0       0       0       0       0
  7352 ;;      Totals:         8       0       0       0       0       0       0       0       0
  7353 ;;Total ram usage:        8 bytes
  7354 ;; Hardware stack levels used:    1
  7355 ;; Hardware stack levels required when called:    1
  7356 ;; This function calls:
  7357 ;;		___fladd
  7358 ;; This function is called by:
  7359 ;;		_main
  7360 ;;		_powf
  7361 ;; This function uses a non-reentrant model
  7362 ;;
  7363                           
  7364                           	psect	text9
  7365  004E1E                     __ptext9:
  7366                           	callstack 0
  7367  004E1E                     ___flsub:
  7368                           	callstack 28
  7369  004E1E  0E00               	movlw	0
  7370  004E20  1A3C               	xorwf	___flsub@a^0,f,c
  7371  004E22  0E00               	movlw	0
  7372  004E24  1A3D               	xorwf	(___flsub@a+1)^0,f,c
  7373  004E26  0E00               	movlw	0
  7374  004E28  1A3E               	xorwf	(___flsub@a+2)^0,f,c
  7375  004E2A  0E80               	movlw	128
  7376  004E2C  1A3F               	xorwf	(___flsub@a+3)^0,f,c
  7377  004E2E  C038  F00F         	movff	___flsub@b,___fladd@b
  7378  004E32  C039  F010         	movff	___flsub@b+1,___fladd@b+1
  7379  004E36  C03A  F011         	movff	___flsub@b+2,___fladd@b+2
  7380  004E3A  C03B  F012         	movff	___flsub@b+3,___fladd@b+3
  7381  004E3E  C03C  F013         	movff	___flsub@a,___fladd@a
  7382  004E42  C03D  F014         	movff	___flsub@a+1,___fladd@a+1
  7383  004E46  C03E  F015         	movff	___flsub@a+2,___fladd@a+2
  7384  004E4A  C03F  F016         	movff	___flsub@a+3,___fladd@a+3
  7385  004E4E  ECA7  F01B         	call	___fladd	;wreg free
  7386  004E52  C00F  F038         	movff	?___fladd,?___flsub
  7387  004E56  C010  F039         	movff	?___fladd+1,?___flsub+1
  7388  004E5A  C011  F03A         	movff	?___fladd+2,?___flsub+2
  7389  004E5E  C012  F03B         	movff	?___fladd+3,?___flsub+3
  7390  004E62  0012               	return		;funcret
  7391  004E64                     __end_of___flsub:
  7392                           	callstack 0
  7393                           
  7394 ;; *************** function ___fladd *****************
  7395 ;; Defined at:
  7396 ;;		line 10 in file "C:\Program Files\Microchip\xc8\v2.20\pic\sources\c99\common\sprcadd.c"
  7397 ;; Parameters:    Size  Location     Type
  7398 ;;  b               4   14[COMRAM] unsigned char 
  7399 ;;  a               4   18[COMRAM] unsigned char 
  7400 ;; Auto vars:     Size  Location     Type
  7401 ;;  grs             1   29[COMRAM] unsigned char 
  7402 ;;  bexp            1   28[COMRAM] unsigned char 
  7403 ;;  aexp            1   27[COMRAM] unsigned char 
  7404 ;;  signs           1   26[COMRAM] unsigned char 
  7405 ;; Return value:  Size  Location     Type
  7406 ;;                  4   14[COMRAM] unsigned char 
  7407 ;; Registers used:
  7408 ;;		wreg, status,2, status,0
  7409 ;; Tracked objects:
  7410 ;;		On entry : 0/0
  7411 ;;		On exit  : 0/0
  7412 ;;		Unchanged: 0/0
  7413 ;; Data sizes:     COMRAM   BANK0   BANK1   BANK2   BANK3   BANK4   BANK5   BANK6   BANK7
  7414 ;;      Params:         8       0       0       0       0       0       0       0       0
  7415 ;;      Locals:         4       0       0       0       0       0       0       0       0
  7416 ;;      Temps:          4       0       0       0       0       0       0       0       0
  7417 ;;      Totals:        16       0       0       0       0       0       0       0       0
  7418 ;;Total ram usage:       16 bytes
  7419 ;; Hardware stack levels used:    1
  7420 ;; This function calls:
  7421 ;;		Nothing
  7422 ;; This function is called by:
  7423 ;;		_main
  7424 ;;		___flsub
  7425 ;;		_powf
  7426 ;;		_sqrtf
  7427 ;; This function uses a non-reentrant model
  7428 ;;
  7429                           
  7430                           	psect	text10
  7431  00374E                     __ptext10:
  7432                           	callstack 0
  7433  00374E                     ___fladd:
  7434                           	callstack 28
  7435  00374E  5012               	movf	(___fladd@b+3)^0,w,c
  7436  003750  0B80               	andlw	128
  7437  003752  6E1B               	movwf	___fladd@signs^0,c
  7438  003754  5012               	movf	(___fladd@b+3)^0,w,c
  7439  003756  2412               	addwf	(___fladd@b+3)^0,w,c
  7440  003758  6E1D               	movwf	___fladd@bexp^0,c
  7441  00375A  AE11               	btfss	(___fladd@b+2)^0,7,c
  7442  00375C  EFB2  F01B         	goto	u1891
  7443  003760  EFB4  F01B         	goto	u1890
  7444  003764                     u1891:
  7445  003764  EFB5  F01B         	goto	l2271
  7446  003768                     u1890:
  7447  003768  801D               	bsf	___fladd@bexp^0,0,c
  7448  00376A                     l2271:
  7449  00376A  501D               	movf	___fladd@bexp^0,w,c
  7450  00376C  B4D8               	btfsc	status,2,c
  7451  00376E  EFBB  F01B         	goto	u1901
  7452  003772  EFBD  F01B         	goto	u1900
  7453  003776                     u1901:
  7454  003776  EFD2  F01B         	goto	l2281
  7455  00377A                     u1900:
  7456  00377A  281D               	incf	___fladd@bexp^0,w,c
  7457  00377C  A4D8               	btfss	status,2,c
  7458  00377E  EFC3  F01B         	goto	u1911
  7459  003782  EFC5  F01B         	goto	u1910
  7460  003786                     u1911:
  7461  003786  EFCD  F01B         	goto	l2277
  7462  00378A                     u1910:
  7463  00378A  0E00               	movlw	0
  7464  00378C  6E0F               	movwf	___fladd@b^0,c
  7465  00378E  0E00               	movlw	0
  7466  003790  6E10               	movwf	(___fladd@b+1)^0,c
  7467  003792  0E00               	movlw	0
  7468  003794  6E11               	movwf	(___fladd@b+2)^0,c
  7469  003796  0E00               	movlw	0
  7470  003798  6E12               	movwf	(___fladd@b+3)^0,c
  7471  00379A                     l2277:
  7472  00379A  8E11               	bsf	(___fladd@b+2)^0,7,c
  7473  00379C  0E00               	movlw	0
  7474  00379E  6E12               	movwf	(___fladd@b+3)^0,c
  7475  0037A0  EFDA  F01B         	goto	l2283
  7476  0037A4                     l2281:
  7477  0037A4  0E00               	movlw	0
  7478  0037A6  6E0F               	movwf	___fladd@b^0,c
  7479  0037A8  0E00               	movlw	0
  7480  0037AA  6E10               	movwf	(___fladd@b+1)^0,c
  7481  0037AC  0E00               	movlw	0
  7482  0037AE  6E11               	movwf	(___fladd@b+2)^0,c
  7483  0037B0  0E00               	movlw	0
  7484  0037B2  6E12               	movwf	(___fladd@b+3)^0,c
  7485  0037B4                     l2283:
  7486  0037B4  5016               	movf	(___fladd@a+3)^0,w,c
  7487  0037B6  0B80               	andlw	128
  7488  0037B8  6E1C               	movwf	___fladd@aexp^0,c
  7489  0037BA  501B               	movf	___fladd@signs^0,w,c
  7490  0037BC  181C               	xorwf	___fladd@aexp^0,w,c
  7491  0037BE  B4D8               	btfsc	status,2,c
  7492  0037C0  EFE4  F01B         	goto	u1921
  7493  0037C4  EFE6  F01B         	goto	u1920
  7494  0037C8                     u1921:
  7495  0037C8  EFE7  F01B         	goto	l2289
  7496  0037CC                     u1920:
  7497  0037CC  8C1B               	bsf	___fladd@signs^0,6,c
  7498  0037CE                     l2289:
  7499  0037CE  5016               	movf	(___fladd@a+3)^0,w,c
  7500  0037D0  2416               	addwf	(___fladd@a+3)^0,w,c
  7501  0037D2  6E1C               	movwf	___fladd@aexp^0,c
  7502  0037D4  AE15               	btfss	(___fladd@a+2)^0,7,c
  7503  0037D6  EFEF  F01B         	goto	u1931
  7504  0037DA  EFF1  F01B         	goto	u1930
  7505  0037DE                     u1931:
  7506  0037DE  EFF2  F01B         	goto	l2295
  7507  0037E2                     u1930:
  7508  0037E2  801C               	bsf	___fladd@aexp^0,0,c
  7509  0037E4                     l2295:
  7510  0037E4  501C               	movf	___fladd@aexp^0,w,c
  7511  0037E6  B4D8               	btfsc	status,2,c
  7512  0037E8  EFF8  F01B         	goto	u1941
  7513  0037EC  EFFA  F01B         	goto	u1940
  7514  0037F0                     u1941:
  7515  0037F0  EF0F  F01C         	goto	l2305
  7516  0037F4                     u1940:
  7517  0037F4  281C               	incf	___fladd@aexp^0,w,c
  7518  0037F6  A4D8               	btfss	status,2,c
  7519  0037F8  EF00  F01C         	goto	u1951
  7520  0037FC  EF02  F01C         	goto	u1950
  7521  003800                     u1951:
  7522  003800  EF0A  F01C         	goto	l2301
  7523  003804                     u1950:
  7524  003804  0E00               	movlw	0
  7525  003806  6E13               	movwf	___fladd@a^0,c
  7526  003808  0E00               	movlw	0
  7527  00380A  6E14               	movwf	(___fladd@a+1)^0,c
  7528  00380C  0E00               	movlw	0
  7529  00380E  6E15               	movwf	(___fladd@a+2)^0,c
  7530  003810  0E00               	movlw	0
  7531  003812  6E16               	movwf	(___fladd@a+3)^0,c
  7532  003814                     l2301:
  7533  003814  8E15               	bsf	(___fladd@a+2)^0,7,c
  7534  003816  0E00               	movlw	0
  7535  003818  6E16               	movwf	(___fladd@a+3)^0,c
  7536  00381A  EF17  F01C         	goto	l2307
  7537  00381E                     l2305:
  7538  00381E  0E00               	movlw	0
  7539  003820  6E13               	movwf	___fladd@a^0,c
  7540  003822  0E00               	movlw	0
  7541  003824  6E14               	movwf	(___fladd@a+1)^0,c
  7542  003826  0E00               	movlw	0
  7543  003828  6E15               	movwf	(___fladd@a+2)^0,c
  7544  00382A  0E00               	movlw	0
  7545  00382C  6E16               	movwf	(___fladd@a+3)^0,c
  7546  00382E                     l2307:
  7547  00382E  501D               	movf	___fladd@bexp^0,w,c
  7548  003830  5C1C               	subwf	___fladd@aexp^0,w,c
  7549  003832  B0D8               	btfsc	status,0,c
  7550  003834  EF1E  F01C         	goto	u1961
  7551  003838  EF20  F01C         	goto	u1960
  7552  00383C                     u1961:
  7553  00383C  EF47  F01C         	goto	l2343
  7554  003840                     u1960:
  7555  003840  AC1B               	btfss	___fladd@signs^0,6,c
  7556  003842  EF25  F01C         	goto	u1971
  7557  003846  EF27  F01C         	goto	u1970
  7558  00384A                     u1971:
  7559  00384A  EF29  F01C         	goto	l2313
  7560  00384E                     u1970:
  7561  00384E  0E80               	movlw	128
  7562  003850  1A1B               	xorwf	___fladd@signs^0,f,c
  7563  003852                     l2313:
  7564  003852  C01D  F01E         	movff	___fladd@bexp,___fladd@grs
  7565  003856  C01C  F01D         	movff	___fladd@aexp,___fladd@bexp
  7566  00385A  C01E  F01C         	movff	___fladd@grs,___fladd@aexp
  7567  00385E  C00F  F01E         	movff	___fladd@b,___fladd@grs
  7568  003862  C013  F00F         	movff	___fladd@a,___fladd@b
  7569  003866  C01E  F013         	movff	___fladd@grs,___fladd@a
  7570  00386A  C010  F01E         	movff	___fladd@b+1,___fladd@grs
  7571  00386E  C014  F010         	movff	___fladd@a+1,___fladd@b+1
  7572  003872  C01E  F014         	movff	___fladd@grs,___fladd@a+1
  7573  003876  C011  F01E         	movff	___fladd@b+2,___fladd@grs
  7574  00387A  C015  F011         	movff	___fladd@a+2,___fladd@b+2
  7575  00387E  C01E  F015         	movff	___fladd@grs,___fladd@a+2
  7576  003882  C012  F01E         	movff	___fladd@b+3,___fladd@grs
  7577  003886  C016  F012         	movff	___fladd@a+3,___fladd@b+3
  7578  00388A  C01E  F016         	movff	___fladd@grs,___fladd@a+3
  7579  00388E                     l2343:
  7580  00388E  0E00               	movlw	0
  7581  003890  6E1E               	movwf	___fladd@grs^0,c
  7582  003892  501D               	movf	___fladd@bexp^0,w,c
  7583  003894  C01C  F017         	movff	___fladd@aexp,??___fladd
  7584  003898  6A18               	clrf	(??___fladd+1)^0,c
  7585  00389A  5E17               	subwf	??___fladd^0,f,c
  7586  00389C  0E00               	movlw	0
  7587  00389E  5A18               	subwfb	(??___fladd+1)^0,f,c
  7588  0038A0  BE18               	btfsc	(??___fladd+1)^0,7,c
  7589  0038A2  EF5C  F01C         	goto	u1981
  7590  0038A6  5018               	movf	(??___fladd+1)^0,w,c
  7591  0038A8  E109               	bnz	u1980
  7592  0038AA  0E1A               	movlw	26
  7593  0038AC  5C17               	subwf	??___fladd^0,w,c
  7594  0038AE  A0D8               	btfss	status,0,c
  7595  0038B0  EF5C  F01C         	goto	u1981
  7596  0038B4  EF5E  F01C         	goto	u1980
  7597  0038B8                     u1981:
  7598  0038B8  EF95  F01C         	goto	l580
  7599  0038BC                     u1980:
  7600  0038BC  500F               	movf	___fladd@b^0,w,c
  7601  0038BE  1010               	iorwf	(___fladd@b+1)^0,w,c
  7602  0038C0  1011               	iorwf	(___fladd@b+2)^0,w,c
  7603  0038C2  1012               	iorwf	(___fladd@b+3)^0,w,c
  7604  0038C4  A4D8               	btfss	status,2,c
  7605  0038C6  EF67  F01C         	goto	u1991
  7606  0038CA  EF6A  F01C         	goto	u1990
  7607  0038CE                     u1991:
  7608  0038CE  0E01               	movlw	1
  7609  0038D0  EF6B  F01C         	goto	u2000
  7610  0038D4                     u1990:
  7611  0038D4  0E00               	movlw	0
  7612  0038D6                     u2000:
  7613  0038D6  6E1E               	movwf	___fladd@grs^0,c
  7614  0038D8  0E00               	movlw	0
  7615  0038DA  6E0F               	movwf	___fladd@b^0,c
  7616  0038DC  0E00               	movlw	0
  7617  0038DE  6E10               	movwf	(___fladd@b+1)^0,c
  7618  0038E0  0E00               	movlw	0
  7619  0038E2  6E11               	movwf	(___fladd@b+2)^0,c
  7620  0038E4  0E00               	movlw	0
  7621  0038E6  6E12               	movwf	(___fladd@b+3)^0,c
  7622  0038E8  C01C  F01D         	movff	___fladd@aexp,___fladd@bexp
  7623  0038EC  EF9E  F01C         	goto	l579
  7624  0038F0                     l581:
  7625  0038F0  A01E               	btfss	___fladd@grs^0,0,c
  7626  0038F2  EF7D  F01C         	goto	u2011
  7627  0038F6  EF7F  F01C         	goto	u2010
  7628  0038FA                     u2011:
  7629  0038FA  EF85  F01C         	goto	l2355
  7630  0038FE                     u2010:
  7631  0038FE  90D8               	bcf	status,0,c
  7632  003900  301E               	rrcf	___fladd@grs^0,w,c
  7633  003902  0901               	iorlw	1
  7634  003904  6E1E               	movwf	___fladd@grs^0,c
  7635  003906  EF87  F01C         	goto	l2357
  7636  00390A                     l2355:
  7637  00390A  90D8               	bcf	status,0,c
  7638  00390C  321E               	rrcf	___fladd@grs^0,f,c
  7639  00390E                     l2357:
  7640  00390E  A00F               	btfss	___fladd@b^0,0,c
  7641  003910  EF8C  F01C         	goto	u2021
  7642  003914  EF8E  F01C         	goto	u2020
  7643  003918                     u2021:
  7644  003918  EF8F  F01C         	goto	l2361
  7645  00391C                     u2020:
  7646  00391C  8E1E               	bsf	___fladd@grs^0,7,c
  7647  00391E                     l2361:
  7648  00391E  3412               	rlcf	(___fladd@b+3)^0,w,c
  7649  003920  3212               	rrcf	(___fladd@b+3)^0,f,c
  7650  003922  3211               	rrcf	(___fladd@b+2)^0,f,c
  7651  003924  3210               	rrcf	(___fladd@b+1)^0,f,c
  7652  003926  320F               	rrcf	___fladd@b^0,f,c
  7653  003928  2A1D               	incf	___fladd@bexp^0,f,c
  7654  00392A                     l580:
  7655  00392A  501C               	movf	___fladd@aexp^0,w,c
  7656  00392C  5C1D               	subwf	___fladd@bexp^0,w,c
  7657  00392E  A0D8               	btfss	status,0,c
  7658  003930  EF9C  F01C         	goto	u2031
  7659  003934  EF9E  F01C         	goto	u2030
  7660  003938                     u2031:
  7661  003938  EF78  F01C         	goto	l581
  7662  00393C                     u2030:
  7663  00393C                     l579:
  7664  00393C  BC1B               	btfsc	___fladd@signs^0,6,c
  7665  00393E  EFA3  F01C         	goto	u2041
  7666  003942  EFA5  F01C         	goto	u2040
  7667  003946                     u2041:
  7668  003946  EFE5  F01C         	goto	l2389
  7669  00394A                     u2040:
  7670  00394A  501D               	movf	___fladd@bexp^0,w,c
  7671  00394C  A4D8               	btfss	status,2,c
  7672  00394E  EFAB  F01C         	goto	u2051
  7673  003952  EFAD  F01C         	goto	u2050
  7674  003956                     u2051:
  7675  003956  EFB7  F01C         	goto	l2371
  7676  00395A                     u2050:
  7677  00395A  0E00               	movlw	0
  7678  00395C  6E0F               	movwf	?___fladd^0,c
  7679  00395E  0E00               	movlw	0
  7680  003960  6E10               	movwf	(?___fladd+1)^0,c
  7681  003962  0E00               	movlw	0
  7682  003964  6E11               	movwf	(?___fladd+2)^0,c
  7683  003966  0E00               	movlw	0
  7684  003968  6E12               	movwf	(?___fladd+3)^0,c
  7685  00396A  EF06  F01E         	goto	l588
  7686  00396E                     l2371:
  7687  00396E  5013               	movf	___fladd@a^0,w,c
  7688  003970  260F               	addwf	___fladd@b^0,f,c
  7689  003972  5014               	movf	(___fladd@a+1)^0,w,c
  7690  003974  2210               	addwfc	(___fladd@b+1)^0,f,c
  7691  003976  5015               	movf	(___fladd@a+2)^0,w,c
  7692  003978  2211               	addwfc	(___fladd@b+2)^0,f,c
  7693  00397A  5016               	movf	(___fladd@a+3)^0,w,c
  7694  00397C  2212               	addwfc	(___fladd@b+3)^0,f,c
  7695  00397E  A012               	btfss	(___fladd@b+3)^0,0,c
  7696  003980  EFC4  F01C         	goto	u2061
  7697  003984  EFC6  F01C         	goto	u2060
  7698  003988                     u2061:
  7699  003988  EF72  F01D         	goto	l2425
  7700  00398C                     u2060:
  7701  00398C  A01E               	btfss	___fladd@grs^0,0,c
  7702  00398E  EFCB  F01C         	goto	u2071
  7703  003992  EFCD  F01C         	goto	u2070
  7704  003996                     u2071:
  7705  003996  EFD3  F01C         	goto	l2379
  7706  00399A                     u2070:
  7707  00399A  90D8               	bcf	status,0,c
  7708  00399C  301E               	rrcf	___fladd@grs^0,w,c
  7709  00399E  0901               	iorlw	1
  7710  0039A0  6E1E               	movwf	___fladd@grs^0,c
  7711  0039A2  EFD5  F01C         	goto	l2381
  7712  0039A6                     l2379:
  7713  0039A6  90D8               	bcf	status,0,c
  7714  0039A8  321E               	rrcf	___fladd@grs^0,f,c
  7715  0039AA                     l2381:
  7716  0039AA  A00F               	btfss	___fladd@b^0,0,c
  7717  0039AC  EFDA  F01C         	goto	u2081
  7718  0039B0  EFDC  F01C         	goto	u2080
  7719  0039B4                     u2081:
  7720  0039B4  EFDD  F01C         	goto	l2385
  7721  0039B8                     u2080:
  7722  0039B8  8E1E               	bsf	___fladd@grs^0,7,c
  7723  0039BA                     l2385:
  7724  0039BA  3412               	rlcf	(___fladd@b+3)^0,w,c
  7725  0039BC  3212               	rrcf	(___fladd@b+3)^0,f,c
  7726  0039BE  3211               	rrcf	(___fladd@b+2)^0,f,c
  7727  0039C0  3210               	rrcf	(___fladd@b+1)^0,f,c
  7728  0039C2  320F               	rrcf	___fladd@b^0,f,c
  7729  0039C4  2A1D               	incf	___fladd@bexp^0,f,c
  7730  0039C6  EF72  F01D         	goto	l2425
  7731  0039CA                     l2389:
  7732  0039CA  5013               	movf	___fladd@a^0,w,c
  7733  0039CC  5C0F               	subwf	___fladd@b^0,w,c
  7734  0039CE  5014               	movf	(___fladd@a+1)^0,w,c
  7735  0039D0  5810               	subwfb	(___fladd@b+1)^0,w,c
  7736  0039D2  5015               	movf	(___fladd@a+2)^0,w,c
  7737  0039D4  5811               	subwfb	(___fladd@b+2)^0,w,c
  7738  0039D6  5012               	movf	(___fladd@b+3)^0,w,c
  7739  0039D8  0A80               	xorlw	128
  7740  0039DA  6E17               	movwf	??___fladd^0,c
  7741  0039DC  5016               	movf	(___fladd@a+3)^0,w,c
  7742  0039DE  0A80               	xorlw	128
  7743  0039E0  5817               	subwfb	??___fladd^0,w,c
  7744  0039E2  B0D8               	btfsc	status,0,c
  7745  0039E4  EFF6  F01C         	goto	u2091
  7746  0039E8  EFF8  F01C         	goto	u2090
  7747  0039EC                     u2091:
  7748  0039EC  EF23  F01D         	goto	l2399
  7749  0039F0                     u2090:
  7750  0039F0  500F               	movf	___fladd@b^0,w,c
  7751  0039F2  5C13               	subwf	___fladd@a^0,w,c
  7752  0039F4  6E17               	movwf	??___fladd^0,c
  7753  0039F6  5010               	movf	(___fladd@b+1)^0,w,c
  7754  0039F8  5814               	subwfb	(___fladd@a+1)^0,w,c
  7755  0039FA  6E18               	movwf	(??___fladd+1)^0,c
  7756  0039FC  5011               	movf	(___fladd@b+2)^0,w,c
  7757  0039FE  5815               	subwfb	(___fladd@a+2)^0,w,c
  7758  003A00  6E19               	movwf	(??___fladd+2)^0,c
  7759  003A02  5012               	movf	(___fladd@b+3)^0,w,c
  7760  003A04  5816               	subwfb	(___fladd@a+3)^0,w,c
  7761  003A06  6E1A               	movwf	(??___fladd+3)^0,c
  7762  003A08  0EFF               	movlw	255
  7763  003A0A  2417               	addwf	??___fladd^0,w,c
  7764  003A0C  6E0F               	movwf	___fladd@b^0,c
  7765  003A0E  0EFF               	movlw	255
  7766  003A10  2018               	addwfc	(??___fladd+1)^0,w,c
  7767  003A12  6E10               	movwf	(___fladd@b+1)^0,c
  7768  003A14  0EFF               	movlw	255
  7769  003A16  2019               	addwfc	(??___fladd+2)^0,w,c
  7770  003A18  6E11               	movwf	(___fladd@b+2)^0,c
  7771  003A1A  0EFF               	movlw	255
  7772  003A1C  201A               	addwfc	(??___fladd+3)^0,w,c
  7773  003A1E  6E12               	movwf	(___fladd@b+3)^0,c
  7774  003A20  0E80               	movlw	128
  7775  003A22  1A1B               	xorwf	___fladd@signs^0,f,c
  7776  003A24  6C1E               	negf	___fladd@grs^0,c
  7777  003A26  501E               	movf	___fladd@grs^0,w,c
  7778  003A28  A4D8               	btfss	status,2,c
  7779  003A2A  EF19  F01D         	goto	u2101
  7780  003A2E  EF1B  F01D         	goto	u2100
  7781  003A32                     u2101:
  7782  003A32  EF2B  F01D         	goto	l596
  7783  003A36                     u2100:
  7784  003A36  0E01               	movlw	1
  7785  003A38  260F               	addwf	___fladd@b^0,f,c
  7786  003A3A  0E00               	movlw	0
  7787  003A3C  2210               	addwfc	(___fladd@b+1)^0,f,c
  7788  003A3E  2211               	addwfc	(___fladd@b+2)^0,f,c
  7789  003A40  2212               	addwfc	(___fladd@b+3)^0,f,c
  7790  003A42  EF2B  F01D         	goto	l596
  7791  003A46                     l2399:
  7792  003A46  5013               	movf	___fladd@a^0,w,c
  7793  003A48  5E0F               	subwf	___fladd@b^0,f,c
  7794  003A4A  5014               	movf	(___fladd@a+1)^0,w,c
  7795  003A4C  5A10               	subwfb	(___fladd@b+1)^0,f,c
  7796  003A4E  5015               	movf	(___fladd@a+2)^0,w,c
  7797  003A50  5A11               	subwfb	(___fladd@b+2)^0,f,c
  7798  003A52  5016               	movf	(___fladd@a+3)^0,w,c
  7799  003A54  5A12               	subwfb	(___fladd@b+3)^0,f,c
  7800  003A56                     l596:
  7801  003A56  500F               	movf	___fladd@b^0,w,c
  7802  003A58  1010               	iorwf	(___fladd@b+1)^0,w,c
  7803  003A5A  1011               	iorwf	(___fladd@b+2)^0,w,c
  7804  003A5C  1012               	iorwf	(___fladd@b+3)^0,w,c
  7805  003A5E  A4D8               	btfss	status,2,c
  7806  003A60  EF34  F01D         	goto	u2111
  7807  003A64  EF36  F01D         	goto	u2110
  7808  003A68                     u2111:
  7809  003A68  EF6B  F01D         	goto	l2423
  7810  003A6C                     u2110:
  7811  003A6C  501E               	movf	___fladd@grs^0,w,c
  7812  003A6E  A4D8               	btfss	status,2,c
  7813  003A70  EF3C  F01D         	goto	u2121
  7814  003A74  EF3E  F01D         	goto	u2120
  7815  003A78                     u2121:
  7816  003A78  EF6B  F01D         	goto	l2423
  7817  003A7C                     u2120:
  7818  003A7C  0E00               	movlw	0
  7819  003A7E  6E0F               	movwf	?___fladd^0,c
  7820  003A80  0E00               	movlw	0
  7821  003A82  6E10               	movwf	(?___fladd+1)^0,c
  7822  003A84  0E00               	movlw	0
  7823  003A86  6E11               	movwf	(?___fladd+2)^0,c
  7824  003A88  0E00               	movlw	0
  7825  003A8A  6E12               	movwf	(?___fladd+3)^0,c
  7826  003A8C  EF06  F01E         	goto	l588
  7827  003A90                     l2407:
  7828  003A90  90D8               	bcf	status,0,c
  7829  003A92  360F               	rlcf	___fladd@b^0,f,c
  7830  003A94  3610               	rlcf	(___fladd@b+1)^0,f,c
  7831  003A96  3611               	rlcf	(___fladd@b+2)^0,f,c
  7832  003A98  3612               	rlcf	(___fladd@b+3)^0,f,c
  7833  003A9A  AE1E               	btfss	___fladd@grs^0,7,c
  7834  003A9C  EF52  F01D         	goto	u2131
  7835  003AA0  EF54  F01D         	goto	u2130
  7836  003AA4                     u2131:
  7837  003AA4  EF55  F01D         	goto	l2413
  7838  003AA8                     u2130:
  7839  003AA8  800F               	bsf	___fladd@b^0,0,c
  7840  003AAA                     l2413:
  7841  003AAA  A01E               	btfss	___fladd@grs^0,0,c
  7842  003AAC  EF5A  F01D         	goto	u2141
  7843  003AB0  EF5C  F01D         	goto	u2140
  7844  003AB4                     u2141:
  7845  003AB4  EF60  F01D         	goto	l2417
  7846  003AB8                     u2140:
  7847  003AB8  80D8               	bsf	status,0,c
  7848  003ABA  361E               	rlcf	___fladd@grs^0,f,c
  7849  003ABC  EF62  F01D         	goto	l2419
  7850  003AC0                     l2417:
  7851  003AC0  90D8               	bcf	status,0,c
  7852  003AC2  361E               	rlcf	___fladd@grs^0,f,c
  7853  003AC4                     l2419:
  7854  003AC4  501D               	movf	___fladd@bexp^0,w,c
  7855  003AC6  B4D8               	btfsc	status,2,c
  7856  003AC8  EF68  F01D         	goto	u2151
  7857  003ACC  EF6A  F01D         	goto	u2150
  7858  003AD0                     u2151:
  7859  003AD0  EF6B  F01D         	goto	l2423
  7860  003AD4                     u2150:
  7861  003AD4  061D               	decf	___fladd@bexp^0,f,c
  7862  003AD6                     l2423:
  7863  003AD6  AE11               	btfss	(___fladd@b+2)^0,7,c
  7864  003AD8  EF70  F01D         	goto	u2161
  7865  003ADC  EF72  F01D         	goto	u2160
  7866  003AE0                     u2161:
  7867  003AE0  EF48  F01D         	goto	l2407
  7868  003AE4                     u2160:
  7869  003AE4                     l2425:
  7870  003AE4  0E00               	movlw	0
  7871  003AE6  6E1C               	movwf	___fladd@aexp^0,c
  7872  003AE8  AE1E               	btfss	___fladd@grs^0,7,c
  7873  003AEA  EF79  F01D         	goto	u2171
  7874  003AEE  EF7B  F01D         	goto	u2170
  7875  003AF2                     u2171:
  7876  003AF2  EF93  F01D         	goto	l605
  7877  003AF6                     u2170:
  7878  003AF6  C01E  F017         	movff	___fladd@grs,??___fladd
  7879  003AFA  0E7F               	movlw	127
  7880  003AFC  1617               	andwf	??___fladd^0,f,c
  7881  003AFE  B4D8               	btfsc	status,2,c
  7882  003B00  EF84  F01D         	goto	u2181
  7883  003B04  EF86  F01D         	goto	u2180
  7884  003B08                     u2181:
  7885  003B08  EF8A  F01D         	goto	l606
  7886  003B0C                     u2180:
  7887  003B0C                     l2431:
  7888  003B0C  0E01               	movlw	1
  7889  003B0E  6E1C               	movwf	___fladd@aexp^0,c
  7890  003B10  EF93  F01D         	goto	l605
  7891  003B14                     l606:
  7892  003B14  A00F               	btfss	___fladd@b^0,0,c
  7893  003B16  EF8F  F01D         	goto	u2191
  7894  003B1A  EF91  F01D         	goto	u2190
  7895  003B1E                     u2191:
  7896  003B1E  EF93  F01D         	goto	l605
  7897  003B22                     u2190:
  7898  003B22  EF86  F01D         	goto	l2431
  7899  003B26                     l605:
  7900  003B26  501C               	movf	___fladd@aexp^0,w,c
  7901  003B28  B4D8               	btfsc	status,2,c
  7902  003B2A  EF99  F01D         	goto	u2201
  7903  003B2E  EF9B  F01D         	goto	u2200
  7904  003B32                     u2201:
  7905  003B32  EFC6  F01D         	goto	l2443
  7906  003B36                     u2200:
  7907  003B36  0E01               	movlw	1
  7908  003B38  260F               	addwf	___fladd@b^0,f,c
  7909  003B3A  0E00               	movlw	0
  7910  003B3C  2210               	addwfc	(___fladd@b+1)^0,f,c
  7911  003B3E  2211               	addwfc	(___fladd@b+2)^0,f,c
  7912  003B40  2212               	addwfc	(___fladd@b+3)^0,f,c
  7913  003B42  A012               	btfss	(___fladd@b+3)^0,0,c
  7914  003B44  EFA6  F01D         	goto	u2211
  7915  003B48  EFA8  F01D         	goto	u2210
  7916  003B4C                     u2211:
  7917  003B4C  EFC6  F01D         	goto	l2443
  7918  003B50                     u2210:
  7919  003B50  C00F  F017         	movff	___fladd@b,??___fladd
  7920  003B54  C010  F018         	movff	___fladd@b+1,??___fladd+1
  7921  003B58  C011  F019         	movff	___fladd@b+2,??___fladd+2
  7922  003B5C  C012  F01A         	movff	___fladd@b+3,??___fladd+3
  7923  003B60  341A               	rlcf	(??___fladd+3)^0,w,c
  7924  003B62  321A               	rrcf	(??___fladd+3)^0,f,c
  7925  003B64  3219               	rrcf	(??___fladd+2)^0,f,c
  7926  003B66  3218               	rrcf	(??___fladd+1)^0,f,c
  7927  003B68  3217               	rrcf	??___fladd^0,f,c
  7928  003B6A  C017  F00F         	movff	??___fladd,___fladd@b
  7929  003B6E  C018  F010         	movff	??___fladd+1,___fladd@b+1
  7930  003B72  C019  F011         	movff	??___fladd+2,___fladd@b+2
  7931  003B76  C01A  F012         	movff	??___fladd+3,___fladd@b+3
  7932  003B7A  281D               	incf	___fladd@bexp^0,w,c
  7933  003B7C  B4D8               	btfsc	status,2,c
  7934  003B7E  EFC3  F01D         	goto	u2221
  7935  003B82  EFC5  F01D         	goto	u2220
  7936  003B86                     u2221:
  7937  003B86  EFC6  F01D         	goto	l2443
  7938  003B8A                     u2220:
  7939  003B8A  2A1D               	incf	___fladd@bexp^0,f,c
  7940  003B8C                     l2443:
  7941  003B8C  281D               	incf	___fladd@bexp^0,w,c
  7942  003B8E  B4D8               	btfsc	status,2,c
  7943  003B90  EFCC  F01D         	goto	u2231
  7944  003B94  EFCE  F01D         	goto	u2230
  7945  003B98                     u2231:
  7946  003B98  EFD6  F01D         	goto	l2447
  7947  003B9C                     u2230:
  7948  003B9C  501D               	movf	___fladd@bexp^0,w,c
  7949  003B9E  A4D8               	btfss	status,2,c
  7950  003BA0  EFD4  F01D         	goto	u2241
  7951  003BA4  EFD6  F01D         	goto	u2240
  7952  003BA8                     u2241:
  7953  003BA8  EFE8  F01D         	goto	l2451
  7954  003BAC                     u2240:
  7955  003BAC                     l2447:
  7956  003BAC  0E00               	movlw	0
  7957  003BAE  6E0F               	movwf	___fladd@b^0,c
  7958  003BB0  0E00               	movlw	0
  7959  003BB2  6E10               	movwf	(___fladd@b+1)^0,c
  7960  003BB4  0E00               	movlw	0
  7961  003BB6  6E11               	movwf	(___fladd@b+2)^0,c
  7962  003BB8  0E00               	movlw	0
  7963  003BBA  6E12               	movwf	(___fladd@b+3)^0,c
  7964  003BBC  501D               	movf	___fladd@bexp^0,w,c
  7965  003BBE  A4D8               	btfss	status,2,c
  7966  003BC0  EFE4  F01D         	goto	u2251
  7967  003BC4  EFE6  F01D         	goto	u2250
  7968  003BC8                     u2251:
  7969  003BC8  EFE8  F01D         	goto	l2451
  7970  003BCC                     u2250:
  7971  003BCC  0E00               	movlw	0
  7972  003BCE  6E1B               	movwf	___fladd@signs^0,c
  7973  003BD0                     l2451:
  7974  003BD0  A01D               	btfss	___fladd@bexp^0,0,c
  7975  003BD2  EFED  F01D         	goto	u2261
  7976  003BD6  EFEF  F01D         	goto	u2260
  7977  003BDA                     u2261:
  7978  003BDA  EFF2  F01D         	goto	l2455
  7979  003BDE                     u2260:
  7980  003BDE  8E11               	bsf	(___fladd@b+2)^0,7,c
  7981  003BE0  EFF3  F01D         	goto	l2457
  7982  003BE4                     l2455:
  7983  003BE4  9E11               	bcf	(___fladd@b+2)^0,7,c
  7984  003BE6                     l2457:
  7985  003BE6  90D8               	bcf	status,0,c
  7986  003BE8  301D               	rrcf	___fladd@bexp^0,w,c
  7987  003BEA  6E12               	movwf	(___fladd@b+3)^0,c
  7988  003BEC  AE1B               	btfss	___fladd@signs^0,7,c
  7989  003BEE  EFFB  F01D         	goto	u2271
  7990  003BF2  EFFD  F01D         	goto	u2270
  7991  003BF6                     u2271:
  7992  003BF6  EFFE  F01D         	goto	l2463
  7993  003BFA                     u2270:
  7994  003BFA  8E12               	bsf	(___fladd@b+3)^0,7,c
  7995  003BFC                     l2463:
  7996  003BFC  C00F  F00F         	movff	___fladd@b,?___fladd
  7997  003C00  C010  F010         	movff	___fladd@b+1,?___fladd+1
  7998  003C04  C011  F011         	movff	___fladd@b+2,?___fladd+2
  7999  003C08  C012  F012         	movff	___fladd@b+3,?___fladd+3
  8000  003C0C                     l588:
  8001  003C0C  0012               	return		;funcret
  8002  003C0E                     __end_of___fladd:
  8003                           	callstack 0
  8004                           
  8005 ;; *************** function ___flneg *****************
  8006 ;; Defined at:
  8007 ;;		line 15 in file "C:\Program Files\Microchip\xc8\v2.20\pic\sources\c99\common\flneg.c"
  8008 ;; Parameters:    Size  Location     Type
  8009 ;;  f1              4    0[COMRAM] unsigned char 
  8010 ;; Auto vars:     Size  Location     Type
  8011 ;;		None
  8012 ;; Return value:  Size  Location     Type
  8013 ;;                  4    0[COMRAM] unsigned char 
  8014 ;; Registers used:
  8015 ;;		wreg, status,2, status,0
  8016 ;; Tracked objects:
  8017 ;;		On entry : 0/0
  8018 ;;		On exit  : 0/0
  8019 ;;		Unchanged: 0/0
  8020 ;; Data sizes:     COMRAM   BANK0   BANK1   BANK2   BANK3   BANK4   BANK5   BANK6   BANK7
  8021 ;;      Params:         4       0       0       0       0       0       0       0       0
  8022 ;;      Locals:         0       0       0       0       0       0       0       0       0
  8023 ;;      Temps:          0       0       0       0       0       0       0       0       0
  8024 ;;      Totals:         4       0       0       0       0       0       0       0       0
  8025 ;;Total ram usage:        4 bytes
  8026 ;; Hardware stack levels used:    1
  8027 ;; This function calls:
  8028 ;;		Nothing
  8029 ;; This function is called by:
  8030 ;;		_powf
  8031 ;; This function uses a non-reentrant model
  8032 ;;
  8033                           
  8034                           	psect	text11
  8035  004E64                     __ptext11:
  8036                           	callstack 0
  8037  004E64                     ___flneg:
  8038                           	callstack 29
  8039  004E64  5001               	movf	___flneg@f1^0,w,c
  8040  004E66  1002               	iorwf	(___flneg@f1+1)^0,w,c
  8041  004E68  1003               	iorwf	(___flneg@f1+2)^0,w,c
  8042  004E6A  1004               	iorwf	(___flneg@f1+3)^0,w,c
  8043  004E6C  B4D8               	btfsc	status,2,c
  8044  004E6E  EF3B  F027         	goto	u2751
  8045  004E72  EF3D  F027         	goto	u2750
  8046  004E76                     u2751:
  8047  004E76  EF45  F027         	goto	l2773
  8048  004E7A                     u2750:
  8049  004E7A  0E00               	movlw	0
  8050  004E7C  1A01               	xorwf	___flneg@f1^0,f,c
  8051  004E7E  0E00               	movlw	0
  8052  004E80  1A02               	xorwf	(___flneg@f1+1)^0,f,c
  8053  004E82  0E00               	movlw	0
  8054  004E84  1A03               	xorwf	(___flneg@f1+2)^0,f,c
  8055  004E86  0E80               	movlw	128
  8056  004E88  1A04               	xorwf	(___flneg@f1+3)^0,f,c
  8057  004E8A                     l2773:
  8058  004E8A  C001  F001         	movff	___flneg@f1,?___flneg
  8059  004E8E  C002  F002         	movff	___flneg@f1+1,?___flneg+1
  8060  004E92  C003  F003         	movff	___flneg@f1+2,?___flneg+2
  8061  004E96  C004  F004         	movff	___flneg@f1+3,?___flneg+3
  8062  004E9A  0012               	return		;funcret
  8063  004E9C                     __end_of___flneg:
  8064                           	callstack 0
  8065                           
  8066 ;; *************** function ___fldiv *****************
  8067 ;; Defined at:
  8068 ;;		line 11 in file "C:\Program Files\Microchip\xc8\v2.20\pic\sources\c99\common\sprcdiv.c"
  8069 ;; Parameters:    Size  Location     Type
  8070 ;;  b               4   63[COMRAM] unsigned char 
  8071 ;;  a               4   67[COMRAM] unsigned char 
  8072 ;; Auto vars:     Size  Location     Type
  8073 ;;  grs             4   82[COMRAM] unsigned long 
  8074 ;;  rem             4   75[COMRAM] unsigned long 
  8075 ;;  new_exp         2   80[COMRAM] short 
  8076 ;;  aexp            1   87[COMRAM] unsigned char 
  8077 ;;  bexp            1   86[COMRAM] unsigned char 
  8078 ;;  sign            1   79[COMRAM] unsigned char 
  8079 ;; Return value:  Size  Location     Type
  8080 ;;                  4   63[COMRAM] unsigned char 
  8081 ;; Registers used:
  8082 ;;		wreg, status,2, status,0
  8083 ;; Tracked objects:
  8084 ;;		On entry : 0/0
  8085 ;;		On exit  : 0/0
  8086 ;;		Unchanged: 0/0
  8087 ;; Data sizes:     COMRAM   BANK0   BANK1   BANK2   BANK3   BANK4   BANK5   BANK6   BANK7
  8088 ;;      Params:         8       0       0       0       0       0       0       0       0
  8089 ;;      Locals:        13       0       0       0       0       0       0       0       0
  8090 ;;      Temps:          4       0       0       0       0       0       0       0       0
  8091 ;;      Totals:        25       0       0       0       0       0       0       0       0
  8092 ;;Total ram usage:       25 bytes
  8093 ;; Hardware stack levels used:    1
  8094 ;; This function calls:
  8095 ;;		Nothing
  8096 ;; This function is called by:
  8097 ;;		_powf
  8098 ;; This function uses a non-reentrant model
  8099 ;;
  8100                           
  8101                           	psect	text12
  8102  004490                     __ptext12:
  8103                           	callstack 0
  8104  004490                     ___fldiv:
  8105                           	callstack 29
  8106  004490  5043               	movf	(___fldiv@b+3)^0,w,c
  8107  004492  0B80               	andlw	128
  8108  004494  6E50               	movwf	___fldiv@sign^0,c
  8109  004496  5043               	movf	(___fldiv@b+3)^0,w,c
  8110  004498  2443               	addwf	(___fldiv@b+3)^0,w,c
  8111  00449A  6E57               	movwf	___fldiv@bexp^0,c
  8112  00449C  AE42               	btfss	(___fldiv@b+2)^0,7,c
  8113  00449E  EF53  F022         	goto	u2521
  8114  0044A2  EF55  F022         	goto	u2520
  8115  0044A6                     u2521:
  8116  0044A6  EF56  F022         	goto	l2631
  8117  0044AA                     u2520:
  8118  0044AA  8057               	bsf	___fldiv@bexp^0,0,c
  8119  0044AC                     l2631:
  8120  0044AC  5057               	movf	___fldiv@bexp^0,w,c
  8121  0044AE  B4D8               	btfsc	status,2,c
  8122  0044B0  EF5C  F022         	goto	u2531
  8123  0044B4  EF5E  F022         	goto	u2530
  8124  0044B8                     u2531:
  8125  0044B8  EF73  F022         	goto	l2641
  8126  0044BC                     u2530:
  8127  0044BC  2857               	incf	___fldiv@bexp^0,w,c
  8128  0044BE  A4D8               	btfss	status,2,c
  8129  0044C0  EF64  F022         	goto	u2541
  8130  0044C4  EF66  F022         	goto	u2540
  8131  0044C8                     u2541:
  8132  0044C8  EF6E  F022         	goto	l2637
  8133  0044CC                     u2540:
  8134  0044CC  0E00               	movlw	0
  8135  0044CE  6E40               	movwf	___fldiv@b^0,c
  8136  0044D0  0E00               	movlw	0
  8137  0044D2  6E41               	movwf	(___fldiv@b+1)^0,c
  8138  0044D4  0E00               	movlw	0
  8139  0044D6  6E42               	movwf	(___fldiv@b+2)^0,c
  8140  0044D8  0E00               	movlw	0
  8141  0044DA  6E43               	movwf	(___fldiv@b+3)^0,c
  8142  0044DC                     l2637:
  8143  0044DC  8E42               	bsf	(___fldiv@b+2)^0,7,c
  8144  0044DE  0E00               	movlw	0
  8145  0044E0  6E43               	movwf	(___fldiv@b+3)^0,c
  8146  0044E2  EF7B  F022         	goto	l2643
  8147  0044E6                     l2641:
  8148  0044E6  0E00               	movlw	0
  8149  0044E8  6E40               	movwf	___fldiv@b^0,c
  8150  0044EA  0E00               	movlw	0
  8151  0044EC  6E41               	movwf	(___fldiv@b+1)^0,c
  8152  0044EE  0E00               	movlw	0
  8153  0044F0  6E42               	movwf	(___fldiv@b+2)^0,c
  8154  0044F2  0E00               	movlw	0
  8155  0044F4  6E43               	movwf	(___fldiv@b+3)^0,c
  8156  0044F6                     l2643:
  8157  0044F6  5047               	movf	(___fldiv@a+3)^0,w,c
  8158  0044F8  0B80               	andlw	128
  8159  0044FA  1A50               	xorwf	___fldiv@sign^0,f,c
  8160  0044FC  5047               	movf	(___fldiv@a+3)^0,w,c
  8161  0044FE  2447               	addwf	(___fldiv@a+3)^0,w,c
  8162  004500  6E58               	movwf	___fldiv@aexp^0,c
  8163  004502  AE46               	btfss	(___fldiv@a+2)^0,7,c
  8164  004504  EF86  F022         	goto	u2551
  8165  004508  EF88  F022         	goto	u2550
  8166  00450C                     u2551:
  8167  00450C  EF89  F022         	goto	l2651
  8168  004510                     u2550:
  8169  004510  8058               	bsf	___fldiv@aexp^0,0,c
  8170  004512                     l2651:
  8171  004512  5058               	movf	___fldiv@aexp^0,w,c
  8172  004514  B4D8               	btfsc	status,2,c
  8173  004516  EF8F  F022         	goto	u2561
  8174  00451A  EF91  F022         	goto	u2560
  8175  00451E                     u2561:
  8176  00451E  EFA6  F022         	goto	l2661
  8177  004522                     u2560:
  8178  004522  2858               	incf	___fldiv@aexp^0,w,c
  8179  004524  A4D8               	btfss	status,2,c
  8180  004526  EF97  F022         	goto	u2571
  8181  00452A  EF99  F022         	goto	u2570
  8182  00452E                     u2571:
  8183  00452E  EFA1  F022         	goto	l2657
  8184  004532                     u2570:
  8185  004532  0E00               	movlw	0
  8186  004534  6E44               	movwf	___fldiv@a^0,c
  8187  004536  0E00               	movlw	0
  8188  004538  6E45               	movwf	(___fldiv@a+1)^0,c
  8189  00453A  0E00               	movlw	0
  8190  00453C  6E46               	movwf	(___fldiv@a+2)^0,c
  8191  00453E  0E00               	movlw	0
  8192  004540  6E47               	movwf	(___fldiv@a+3)^0,c
  8193  004542                     l2657:
  8194  004542  8E46               	bsf	(___fldiv@a+2)^0,7,c
  8195  004544  0E00               	movlw	0
  8196  004546  6E47               	movwf	(___fldiv@a+3)^0,c
  8197  004548  EFAE  F022         	goto	l2663
  8198  00454C                     l2661:
  8199  00454C  0E00               	movlw	0
  8200  00454E  6E44               	movwf	___fldiv@a^0,c
  8201  004550  0E00               	movlw	0
  8202  004552  6E45               	movwf	(___fldiv@a+1)^0,c
  8203  004554  0E00               	movlw	0
  8204  004556  6E46               	movwf	(___fldiv@a+2)^0,c
  8205  004558  0E00               	movlw	0
  8206  00455A  6E47               	movwf	(___fldiv@a+3)^0,c
  8207  00455C                     l2663:
  8208  00455C  5044               	movf	___fldiv@a^0,w,c
  8209  00455E  1045               	iorwf	(___fldiv@a+1)^0,w,c
  8210  004560  1046               	iorwf	(___fldiv@a+2)^0,w,c
  8211  004562  1047               	iorwf	(___fldiv@a+3)^0,w,c
  8212  004564  A4D8               	btfss	status,2,c
  8213  004566  EFB7  F022         	goto	u2581
  8214  00456A  EFB9  F022         	goto	u2580
  8215  00456E                     u2581:
  8216  00456E  EFD1  F022         	goto	l2675
  8217  004572                     u2580:
  8218  004572  0E00               	movlw	0
  8219  004574  6E40               	movwf	___fldiv@b^0,c
  8220  004576  0E00               	movlw	0
  8221  004578  6E41               	movwf	(___fldiv@b+1)^0,c
  8222  00457A  0E00               	movlw	0
  8223  00457C  6E42               	movwf	(___fldiv@b+2)^0,c
  8224  00457E  0E00               	movlw	0
  8225  004580  6E43               	movwf	(___fldiv@b+3)^0,c
  8226  004582  0E80               	movlw	128
  8227  004584  1242               	iorwf	(___fldiv@b+2)^0,f,c
  8228  004586  0E7F               	movlw	127
  8229  004588  1243               	iorwf	(___fldiv@b+3)^0,f,c
  8230  00458A                     l2669:
  8231  00458A  5050               	movf	___fldiv@sign^0,w,c
  8232  00458C  1243               	iorwf	(___fldiv@b+3)^0,f,c
  8233  00458E  C040  F040         	movff	___fldiv@b,?___fldiv
  8234  004592  C041  F041         	movff	___fldiv@b+1,?___fldiv+1
  8235  004596  C042  F042         	movff	___fldiv@b+2,?___fldiv+2
  8236  00459A  C043  F043         	movff	___fldiv@b+3,?___fldiv+3
  8237  00459E  EF14  F024         	goto	l633
  8238  0045A2                     l2675:
  8239  0045A2  5057               	movf	___fldiv@bexp^0,w,c
  8240  0045A4  A4D8               	btfss	status,2,c
  8241  0045A6  EFD7  F022         	goto	u2591
  8242  0045AA  EFD9  F022         	goto	u2590
  8243  0045AE                     u2591:
  8244  0045AE  EFE3  F022         	goto	l2683
  8245  0045B2                     u2590:
  8246  0045B2  0E00               	movlw	0
  8247  0045B4  6E40               	movwf	?___fldiv^0,c
  8248  0045B6  0E00               	movlw	0
  8249  0045B8  6E41               	movwf	(?___fldiv+1)^0,c
  8250  0045BA  0E00               	movlw	0
  8251  0045BC  6E42               	movwf	(?___fldiv+2)^0,c
  8252  0045BE  0E00               	movlw	0
  8253  0045C0  6E43               	movwf	(?___fldiv+3)^0,c
  8254  0045C2  EF14  F024         	goto	l633
  8255  0045C6                     l2683:
  8256  0045C6  5058               	movf	___fldiv@aexp^0,w,c
  8257  0045C8  C057  F048         	movff	___fldiv@bexp,??___fldiv
  8258  0045CC  6A49               	clrf	(??___fldiv+1)^0,c
  8259  0045CE  5E48               	subwf	??___fldiv^0,f,c
  8260  0045D0  0E00               	movlw	0
  8261  0045D2  5A49               	subwfb	(??___fldiv+1)^0,f,c
  8262  0045D4  0E7F               	movlw	127
  8263  0045D6  2448               	addwf	??___fldiv^0,w,c
  8264  0045D8  6E51               	movwf	___fldiv@new_exp^0,c
  8265  0045DA  0E00               	movlw	0
  8266  0045DC  2049               	addwfc	(??___fldiv+1)^0,w,c
  8267  0045DE  6E52               	movwf	(___fldiv@new_exp+1)^0,c
  8268  0045E0  C040  F04C         	movff	___fldiv@b,___fldiv@rem
  8269  0045E4  C041  F04D         	movff	___fldiv@b+1,___fldiv@rem+1
  8270  0045E8  C042  F04E         	movff	___fldiv@b+2,___fldiv@rem+2
  8271  0045EC  C043  F04F         	movff	___fldiv@b+3,___fldiv@rem+3
  8272  0045F0  0E00               	movlw	0
  8273  0045F2  6E40               	movwf	___fldiv@b^0,c
  8274  0045F4  0E00               	movlw	0
  8275  0045F6  6E41               	movwf	(___fldiv@b+1)^0,c
  8276  0045F8  0E00               	movlw	0
  8277  0045FA  6E42               	movwf	(___fldiv@b+2)^0,c
  8278  0045FC  0E00               	movlw	0
  8279  0045FE  6E43               	movwf	(___fldiv@b+3)^0,c
  8280  004600  0E00               	movlw	0
  8281  004602  6E53               	movwf	___fldiv@grs^0,c
  8282  004604  0E00               	movlw	0
  8283  004606  6E54               	movwf	(___fldiv@grs+1)^0,c
  8284  004608  0E00               	movlw	0
  8285  00460A  6E55               	movwf	(___fldiv@grs+2)^0,c
  8286  00460C  0E00               	movlw	0
  8287  00460E  6E56               	movwf	(___fldiv@grs+3)^0,c
  8288  004610  0E00               	movlw	0
  8289  004612  6E58               	movwf	___fldiv@aexp^0,c
  8290  004614  EF44  F023         	goto	l635
  8291  004618                     l2693:
  8292  004618  5058               	movf	___fldiv@aexp^0,w,c
  8293  00461A  B4D8               	btfsc	status,2,c
  8294  00461C  EF12  F023         	goto	u2601
  8295  004620  EF14  F023         	goto	u2600
  8296  004624                     u2601:
  8297  004624  EF2B  F023         	goto	l2701
  8298  004628                     u2600:
  8299  004628  90D8               	bcf	status,0,c
  8300  00462A  364C               	rlcf	___fldiv@rem^0,f,c
  8301  00462C  364D               	rlcf	(___fldiv@rem+1)^0,f,c
  8302  00462E  364E               	rlcf	(___fldiv@rem+2)^0,f,c
  8303  004630  364F               	rlcf	(___fldiv@rem+3)^0,f,c
  8304  004632  90D8               	bcf	status,0,c
  8305  004634  3640               	rlcf	___fldiv@b^0,f,c
  8306  004636  3641               	rlcf	(___fldiv@b+1)^0,f,c
  8307  004638  3642               	rlcf	(___fldiv@b+2)^0,f,c
  8308  00463A  3643               	rlcf	(___fldiv@b+3)^0,f,c
  8309  00463C  AE56               	btfss	(___fldiv@grs+3)^0,7,c
  8310  00463E  EF23  F023         	goto	u2611
  8311  004642  EF25  F023         	goto	u2610
  8312  004646                     u2611:
  8313  004646  EF26  F023         	goto	l638
  8314  00464A                     u2610:
  8315  00464A  8040               	bsf	___fldiv@b^0,0,c
  8316  00464C                     l638:
  8317  00464C  90D8               	bcf	status,0,c
  8318  00464E  3653               	rlcf	___fldiv@grs^0,f,c
  8319  004650  3654               	rlcf	(___fldiv@grs+1)^0,f,c
  8320  004652  3655               	rlcf	(___fldiv@grs+2)^0,f,c
  8321  004654  3656               	rlcf	(___fldiv@grs+3)^0,f,c
  8322  004656                     l2701:
  8323  004656  5044               	movf	___fldiv@a^0,w,c
  8324  004658  5C4C               	subwf	___fldiv@rem^0,w,c
  8325  00465A  5045               	movf	(___fldiv@a+1)^0,w,c
  8326  00465C  584D               	subwfb	(___fldiv@rem+1)^0,w,c
  8327  00465E  5046               	movf	(___fldiv@a+2)^0,w,c
  8328  004660  584E               	subwfb	(___fldiv@rem+2)^0,w,c
  8329  004662  5047               	movf	(___fldiv@a+3)^0,w,c
  8330  004664  584F               	subwfb	(___fldiv@rem+3)^0,w,c
  8331  004666  A0D8               	btfss	status,0,c
  8332  004668  EF38  F023         	goto	u2621
  8333  00466C  EF3A  F023         	goto	u2620
  8334  004670                     u2621:
  8335  004670  EF43  F023         	goto	l2707
  8336  004674                     u2620:
  8337  004674  8C56               	bsf	(___fldiv@grs+3)^0,6,c
  8338  004676  5044               	movf	___fldiv@a^0,w,c
  8339  004678  5E4C               	subwf	___fldiv@rem^0,f,c
  8340  00467A  5045               	movf	(___fldiv@a+1)^0,w,c
  8341  00467C  5A4D               	subwfb	(___fldiv@rem+1)^0,f,c
  8342  00467E  5046               	movf	(___fldiv@a+2)^0,w,c
  8343  004680  5A4E               	subwfb	(___fldiv@rem+2)^0,f,c
  8344  004682  5047               	movf	(___fldiv@a+3)^0,w,c
  8345  004684  5A4F               	subwfb	(___fldiv@rem+3)^0,f,c
  8346  004686                     l2707:
  8347  004686  2A58               	incf	___fldiv@aexp^0,f,c
  8348  004688                     l635:
  8349  004688  0E19               	movlw	25
  8350  00468A  6458               	cpfsgt	___fldiv@aexp^0,c
  8351  00468C  EF4A  F023         	goto	u2631
  8352  004690  EF4C  F023         	goto	u2630
  8353  004694                     u2631:
  8354  004694  EF0C  F023         	goto	l2693
  8355  004698                     u2630:
  8356  004698  504C               	movf	___fldiv@rem^0,w,c
  8357  00469A  104D               	iorwf	(___fldiv@rem+1)^0,w,c
  8358  00469C  104E               	iorwf	(___fldiv@rem+2)^0,w,c
  8359  00469E  104F               	iorwf	(___fldiv@rem+3)^0,w,c
  8360  0046A0  B4D8               	btfsc	status,2,c
  8361  0046A2  EF55  F023         	goto	u2641
  8362  0046A6  EF57  F023         	goto	u2640
  8363  0046AA                     u2641:
  8364  0046AA  EF6F  F023         	goto	l2719
  8365  0046AE                     u2640:
  8366  0046AE  8053               	bsf	___fldiv@grs^0,0,c
  8367  0046B0  EF6F  F023         	goto	l2719
  8368  0046B4                     l2713:
  8369  0046B4  90D8               	bcf	status,0,c
  8370  0046B6  3640               	rlcf	___fldiv@b^0,f,c
  8371  0046B8  3641               	rlcf	(___fldiv@b+1)^0,f,c
  8372  0046BA  3642               	rlcf	(___fldiv@b+2)^0,f,c
  8373  0046BC  3643               	rlcf	(___fldiv@b+3)^0,f,c
  8374  0046BE  AE56               	btfss	(___fldiv@grs+3)^0,7,c
  8375  0046C0  EF64  F023         	goto	u2651
  8376  0046C4  EF66  F023         	goto	u2650
  8377  0046C8                     u2651:
  8378  0046C8  EF67  F023         	goto	l644
  8379  0046CC                     u2650:
  8380  0046CC  8040               	bsf	___fldiv@b^0,0,c
  8381  0046CE                     l644:
  8382  0046CE  90D8               	bcf	status,0,c
  8383  0046D0  3653               	rlcf	___fldiv@grs^0,f,c
  8384  0046D2  3654               	rlcf	(___fldiv@grs+1)^0,f,c
  8385  0046D4  3655               	rlcf	(___fldiv@grs+2)^0,f,c
  8386  0046D6  3656               	rlcf	(___fldiv@grs+3)^0,f,c
  8387  0046D8  0651               	decf	___fldiv@new_exp^0,f,c
  8388  0046DA  A0D8               	btfss	status,0,c
  8389  0046DC  0652               	decf	(___fldiv@new_exp+1)^0,f,c
  8390  0046DE                     l2719:
  8391  0046DE  AE42               	btfss	(___fldiv@b+2)^0,7,c
  8392  0046E0  EF74  F023         	goto	u2661
  8393  0046E4  EF76  F023         	goto	u2660
  8394  0046E8                     u2661:
  8395  0046E8  EF5A  F023         	goto	l2713
  8396  0046EC                     u2660:
  8397  0046EC  0E00               	movlw	0
  8398  0046EE  6E58               	movwf	___fldiv@aexp^0,c
  8399  0046F0  AE56               	btfss	(___fldiv@grs+3)^0,7,c
  8400  0046F2  EF7D  F023         	goto	u2671
  8401  0046F6  EF7F  F023         	goto	u2670
  8402  0046FA                     u2671:
  8403  0046FA  EFA3  F023         	goto	l646
  8404  0046FE                     u2670:
  8405  0046FE  0EFF               	movlw	255
  8406  004700  1453               	andwf	___fldiv@grs^0,w,c
  8407  004702  6E48               	movwf	??___fldiv^0,c
  8408  004704  0EFF               	movlw	255
  8409  004706  1454               	andwf	(___fldiv@grs+1)^0,w,c
  8410  004708  6E49               	movwf	(??___fldiv+1)^0,c
  8411  00470A  0EFF               	movlw	255
  8412  00470C  1455               	andwf	(___fldiv@grs+2)^0,w,c
  8413  00470E  6E4A               	movwf	(??___fldiv+2)^0,c
  8414  004710  0E7F               	movlw	127
  8415  004712  1456               	andwf	(___fldiv@grs+3)^0,w,c
  8416  004714  6E4B               	movwf	(??___fldiv+3)^0,c
  8417  004716  5048               	movf	??___fldiv^0,w,c
  8418  004718  1049               	iorwf	(??___fldiv+1)^0,w,c
  8419  00471A  104A               	iorwf	(??___fldiv+2)^0,w,c
  8420  00471C  104B               	iorwf	(??___fldiv+3)^0,w,c
  8421  00471E  B4D8               	btfsc	status,2,c
  8422  004720  EF94  F023         	goto	u2681
  8423  004724  EF96  F023         	goto	u2680
  8424  004728                     u2681:
  8425  004728  EF9A  F023         	goto	l647
  8426  00472C                     u2680:
  8427  00472C                     l2727:
  8428  00472C  0E01               	movlw	1
  8429  00472E  6E58               	movwf	___fldiv@aexp^0,c
  8430  004730  EFA3  F023         	goto	l646
  8431  004734                     l647:
  8432  004734  A040               	btfss	___fldiv@b^0,0,c
  8433  004736  EF9F  F023         	goto	u2691
  8434  00473A  EFA1  F023         	goto	u2690
  8435  00473E                     u2691:
  8436  00473E  EFA3  F023         	goto	l646
  8437  004742                     u2690:
  8438  004742  EF96  F023         	goto	l2727
  8439  004746                     l646:
  8440  004746  5058               	movf	___fldiv@aexp^0,w,c
  8441  004748  B4D8               	btfsc	status,2,c
  8442  00474A  EFA9  F023         	goto	u2701
  8443  00474E  EFAB  F023         	goto	u2700
  8444  004752                     u2701:
  8445  004752  EFCF  F023         	goto	l2739
  8446  004756                     u2700:
  8447  004756  0E01               	movlw	1
  8448  004758  2640               	addwf	___fldiv@b^0,f,c
  8449  00475A  0E00               	movlw	0
  8450  00475C  2241               	addwfc	(___fldiv@b+1)^0,f,c
  8451  00475E  2242               	addwfc	(___fldiv@b+2)^0,f,c
  8452  004760  2243               	addwfc	(___fldiv@b+3)^0,f,c
  8453  004762  A043               	btfss	(___fldiv@b+3)^0,0,c
  8454  004764  EFB6  F023         	goto	u2711
  8455  004768  EFB8  F023         	goto	u2710
  8456  00476C                     u2711:
  8457  00476C  EFCF  F023         	goto	l2739
  8458  004770                     u2710:
  8459  004770  C040  F048         	movff	___fldiv@b,??___fldiv
  8460  004774  C041  F049         	movff	___fldiv@b+1,??___fldiv+1
  8461  004778  C042  F04A         	movff	___fldiv@b+2,??___fldiv+2
  8462  00477C  C043  F04B         	movff	___fldiv@b+3,??___fldiv+3
  8463  004780  344B               	rlcf	(??___fldiv+3)^0,w,c
  8464  004782  324B               	rrcf	(??___fldiv+3)^0,f,c
  8465  004784  324A               	rrcf	(??___fldiv+2)^0,f,c
  8466  004786  3249               	rrcf	(??___fldiv+1)^0,f,c
  8467  004788  3248               	rrcf	??___fldiv^0,f,c
  8468  00478A  C048  F040         	movff	??___fldiv,___fldiv@b
  8469  00478E  C049  F041         	movff	??___fldiv+1,___fldiv@b+1
  8470  004792  C04A  F042         	movff	??___fldiv+2,___fldiv@b+2
  8471  004796  C04B  F043         	movff	??___fldiv+3,___fldiv@b+3
  8472  00479A  4A51               	infsnz	___fldiv@new_exp^0,f,c
  8473  00479C  2A52               	incf	(___fldiv@new_exp+1)^0,f,c
  8474  00479E                     l2739:
  8475  00479E  BE52               	btfsc	(___fldiv@new_exp+1)^0,7,c
  8476  0047A0  EFDA  F023         	goto	u2721
  8477  0047A4  5052               	movf	(___fldiv@new_exp+1)^0,w,c
  8478  0047A6  E108               	bnz	u2720
  8479  0047A8  2851               	incf	___fldiv@new_exp^0,w,c
  8480  0047AA  A0D8               	btfss	status,0,c
  8481  0047AC  EFDA  F023         	goto	u2721
  8482  0047B0  EFDC  F023         	goto	u2720
  8483  0047B4                     u2721:
  8484  0047B4  EFE7  F023         	goto	l2743
  8485  0047B8                     u2720:
  8486  0047B8  0E00               	movlw	0
  8487  0047BA  6E52               	movwf	(___fldiv@new_exp+1)^0,c
  8488  0047BC  6851               	setf	___fldiv@new_exp^0,c
  8489  0047BE  0E00               	movlw	0
  8490  0047C0  6E40               	movwf	___fldiv@b^0,c
  8491  0047C2  0E00               	movlw	0
  8492  0047C4  6E41               	movwf	(___fldiv@b+1)^0,c
  8493  0047C6  0E00               	movlw	0
  8494  0047C8  6E42               	movwf	(___fldiv@b+2)^0,c
  8495  0047CA  0E00               	movlw	0
  8496  0047CC  6E43               	movwf	(___fldiv@b+3)^0,c
  8497  0047CE                     l2743:
  8498  0047CE  BE52               	btfsc	(___fldiv@new_exp+1)^0,7,c
  8499  0047D0  EFF4  F023         	goto	u2730
  8500  0047D4  5052               	movf	(___fldiv@new_exp+1)^0,w,c
  8501  0047D6  E106               	bnz	u2731
  8502  0047D8  0451               	decf	___fldiv@new_exp^0,w,c
  8503  0047DA  B0D8               	btfsc	status,0,c
  8504  0047DC  EFF2  F023         	goto	u2731
  8505  0047E0  EFF4  F023         	goto	u2730
  8506  0047E4                     u2731:
  8507  0047E4  EF02  F024         	goto	l2747
  8508  0047E8                     u2730:
  8509  0047E8  0E00               	movlw	0
  8510  0047EA  6E52               	movwf	(___fldiv@new_exp+1)^0,c
  8511  0047EC  0E00               	movlw	0
  8512  0047EE  6E51               	movwf	___fldiv@new_exp^0,c
  8513  0047F0  0E00               	movlw	0
  8514  0047F2  6E40               	movwf	___fldiv@b^0,c
  8515  0047F4  0E00               	movlw	0
  8516  0047F6  6E41               	movwf	(___fldiv@b+1)^0,c
  8517  0047F8  0E00               	movlw	0
  8518  0047FA  6E42               	movwf	(___fldiv@b+2)^0,c
  8519  0047FC  0E00               	movlw	0
  8520  0047FE  6E43               	movwf	(___fldiv@b+3)^0,c
  8521  004800  0E00               	movlw	0
  8522  004802  6E50               	movwf	___fldiv@sign^0,c
  8523  004804                     l2747:
  8524  004804  C051  F057         	movff	___fldiv@new_exp,___fldiv@bexp
  8525  004808  A057               	btfss	___fldiv@bexp^0,0,c
  8526  00480A  EF09  F024         	goto	u2741
  8527  00480E  EF0B  F024         	goto	u2740
  8528  004812                     u2741:
  8529  004812  EF0E  F024         	goto	l2753
  8530  004816                     u2740:
  8531  004816  8E42               	bsf	(___fldiv@b+2)^0,7,c
  8532  004818  EF0F  F024         	goto	l2755
  8533  00481C                     l2753:
  8534  00481C  9E42               	bcf	(___fldiv@b+2)^0,7,c
  8535  00481E                     l2755:
  8536  00481E  90D8               	bcf	status,0,c
  8537  004820  3057               	rrcf	___fldiv@bexp^0,w,c
  8538  004822  6E43               	movwf	(___fldiv@b+3)^0,c
  8539  004824  EFC5  F022         	goto	l2669
  8540  004828                     l633:
  8541  004828  0012               	return		;funcret
  8542  00482A                     __end_of___fldiv:
  8543                           	callstack 0
  8544                           
  8545 ;; *************** function ___fltol *****************
  8546 ;; Defined at:
  8547 ;;		line 43 in file "C:\Program Files\Microchip\xc8\v2.20\pic\sources\c99\common\fltol.c"
  8548 ;; Parameters:    Size  Location     Type
  8549 ;;  f1              4   88[COMRAM] unsigned char 
  8550 ;; Auto vars:     Size  Location     Type
  8551 ;;  exp1            1   93[COMRAM] unsigned char 
  8552 ;;  sign1           1   92[COMRAM] unsigned char 
  8553 ;; Return value:  Size  Location     Type
  8554 ;;                  4   88[COMRAM] long 
  8555 ;; Registers used:
  8556 ;;		wreg, status,2, status,0
  8557 ;; Tracked objects:
  8558 ;;		On entry : 0/0
  8559 ;;		On exit  : 0/0
  8560 ;;		Unchanged: 0/0
  8561 ;; Data sizes:     COMRAM   BANK0   BANK1   BANK2   BANK3   BANK4   BANK5   BANK6   BANK7
  8562 ;;      Params:         4       0       0       0       0       0       0       0       0
  8563 ;;      Locals:         2       0       0       0       0       0       0       0       0
  8564 ;;      Temps:          0       4       0       0       0       0       0       0       0
  8565 ;;      Totals:         6       4       0       0       0       0       0       0       0
  8566 ;;Total ram usage:       10 bytes
  8567 ;; Hardware stack levels used:    1
  8568 ;; This function calls:
  8569 ;;		Nothing
  8570 ;; This function is called by:
  8571 ;;		_main
  8572 ;; This function uses a non-reentrant model
  8573 ;;
  8574                           
  8575                           	psect	text13
  8576  004C12                     __ptext13:
  8577                           	callstack 0
  8578  004C12                     ___fltol:
  8579                           	callstack 30
  8580  004C12  345B               	rlcf	(___fltol@f1+2)^0,w,c
  8581  004C14  345C               	rlcf	(___fltol@f1+3)^0,w,c
  8582  004C16  6E5E               	movwf	___fltol@exp1^0,c
  8583  004C18  505E               	movf	___fltol@exp1^0,w,c
  8584  004C1A  A4D8               	btfss	status,2,c
  8585  004C1C  EF12  F026         	goto	u3641
  8586  004C20  EF14  F026         	goto	u3640
  8587  004C24                     u3641:
  8588  004C24  EF1E  F026         	goto	l3403
  8589  004C28                     u3640:
  8590  004C28                     l3399:
  8591  004C28  0E00               	movlw	0
  8592  004C2A  6E59               	movwf	?___fltol^0,c
  8593  004C2C  0E00               	movlw	0
  8594  004C2E  6E5A               	movwf	(?___fltol+1)^0,c
  8595  004C30  0E00               	movlw	0
  8596  004C32  6E5B               	movwf	(?___fltol+2)^0,c
  8597  004C34  0E00               	movlw	0
  8598  004C36  6E5C               	movwf	(?___fltol+3)^0,c
  8599  004C38  EF8C  F026         	goto	l348
  8600  004C3C                     l3403:
  8601  004C3C  C059  F099         	movff	___fltol@f1,??___fltol
  8602  004C40  C05A  F09A         	movff	___fltol@f1+1,??___fltol+1
  8603  004C44  C05B  F09B         	movff	___fltol@f1+2,??___fltol+2
  8604  004C48  C05C  F09C         	movff	___fltol@f1+3,??___fltol+3
  8605  004C4C  0E20               	movlw	32
  8606  004C4E  EF2F  F026         	goto	u3650
  8607  004C52                     u3655:
  8608  004C52  0100               	movlb	0	; () banked
  8609  004C54  90D8               	bcf	status,0,c
  8610  004C56  339C               	rrcf	(??___fltol+3)& (0+255),f,b
  8611  004C58  339B               	rrcf	(??___fltol+2)& (0+255),f,b
  8612  004C5A  339A               	rrcf	(??___fltol+1)& (0+255),f,b
  8613  004C5C  3399               	rrcf	??___fltol& (0+255),f,b
  8614  004C5E                     u3650:
  8615  004C5E  2EE8               	decfsz	wreg,f,c
  8616  004C60  EF29  F026         	goto	u3655
  8617  004C64  5199               	movf	??___fltol& (0+255),w,b
  8618  004C66  6E5D               	movwf	___fltol@sign1^0,c
  8619  004C68                     
  8620                           ; BSR set to: 0
  8621  004C68  8E5B               	bsf	(___fltol@f1+2)^0,7,c
  8622  004C6A                     
  8623                           ; BSR set to: 0
  8624  004C6A  0EFF               	movlw	255
  8625  004C6C  1659               	andwf	___fltol@f1^0,f,c
  8626  004C6E  0EFF               	movlw	255
  8627  004C70  165A               	andwf	(___fltol@f1+1)^0,f,c
  8628  004C72  0EFF               	movlw	255
  8629  004C74  165B               	andwf	(___fltol@f1+2)^0,f,c
  8630  004C76  0E00               	movlw	0
  8631  004C78  165C               	andwf	(___fltol@f1+3)^0,f,c
  8632  004C7A                     
  8633                           ; BSR set to: 0
  8634  004C7A  0E96               	movlw	150
  8635  004C7C  5E5E               	subwf	___fltol@exp1^0,f,c
  8636  004C7E                     
  8637                           ; BSR set to: 0
  8638  004C7E  BE5E               	btfsc	___fltol@exp1^0,7,c
  8639  004C80  EF46  F026         	goto	u3660
  8640  004C84  EF44  F026         	goto	u3661
  8641  004C88                     u3661:
  8642  004C88  EF5C  F026         	goto	l3423
  8643  004C8C                     u3660:
  8644  004C8C                     
  8645                           ; BSR set to: 0
  8646  004C8C  505E               	movf	___fltol@exp1^0,w,c
  8647  004C8E  0A80               	xorlw	128
  8648  004C90  0F97               	addlw	151
  8649  004C92  B0D8               	btfsc	status,0,c
  8650  004C94  EF4E  F026         	goto	u3671
  8651  004C98  EF50  F026         	goto	u3670
  8652  004C9C                     u3671:
  8653  004C9C  EF52  F026         	goto	l3419
  8654  004CA0                     u3670:
  8655  004CA0  EF14  F026         	goto	l3399
  8656  004CA4                     l3419:
  8657  004CA4  90D8               	bcf	status,0,c
  8658  004CA6  325C               	rrcf	(___fltol@f1+3)^0,f,c
  8659  004CA8  325B               	rrcf	(___fltol@f1+2)^0,f,c
  8660  004CAA  325A               	rrcf	(___fltol@f1+1)^0,f,c
  8661  004CAC  3259               	rrcf	___fltol@f1^0,f,c
  8662  004CAE  3E5E               	incfsz	___fltol@exp1^0,f,c
  8663  004CB0  EF52  F026         	goto	l3419
  8664  004CB4  EF74  F026         	goto	l3433
  8665  004CB8                     l3423:
  8666                           
  8667                           ; BSR set to: 0
  8668  004CB8  0E1F               	movlw	31
  8669  004CBA  645E               	cpfsgt	___fltol@exp1^0,c
  8670  004CBC  EF62  F026         	goto	u3681
  8671  004CC0  EF64  F026         	goto	u3680
  8672  004CC4                     u3681:
  8673  004CC4  EF6C  F026         	goto	l3431
  8674  004CC8                     u3680:
  8675  004CC8  EF14  F026         	goto	l3399
  8676  004CCC                     l3429:
  8677  004CCC  90D8               	bcf	status,0,c
  8678  004CCE  3659               	rlcf	___fltol@f1^0,f,c
  8679  004CD0  365A               	rlcf	(___fltol@f1+1)^0,f,c
  8680  004CD2  365B               	rlcf	(___fltol@f1+2)^0,f,c
  8681  004CD4  365C               	rlcf	(___fltol@f1+3)^0,f,c
  8682  004CD6  065E               	decf	___fltol@exp1^0,f,c
  8683  004CD8                     l3431:
  8684  004CD8  505E               	movf	___fltol@exp1^0,w,c
  8685  004CDA  A4D8               	btfss	status,2,c
  8686  004CDC  EF72  F026         	goto	u3691
  8687  004CE0  EF74  F026         	goto	u3690
  8688  004CE4                     u3691:
  8689  004CE4  EF66  F026         	goto	l3429
  8690  004CE8                     u3690:
  8691  004CE8                     l3433:
  8692  004CE8  505D               	movf	___fltol@sign1^0,w,c
  8693  004CEA  B4D8               	btfsc	status,2,c
  8694  004CEC  EF7A  F026         	goto	u3701
  8695  004CF0  EF7C  F026         	goto	u3700
  8696  004CF4                     u3701:
  8697  004CF4  EF84  F026         	goto	l3437
  8698  004CF8                     u3700:
  8699  004CF8  1E5C               	comf	(___fltol@f1+3)^0,f,c
  8700  004CFA  1E5B               	comf	(___fltol@f1+2)^0,f,c
  8701  004CFC  1E5A               	comf	(___fltol@f1+1)^0,f,c
  8702  004CFE  6C59               	negf	___fltol@f1^0,c
  8703  004D00  0E00               	movlw	0
  8704  004D02  225A               	addwfc	(___fltol@f1+1)^0,f,c
  8705  004D04  225B               	addwfc	(___fltol@f1+2)^0,f,c
  8706  004D06  225C               	addwfc	(___fltol@f1+3)^0,f,c
  8707  004D08                     l3437:
  8708  004D08  C059  F059         	movff	___fltol@f1,?___fltol
  8709  004D0C  C05A  F05A         	movff	___fltol@f1+1,?___fltol+1
  8710  004D10  C05B  F05B         	movff	___fltol@f1+2,?___fltol+2
  8711  004D14  C05C  F05C         	movff	___fltol@f1+3,?___fltol+3
  8712  004D18                     l348:
  8713  004D18  0012               	return		;funcret
  8714  004D1A                     __end_of___fltol:
  8715                           	callstack 0
  8716                           
  8717                           	psect	param0
  8718  0000                     
  8719                           	psect	idloc
  8720                           
  8721                           ;Config register IDLOC0 @ 0x200000
  8722                           ;	unspecified, using default values
  8723  200000                     	org	2097152
  8724  200000  FF                 	db	255
  8725                           
  8726                           ;Config register IDLOC1 @ 0x200001
  8727                           ;	unspecified, using default values
  8728  200001                     	org	2097153
  8729  200001  FF                 	db	255
  8730                           
  8731                           ;Config register IDLOC2 @ 0x200002
  8732                           ;	unspecified, using default values
  8733  200002                     	org	2097154
  8734  200002  FF                 	db	255
  8735                           
  8736                           ;Config register IDLOC3 @ 0x200003
  8737                           ;	unspecified, using default values
  8738  200003                     	org	2097155
  8739  200003  FF                 	db	255
  8740                           
  8741                           ;Config register IDLOC4 @ 0x200004
  8742                           ;	unspecified, using default values
  8743  200004                     	org	2097156
  8744  200004  FF                 	db	255
  8745                           
  8746                           ;Config register IDLOC5 @ 0x200005
  8747                           ;	unspecified, using default values
  8748  200005                     	org	2097157
  8749  200005  FF                 	db	255
  8750                           
  8751                           ;Config register IDLOC6 @ 0x200006
  8752                           ;	unspecified, using default values
  8753  200006                     	org	2097158
  8754  200006  FF                 	db	255
  8755                           
  8756                           ;Config register IDLOC7 @ 0x200007
  8757                           ;	unspecified, using default values
  8758  200007                     	org	2097159
  8759  200007  FF                 	db	255
  8760                           
  8761                           	psect	config
  8762                           
  8763                           ;Config register CONFIG1L @ 0x300000
  8764                           ;	unspecified, using default values
  8765                           ;	PLL Prescaler Selection bits
  8766                           ;	PLLDIV = 0x0, unprogrammed default
  8767                           ;	System Clock Postscaler Selection bits
  8768                           ;	CPUDIV = 0x0, unprogrammed default
  8769                           ;	USB Clock Selection bit (used in Full-Speed USB mode only; UCFG:FSEN = 1)
  8770                           ;	USBDIV = 0x0, unprogrammed default
  8771  300000                     	org	3145728
  8772  300000  00                 	db	0
  8773                           
  8774                           ;Config register CONFIG1H @ 0x300001
  8775                           ;	Oscillator Selection bits
  8776                           ;	FOSC = INTOSCIO_EC, Internal oscillator, port function on RA6, EC used by USB (INTIO)
  8777                           ;	Fail-Safe Clock Monitor Enable bit
  8778                           ;	FCMEN = 0x0, unprogrammed default
  8779                           ;	Internal/External Oscillator Switchover bit
  8780                           ;	IESO = 0x0, unprogrammed default
  8781  300001                     	org	3145729
  8782  300001  08                 	db	8
  8783                           
  8784                           ;Config register CONFIG2L @ 0x300002
  8785                           ;	unspecified, using default values
  8786                           ;	Power-up Timer Enable bit
  8787                           ;	PWRT = 0x1, unprogrammed default
  8788                           ;	Brown-out Reset Enable bits
  8789                           ;	BOR = 0x3, unprogrammed default
  8790                           ;	Brown-out Reset Voltage bits
  8791                           ;	BORV = 0x3, unprogrammed default
  8792                           ;	USB Voltage Regulator Enable bit
  8793                           ;	VREGEN = 0x0, unprogrammed default
  8794  300002                     	org	3145730
  8795  300002  1F                 	db	31
  8796                           
  8797                           ;Config register CONFIG2H @ 0x300003
  8798                           ;	unspecified, using default values
  8799                           ;	Watchdog Timer Enable bit
  8800                           ;	WDT = 0x1, unprogrammed default
  8801                           ;	Watchdog Timer Postscale Select bits
  8802                           ;	WDTPS = 0xF, unprogrammed default
  8803  300003                     	org	3145731
  8804  300003  1F                 	db	31
  8805                           
  8806                           ; Padding undefined space
  8807  300004                     	org	3145732
  8808  300004  FF                 	db	255
  8809                           
  8810                           ;Config register CONFIG3H @ 0x300005
  8811                           ;	unspecified, using default values
  8812                           ;	CCP2 MUX bit
  8813                           ;	CCP2MX = 0x1, unprogrammed default
  8814                           ;	PORTB A/D Enable bit
  8815                           ;	PBADEN = 0x1, unprogrammed default
  8816                           ;	Low-Power Timer 1 Oscillator Enable bit
  8817                           ;	LPT1OSC = 0x0, unprogrammed default
  8818                           ;	MCLR Pin Enable bit
  8819                           ;	MCLRE = 0x1, unprogrammed default
  8820  300005                     	org	3145733
  8821  300005  83                 	db	131
  8822                           
  8823                           ;Config register CONFIG4L @ 0x300006
  8824                           ;	unspecified, using default values
  8825                           ;	Stack Full/Underflow Reset Enable bit
  8826                           ;	STVREN = 0x1, unprogrammed default
  8827                           ;	Single-Supply ICSP Enable bit
  8828                           ;	LVP = 0x1, unprogrammed default
  8829                           ;	Dedicated In-Circuit Debug/Programming Port (ICPORT) Enable bit
  8830                           ;	ICPRT = 0x0, unprogrammed default
  8831                           ;	Extended Instruction Set Enable bit
  8832                           ;	XINST = 0x0, unprogrammed default
  8833                           ;	Background Debugger Enable bit
  8834                           ;	DEBUG = 0x1, unprogrammed default
  8835  300006                     	org	3145734
  8836  300006  85                 	db	133
  8837                           
  8838                           ; Padding undefined space
  8839  300007                     	org	3145735
  8840  300007  FF                 	db	255
  8841                           
  8842                           ;Config register CONFIG5L @ 0x300008
  8843                           ;	unspecified, using default values
  8844                           ;	Code Protection bit
  8845                           ;	CP0 = 0x1, unprogrammed default
  8846                           ;	Code Protection bit
  8847                           ;	CP1 = 0x1, unprogrammed default
  8848                           ;	Code Protection bit
  8849                           ;	CP2 = 0x1, unprogrammed default
  8850                           ;	Code Protection bit
  8851                           ;	CP3 = 0x1, unprogrammed default
  8852  300008                     	org	3145736
  8853  300008  0F                 	db	15
  8854                           
  8855                           ;Config register CONFIG5H @ 0x300009
  8856                           ;	unspecified, using default values
  8857                           ;	Boot Block Code Protection bit
  8858                           ;	CPB = 0x1, unprogrammed default
  8859                           ;	Data EEPROM Code Protection bit
  8860                           ;	CPD = 0x1, unprogrammed default
  8861  300009                     	org	3145737
  8862  300009  C0                 	db	192
  8863                           
  8864                           ;Config register CONFIG6L @ 0x30000A
  8865                           ;	unspecified, using default values
  8866                           ;	Write Protection bit
  8867                           ;	WRT0 = 0x1, unprogrammed default
  8868                           ;	Write Protection bit
  8869                           ;	WRT1 = 0x1, unprogrammed default
  8870                           ;	Write Protection bit
  8871                           ;	WRT2 = 0x1, unprogrammed default
  8872                           ;	Write Protection bit
  8873                           ;	WRT3 = 0x1, unprogrammed default
  8874  30000A                     	org	3145738
  8875  30000A  0F                 	db	15
  8876                           
  8877                           ;Config register CONFIG6H @ 0x30000B
  8878                           ;	unspecified, using default values
  8879                           ;	Configuration Register Write Protection bit
  8880                           ;	WRTC = 0x1, unprogrammed default
  8881                           ;	Boot Block Write Protection bit
  8882                           ;	WRTB = 0x1, unprogrammed default
  8883                           ;	Data EEPROM Write Protection bit
  8884                           ;	WRTD = 0x1, unprogrammed default
  8885  30000B                     	org	3145739
  8886  30000B  E0                 	db	224
  8887                           
  8888                           ;Config register CONFIG7L @ 0x30000C
  8889                           ;	unspecified, using default values
  8890                           ;	Table Read Protection bit
  8891                           ;	EBTR0 = 0x1, unprogrammed default
  8892                           ;	Table Read Protection bit
  8893                           ;	EBTR1 = 0x1, unprogrammed default
  8894                           ;	Table Read Protection bit
  8895                           ;	EBTR2 = 0x1, unprogrammed default
  8896                           ;	Table Read Protection bit
  8897                           ;	EBTR3 = 0x1, unprogrammed default
  8898  30000C                     	org	3145740
  8899  30000C  0F                 	db	15
  8900                           
  8901                           ;Config register CONFIG7H @ 0x30000D
  8902                           ;	unspecified, using default values
  8903                           ;	Boot Block Table Read Protection bit
  8904                           ;	EBTRB = 0x1, unprogrammed default
  8905  30000D                     	org	3145741
  8906  30000D  40                 	db	64
  8907                           tosu	equ	0xFFF
  8908                           tosh	equ	0xFFE
  8909                           tosl	equ	0xFFD
  8910                           stkptr	equ	0xFFC
  8911                           pclatu	equ	0xFFB
  8912                           pclath	equ	0xFFA
  8913                           pcl	equ	0xFF9
  8914                           tblptru	equ	0xFF8
  8915                           tblptrh	equ	0xFF7
  8916                           tblptrl	equ	0xFF6
  8917                           tablat	equ	0xFF5
  8918                           prodh	equ	0xFF4
  8919                           prodl	equ	0xFF3
  8920                           indf0	equ	0xFEF
  8921                           postinc0	equ	0xFEE
  8922                           postdec0	equ	0xFED
  8923                           preinc0	equ	0xFEC
  8924                           plusw0	equ	0xFEB
  8925                           fsr0h	equ	0xFEA
  8926                           fsr0l	equ	0xFE9
  8927                           wreg	equ	0xFE8
  8928                           indf1	equ	0xFE7
  8929                           postinc1	equ	0xFE6
  8930                           postdec1	equ	0xFE5
  8931                           preinc1	equ	0xFE4
  8932                           plusw1	equ	0xFE3
  8933                           fsr1h	equ	0xFE2
  8934                           fsr1l	equ	0xFE1
  8935                           bsr	equ	0xFE0
  8936                           indf2	equ	0xFDF
  8937                           postinc2	equ	0xFDE
  8938                           postdec2	equ	0xFDD
  8939                           preinc2	equ	0xFDC
  8940                           plusw2	equ	0xFDB
  8941                           fsr2h	equ	0xFDA
  8942                           fsr2l	equ	0xFD9
  8943                           status	equ	0xFD8

Data Sizes:
    Strings     1
    Constant    124
    Data        0
    BSS         6
    Persistent  0
    Stack       0

Auto Spaces:
    Space          Size  Autos    Used
    COMRAM           95     94      94
    BANK0           160     87      93
    BANK1           256    188     188
    BANK2           256      0       0
    BANK3           256      0       0
    BANK4           256      0       0
    BANK5           256      0       0
    BANK6           256      0       0
    BANK7           256      0       0

Pointer List with Targets:

    nanf@s	PTR const unsigned char  size(2) Largest target is 1
		 -> STR_1(CODE[1]), 


Critical Paths under _main in COMRAM

    _main->___fltol
    _powf->___fldiv
    _sqrtf->___flge
    ___flge->___flsub
    _scalbnf->___flmul
    ___flmul->___fladd
    ___flsub->___flmul
    ___fladd->___xxtofl
    ___fldiv->___flsub

Critical Paths under _main in BANK0

    _main->___fltol
    _powf->_sqrtf
    ___fltol->_powf

Critical Paths under _main in BANK1

    _main->_powf
    ___fltol->_powf

Critical Paths under _main in BANK2

    None.

Critical Paths under _main in BANK3

    None.

Critical Paths under _main in BANK4

    None.

Critical Paths under _main in BANK5

    None.

Critical Paths under _main in BANK6

    None.

Critical Paths under _main in BANK7

    None.

Call Graph Tables:

 ---------------------------------------------------------------------------------
 (Depth) Function   	        Calls       Base Space   Used Autos Params    Refs
 ---------------------------------------------------------------------------------
 (0) _main                                                26    26      0   99695
                                             61 BANK0     26    26      0
                            ___fladd
                            ___flsub
                            ___fltol
                           ___xxtofl
                               _powf
 ---------------------------------------------------------------------------------
 (1) _powf                                               205   197      8   77150
                                             40 BANK0     17     9      8
                                              0 BANK1    188   188      0
                            ___fladd
                            ___fldiv
                             ___flge
                            ___flmul
                            ___flneg
                            ___flsub
                           ___xxtofl
                              _fabsf
                            _scalbnf
                              _sqrtf
 ---------------------------------------------------------------------------------
 (2) _sqrtf                                               49    45      4   21037
                                             75 COMRAM     9     5      4
                                              0 BANK0     40    40      0
                            ___fladd
                             ___flge
                            ___flmul
                               _nanf
 ---------------------------------------------------------------------------------
 (3) _nanf                                                 8     4      4      99
                                              0 COMRAM     8     4      4
 ---------------------------------------------------------------------------------
 (3) ___flge                                              12     4      8     790
                                             63 COMRAM    12     4      8
                            ___fladd (ARG)
                            ___flsub (ARG)
 ---------------------------------------------------------------------------------
 (2) _scalbnf                                             18    12      6   12119
                                             55 COMRAM    18    12      6
                            ___flmul
 ---------------------------------------------------------------------------------
 (3) ___flmul                                             25    17      8   11624
                                             30 COMRAM    25    17      8
                            ___fladd (ARG)
 ---------------------------------------------------------------------------------
 (2) _fabsf                                                8     4      4     123
                                              0 COMRAM     8     4      4
 ---------------------------------------------------------------------------------
 (2) ___xxtofl                                            14    10      4     854
                                              0 COMRAM    14    10      4
 ---------------------------------------------------------------------------------
 (2) ___flsub                                              8     0      8   13073
                                             55 COMRAM     8     0      8
                            ___fladd
                            ___flmul (ARG)
                           ___xxtofl (ARG)
 ---------------------------------------------------------------------------------
 (3) ___fladd                                             16     8      8    7582
                                             14 COMRAM    16     8      8
                           ___xxtofl (ARG)
 ---------------------------------------------------------------------------------
 (2) ___flneg                                              4     0      4     197
                                              0 COMRAM     4     0      4
 ---------------------------------------------------------------------------------
 (2) ___fldiv                                             25    17      8    2159
                                             63 COMRAM    25    17      8
                            ___fladd (ARG)
                            ___flmul (ARG)
                            ___flsub (ARG)
 ---------------------------------------------------------------------------------
 (1) ___fltol                                             10     6      4     533
                                             88 COMRAM     6     2      4
                                             57 BANK0      4     4      0
                            ___fladd (ARG)
                            ___flsub (ARG)
                           ___xxtofl (ARG)
                               _powf (ARG)
 ---------------------------------------------------------------------------------
 Estimated maximum stack depth 3
 ---------------------------------------------------------------------------------

 Call Graph Graphs:

 _main (ROOT)
   ___fladd
     ___xxtofl (ARG)
   ___flsub
     ___fladd
       ___xxtofl (ARG)
     ___flmul (ARG)
       ___fladd (ARG)
         ___xxtofl (ARG)
     ___xxtofl (ARG)
   ___fltol
     ___fladd (ARG)
       ___xxtofl (ARG)
     ___flsub (ARG)
       ___fladd
         ___xxtofl (ARG)
       ___flmul (ARG)
         ___fladd (ARG)
           ___xxtofl (ARG)
       ___xxtofl (ARG)
     ___xxtofl (ARG)
     _powf (ARG)
       ___fladd
         ___xxtofl (ARG)
       ___fldiv
         ___fladd (ARG)
           ___xxtofl (ARG)
         ___flmul (ARG)
           ___fladd (ARG)
             ___xxtofl (ARG)
         ___flsub (ARG)
           ___fladd
             ___xxtofl (ARG)
           ___flmul (ARG)
             ___fladd (ARG)
               ___xxtofl (ARG)
           ___xxtofl (ARG)
       ___flge
         ___fladd (ARG)
           ___xxtofl (ARG)
         ___flsub (ARG)
           ___fladd
             ___xxtofl (ARG)
           ___flmul (ARG)
             ___fladd (ARG)
               ___xxtofl (ARG)
           ___xxtofl (ARG)
       ___flmul
         ___fladd (ARG)
           ___xxtofl (ARG)
       ___flneg
       ___flsub
         ___fladd
           ___xxtofl (ARG)
         ___flmul (ARG)
           ___fladd (ARG)
             ___xxtofl (ARG)
         ___xxtofl (ARG)
       ___xxtofl
       _fabsf
       _scalbnf
         ___flmul
           ___fladd (ARG)
             ___xxtofl (ARG)
       _sqrtf
         ___fladd
           ___xxtofl (ARG)
         ___flge
           ___fladd (ARG)
             ___xxtofl (ARG)
           ___flsub (ARG)
             ___fladd
               ___xxtofl (ARG)
             ___flmul (ARG)
               ___fladd (ARG)
                 ___xxtofl (ARG)
             ___xxtofl (ARG)
         ___flmul
           ___fladd (ARG)
             ___xxtofl (ARG)
         _nanf
   ___xxtofl
   _powf
     ___fladd
       ___xxtofl (ARG)
     ___fldiv
       ___fladd (ARG)
         ___xxtofl (ARG)
       ___flmul (ARG)
         ___fladd (ARG)
           ___xxtofl (ARG)
       ___flsub (ARG)
         ___fladd
           ___xxtofl (ARG)
         ___flmul (ARG)
           ___fladd (ARG)
             ___xxtofl (ARG)
         ___xxtofl (ARG)
     ___flge
       ___fladd (ARG)
         ___xxtofl (ARG)
       ___flsub (ARG)
         ___fladd
           ___xxtofl (ARG)
         ___flmul (ARG)
           ___fladd (ARG)
             ___xxtofl (ARG)
         ___xxtofl (ARG)
     ___flmul
       ___fladd (ARG)
         ___xxtofl (ARG)
     ___flneg
     ___flsub
       ___fladd
         ___xxtofl (ARG)
       ___flmul (ARG)
         ___fladd (ARG)
           ___xxtofl (ARG)
       ___xxtofl (ARG)
     ___xxtofl
     _fabsf
     _scalbnf
       ___flmul
         ___fladd (ARG)
           ___xxtofl (ARG)
     _sqrtf
       ___fladd
         ___xxtofl (ARG)
       ___flge
         ___fladd (ARG)
           ___xxtofl (ARG)
         ___flsub (ARG)
           ___fladd
             ___xxtofl (ARG)
           ___flmul (ARG)
             ___fladd (ARG)
               ___xxtofl (ARG)
           ___xxtofl (ARG)
       ___flmul
         ___fladd (ARG)
           ___xxtofl (ARG)
       _nanf

 Address spaces:
Name               Size   Autos  Total    Cost      Usage
BIGRAM             7FF      0       0      21        0.0%
EEDATA             100      0       0       0        0.0%
BITBANK7           100      0       0      18        0.0%
BANK7              100      0       0      19        0.0%
BITBANK6           100      0       0      16        0.0%
BANK6              100      0       0      17        0.0%
BITBANK5           100      0       0      14        0.0%
BANK5              100      0       0      15        0.0%
BITBANK4           100      0       0      12        0.0%
BANK4              100      0       0      13        0.0%
BITBANK3           100      0       0      10        0.0%
BANK3              100      0       0      11        0.0%
BITBANK2           100      0       0       8        0.0%
BANK2              100      0       0       9        0.0%
BITBANK1           100      0       0       6        0.0%
BANK1              100     BC      BC       7       73.4%
BITBANK0            A0      0       0       4        0.0%
BANK0               A0     57      5D       5       58.1%
BITCOMRAM           5F      0       0       0        0.0%
COMRAM              5F     5E      5E       1       98.9%
BITSFR               0      0       0     200        0.0%
SFR                  0      0       0     200        0.0%
STACK                0      0       0       2        0.0%
NULL                 0      0       0       0        0.0%
ABS                  0      0     177      20        0.0%
DATA                 0      0     177       3        0.0%
CODE                 0      0       0       0        0.0%


Microchip Technology PIC18 Macro Assembler V2.20 build 20200408173844 
Symbol Table                                                                                   Wed Aug 26 16:48:26 2020

           ___fldiv@aexp 0058             ___fldiv@bexp 0057             ___fldiv@sign 0050  
                     _L1 0859                       _L2 0855                       _L3 0851  
                     _L4 084D                       _L5 0849                       l42 3F7C  
                     _L6 0845                       l44 3FC4                       _P1 0841  
                     _P2 083D                       _P3 0839                       _P4 0835  
                     _P5 0831                       _bp 0869                       _cp 081D  
                    l321 4E1C                      l316 4DD6                      l325 4E9A  
                    l348 4D18                      l605 3B26                      l621 4E62  
                    l606 3B14                      l720 4BA8                      l633 4828  
                    l713 4B4C                      l706 4AB4                      l635 4688  
                    l644 46CE                      l580 392A                      l581 38F0  
                    l709 4C10                      l805 0C18                      l646 4746  
                    l638 464C                      l902 3238                      l647 4734  
                    l823 0E00                      l815 0CDA                      l672 4320  
                    l665 412A                      l682 4450                      l674 4398  
                    l930 374C                      l579 393C                      l675 4386  
                    l596 3A56                      l588 3C0C                      l908 4ECE  
                    l669 448E                      l941 35AE                      l918 4A5C  
                    l934 348C                      l790 328C                      l943 36B6  
                    l953 4EF0                      l785 0880                      l938 34EA  
                    l891 2A86                      l795 0B82                      l787 08A0  
                    l892 2B02                      _lg2 082D                      _ovt 0821  
                    wreg 000FE8             ___flmul@aexp 0030             ___flmul@bexp 0031  
           ___flmul@sign 002B             ___flmul@temp 0036             ___flmul@prod 0032  
           ___fltol@exp1 005E                     l3001 0C3A                     l3011 0CA2  
                   l3003 0C62                     l2301 3814                     l3101 1436  
                   l3021 0D56                     l3013 0CEE                     l2311 384E  
                   l2303 3816                     l3111 1530                     l3103 14E6  
                   l3031 0DCE                     l3023 0D64                     l3015 0D06  
                   l3007 0C78                     l2401 3A6C                     l2321 3862  
                   l2313 3852                     l2305 381E                     l3201 1DEE  
                   l3121 15FC                     l3113 1564                     l3105 14F6  
                   l3041 0E62                     l3033 0DE4                     l3009 0C94  
                   l2411 3AA8                     l2403 3A7C                     l2331 3876  
                   l2323 3866                     l2315 3856                     l2307 382E  
                   l3211 1ECE                     l3203 1E22                     l3131 16AE  
                   l3123 160E                     l3107 1506                     l3115 159C  
                   l3043 0EC6                     l3035 0E10                     l3027 0D8C  
                   l3019 0D3E                     l2421 3AD4                     l2413 3AAA  
                   l2341 388A                     l2333 387A                     l2325 386A  
                   l2317 385A                     l2309 3840                     l2501 413A  
                   l3301 26A2                     l3221 1F70                     l3213 1EDE  
                   l3205 1E56                     l3141 1736                     l3133 16C6  
                   l3125 161E                     l3117 15AC                     l3109 1520  
                   l3045 0F46                     l3037 0E1E                     l3053 0F96  
                   l3029 0DB0                     l2431 3B0C                     l2415 3AB8  
                   l2407 3A90                     l2423 3AD6                     l2351 38E8  
                   l2335 387E                     l2327 386E                     l2319 385E  
                   l2343 388E                     l2271 376A                     l2511 4174  
                   l2503 414A                     l3303 271C                     l3231 2098  
                   l3223 1FA4                     l3215 1EF8                     l3207 1E8A  
                   l3151 1782                     l3143 1746                     l3135 16EA  
                   l3119 15C8                     l3127 162E                     l3071 10B6  
                   l3063 104A                     l3055 0FA6                     l3047 0F5E  
                   l3039 0E52                     l2441 3B8A                     l2417 3AC0  
                   l2409 3A9A                     l2425 3AE4                     l2361 391E  
                   l2353 38FE                     l2345 3892                     l2337 3882  
                   l2329 3872                     l2273 377A                     l2281 37A4  
                   l2265 374E                     l2521 41C6                     l2513 418A  
                   l2601 4D58                     l3241 213A                     l3233 20A8  
                   l3225 1FD8                     l3217 1F08                     l3209 1EBE  
                   l3161 18B6                     l3153 17E0                     l3145 1752  
                   l3137 16FE                     l3129 1696                     l3081 11C0  
                   l3073 10C4                     l3065 1060                     l3057 0FB4  
                   l3049 0F82                     l3411 4C7E                     l3403 4C3C  
                   l2451 3BD0                     l2435 3B36                     l2443 3B8C  
                   l2427 3AE8                     l2419 3AC4                     l2371 396E  
                   l2363 3928                     l2355 390A                     l2347 38BC  
                   l2339 3886                     l2291 37D4                     l2283 37B4  
                   l2275 378A                     l2267 375A                     l2531 420C  
                   l2523 41D4                     l2515 4196                     l2507 415E  
                   l2611 4DC4                     l2603 4D86                     l3331 2AF2  
                   l3315 283C                     l3323 291C                     l3307 2788  
                   l3251 22A2                     l3243 216E                     l3235 20C2  
                   l3227 2054                     l3219 1F3C                     l3171 19BC  
                   l3163 18C6                     l3155 1862                     l3139 1722  
                   l3147 1762                     l3091 12EA                     l3083 11DE  
                   l3075 1130                     l3059 0FCA                     l3067 1070  
                   l3421 4CAE                     l3413 4C8C                     l3405 4C68  
                   l2701 4656                     l2461 3BFA                     l2453 3BDE  
                   l2445 3B9C                     l2437 3B42                     l2429 3AF6  
                   l2381 39AA                     l2373 397E                     l2365 394A  
                   l2357 390E                     l2349 38D8                     l2293 37E2  
                   l2285 37BA                     l2277 379A                     l2269 3768  
                   l2541 427A                     l2533 4226                     l2525 41E0  
                   l2517 41AE                     l2509 416A                     l2613 4E14  
                   l2605 4D96                     l2621 4EE0                     l3341 2C0C  
                   l3333 2B84                     l3325 298E                     l3317 285A  
                   l3309 27D0                     l3261 236E                     l3253 2300  
                   l3245 21EA                     l3237 20D2                     l3229 2088  
                   l3181 1B0E                     l3173 19CC                     l3165 18E0  
                   l3157 1896                     l3149 1772                     l3093 1342  
                   l3085 124A                     l3069 1092                     l3431 4CD8  
                   l3423 4CB8                     l3407 4C6A                     l2711 46AE  
                   l2703 4674                     l2631 44AC                     l2463 3BFC  
                   l2455 3BE4                     l2447 3BAC                     l2439 3B50  
                   l2391 39F0                     l2383 39B8                     l2375 398C  
                   l2367 395A                     l2359 391C                     l2295 37E4  
                   l2287 37CC                     l2279 379C                     l2551 4310  
                   l2543 42A4                     l2535 4236                     l2527 41F0  
                   l2519 41BA                     l2471 4080                     l2615 4E1A  
                   l2607 4DA4                     l3351 2CAE                     l3343 2C1C  
                   l3335 2B94                     l3327 299E                     l3319 28B0  
                   l3263 237E                     l3255 2334                     l3247 2248  
                   l3239 2106                     l3191 1C7E                     l3183 1B42  
                   l3175 1A2A                     l3167 18F0                     l3159 18A6  
                   l3271 2478                     l3095 1376                     l3079 119C  
                   l3511 3F5A                     l3503 3E96                     l3433 4CE8  
                   l3409 4C7A                     l2721 46EC                     l2713 46B4  
                   l2705 4676                     l2633 44BC                     l2641 44E6  
                   l2625 4490                     l2457 3BE6                     l2449 3BCC  
                   l2393 3A24                     l2385 39BA                     l2377 399A  
                   l2297 37F4                     l2289 37CE                     l2801 4B7E  
                   l2561 4350                     l2553 431E                     l2545 42DA  
                   l2537 4252                     l2529 41FC                     l2481 40B8  
                   l2473 4082                     l2609 4DB6                     l3361 2DFA  
                   l3353 2D06                     l3345 2C36                     l3329 29C0  
                   l3337 2BC8                     l3281 251A                     l3273 2488  
                   l3265 23B2                     l3257 2344                     l3249 226E  
                   l3193 1CD6                     l3185 1B76                     l3177 1A5E  
                   l3169 194A                     l3097 13CE                     l3089 12B6  
                   l3521 3F80                     l3513 3F62                     l3505 3EBE  
                   l3441 3C0E                     l3435 4CF8                     l3419 4CA4  
                   l2731 4756                     l2723 46F0                     l2715 46BE  
                   l2707 4686                     l2651 4512                     l2643 44F6  
                   l2635 44CC                     l2627 449C                     l2459 3BEC  
                   l2395 3A26                     l2387 39C4                     l2379 39A6  
                   l2299 3804                     l2811 4BBC                     l2803 4B8A  
                   l2571 43C2                     l2563 437E                     l2555 4330  
                   l2547 42E8                     l2539 425E                     l2491 40E4  
                   l2483 40C8                     l2475 4092                     l2467 4066  
                   l2619 4ED0                     l3371 2F8E                     l3363 2E2E  
                   l3355 2D5E                     l3347 2C46                     l3339 2BFC  
                   l3291 25FA                     l3283 2572                     l3275 2498  
                   l3267 2410                     l3259 2354                     l3195 1D2E  
                   l3187 1BCE                     l3179 1AB6                     l3099 1402  
                   l3531 4000                     l3523 3F9A                     l3515 3F74  
                   l3507 3EF4                     l3443 3C38                     l3437 4D08  
                   l3429 4CCC                     l2741 47B8                     l2733 4762  
                   l2725 46FE                     l2717 46CC                     l2709 4698  
                   l2653 4522                     l2661 454C                     l2645 44FC  
                   l2637 44DC                     l2629 44AA                     l2397 3A36  
                   l2389 39CA                     l2813 4BE0                     l2805 4B98  
                   l2901 4EBC                     l2581 4438                     l2573 43EC  
                   l2557 433E                     l2549 4306                     l2493 40F4  
                   l2485 40CE                     l2477 40A2                     l2469 4072  
                   l3381 3122                     l3373 2FE6                     l3365 2E86  
                   l3357 2D92                     l3349 2C7A                     l3293 261E  
                   l3285 25A6                     l3277 24B2                     l3269 2444  
                   l3197 1D62                     l3189 1C26                     l3533 4008  
                   l3525 3FA4                     l3509 3F40                     l3461 3CE0  
                   l3453 3C58                     l3445 3C46                     l2751 4816  
                   l2743 47CE                     l2735 4770                     l2727 472C  
                   l2719 46DE                     l2671 458E                     l2663 455C  
                   l2655 4532                     l2647 4502                     l2639 44DE  
                   l2399 3A46                     l2815 4BF0                     l2807 4BB6  
                   l2903 4EBE                     l2583 4454                     l2591 447A  
                   l2567 43A8                     l2575 43F0                     l2559 4342  
                   l2495 4104                     l2487 40D4                     l2479 40B2  
                   l2911 4856                     l2831 32E4                     l2823 328E  
                   l3391 3208                     l3383 3156                     l3375 3062  
                   l3367 2EDE                     l3359 2DC6                     l3287 25DA  
                   l3279 24C2                     l3199 1D96                     l3527 3FC6  
                   l3471 3D1E                     l3463 3CEE                     l3455 3C80  
                   l3447 3C50                     l2753 481C                     l2745 47E8  
                   l2737 479A                     l2665 4572                     l2657 4542  
                   l2649 4510                     l2817 4BFE                     l2809 4BB8  
                   l2593 447E                     l2585 4464                     l2577 440A  
                   l2569 43B4                     l2497 4114                     l2489 40E2  
                   l2921 48EA                     l2913 488A                     l2841 33A0  
                   l2825 328E                     l3393 3258                     l3385 3166  
                   l3377 30BA                     l3369 2F36                     l3289 25EA  
                   l3529 3FE0                     l3473 3D5C                     l3457 3CBE  
                   l3537 4024                     l2755 481E                     l2747 4804  
                   l2739 479E                     l2691 4610                     l2683 45C6  
                   l2667 4582                     l2675 45A2                     l2659 4544  
                   l2771 4E7A                     l2763 4E1E                     l2819 4C00  
                   l2587 4472                     l2579 441E                     l2499 411A  
                   l2931 496A                     l2923 4906                     l2915 4892  
                   l2907 482A                     l2851 342C                     l2843 33AE  
                   l2835 3340                     l2827 329E                     l3387 3176  
                   l3379 30EE                     l3299 268A                     l3491 3E52  
                   l3475 3D76                     l3459 3CD8                     l3397 4C12  
                   l2749 4808                     l2693 4618                     l2685 45E0  
                   l2677 45B2                     l2669 458A                     l2773 4E8A  
                   l2765 4E2E                     l2781 4A7E                     l2589 4474  
                   l2933 4986                     l2917 48AE                     l2941 49E6  
                   l2925 4912                     l2909 483A                     l2597 4D1A  
                   l2861 34CC                     l2853 3440                     l2845 33B6  
                   l2837 335E                     l2829 32AE                     l3389 31B8  
                   l3493 3E6C                     l3485 3DA8                     l3477 3D7C  
                   l3469 3CF6                     l3399 4C28                     l2695 4628  
                   l2687 45F0                     l2679 45B2                     l2791 4AF6  
                   l2783 4AC4                     l2943 4A18                     l2935 49BA  
                   l2927 492E                     l2919 48E2                     l2599 4D48  
                   l2871 3576                     l2863 34DA                     l2855 344A  
                   l2839 338C                     l2951 0908                     l3575 403C  
                   l3495 3E72                     l3487 3DD0                     l3479 3D9C  
                   l2697 463C                     l2689 4600                     l2769 4E64  
                   l2793 4B02                     l2785 4ADA                     l2777 4A60  
                   l2945 4A4C                     l2937 49C2                     l2929 4962  
                   l2881 3604                     l2873 35BE                     l2865 3504  
                   l2857 3456                     l2849 33D6                     l2961 0950  
                   l3497 3E8E                     l3489 3E06                     l2699 464A  
                   l2795 4B34                     l2779 4A70                     l2939 49DE  
                   l2891 371C                     l2883 3636                     l2875 35C8  
                   l2867 3524                     l2859 3464                     l2971 09DC  
                   l2963 0972                     l2955 091E                     l2797 4B36  
                   l2789 4AEE                     l2893 372C                     l2885 3648  
                   l2877 35DE                     l2869 3538                     l2981 0B34  
                   l2973 09EA                     l2965 0994                     l2957 093A  
                   l2949 08C0                     l2799 4B42                     l2895 373C  
                   l2887 367A                     l2879 35F4                     l2991 0BD2  
                   l2983 0BA0                     l2975 0A06                     l2889 368C  
                   l2993 0BF4                     l2985 0BBC                     l2977 0A1A  
                   l2969 09CC                     l2899 4E9C                     l2995 0C02  
                   l2979 0A36                     l2999 0C2C                     STR_1 087D  
                   u2000 38D6                     u2010 38FE                     u2011 38FA  
                   u2100 3A36                     u2020 391C                     u2101 3A32  
                   u2021 3918                     u2110 3A6C                     u2030 393C  
                   u2111 3A68                     u2031 3938                     u2200 3B36  
                   u2120 3A7C                     u2040 394A                     u3000 4856  
                   u2201 3B32                     u2121 3A78                     u2041 3946  
                   u3001 4852                     u2210 3B50                     u2130 3AA8  
                   u2050 395A                     u3010 48AE                     u2211 3B4C  
                   u2131 3AA4                     u2051 3956                     u3011 48AA  
                   u2220 3B8A                     u2140 3AB8                     u2060 398C  
                   u2300 40A2                     u3020 4906                     u3100 0994  
                   u2221 3B86                     u2141 3AB4                     u2061 3988  
                   u2301 409E                     u3021 4902                     u3101 0990  
                   u2230 3B9C                     u2150 3AD4                     u2070 399A  
                   u2310 40E2                     u3030 492E                     u3110 09EA  
                   u2231 3B98                     u2151 3AD0                     u2071 3996  
                   u2311 40DE                     u3031 492A                     u3111 09E6  
                   u2240 3BAC                     u2160 3AE4                     u2080 39B8  
                   u2400 437E                     u2320 40F4                     u3040 4986  
                   u3200 0BF4                     u3120 0A06                     u2241 3BA8  
                   u2161 3AE0                     u2081 39B4                     u2401 437A  
                   u2321 40F0                     u3041 4982                     u3201 0BF0  
                   u3121 0A02                     u2250 3BCC                     u2170 3AF6  
                   u2090 39F0                     u2410 4394                     u2330 4104  
                   u3050 49DE                     u3210 0C02                     u3130 0A36  
                   u2251 3BC8                     u2171 3AF2                     u2091 39EC  
                   u2411 4390                     u2331 4100                     u3051 49DA  
                   u3211 0BFE                     u3131 0A32                     u2260 3BDE  
                   u2180 3B0C                     u2420 43A8                     u2340 413A  
                   u2500 4DC4                     u3300 0E00                     u3220 0C3A  
                   u2261 3BDA                     u2181 3B08                     u2421 43A4  
                   u2341 4136                     u2501 4DC0                     u3301 0DFC  
                   u3221 0C36                     u2270 3BFA                     u2190 3B22  
                   u2430 43C2                     u2350 414A                     u2510 4E14  
                   u3310 0E1E                     u3230 0C94                     u3070 0908  
                   u2271 3BF6                     u2191 3B1E                     u2431 43BE  
                   u2351 4146                     u2511 4E10                     u3311 0E1A  
                   u3231 0C90                     u3071 0904                     u2600 4628  
                   u2520 44AA                     u2440 440A                     u2360 42C4  
                   u2280 4080                     u3400 10C4                     u3320 0E62  
                   u3240 0CA2                     u3160 0AFA                     u3080 093A  
                   u2601 4624                     u2521 44A6                     u2441 4406  
                   u2281 407C                     u3065 49F8                     u3401 10C0  
                   u3321 0E5E                     u3241 0C9E                     u3145 0A4C  
                   u3081 0936                     u2610 464A                     u2530 44BC  
                   u2450 4438                     u2370 431E                     u2290 4092  
                   u3410 11C0                     u3330 0EC6                     u3250 0D06  
                   u3170 0B34                     u3146 0A56                     u3090 0972  
                   u2611 4646                     u2531 44B8                     u2451 4434  
                   u2371 431A                     u2291 408E                     u3411 11BC  
                   u3331 0EC2                     u3251 0D02                     u3171 0B30  
                   u3155 0AA6                     u3147 0A66                     u3091 096E  
                   u2700 4756                     u2620 4674                     u2540 44CC  
                   u1900 377A                     u2460 4472                     u2380 433E  
                   u3500 271C                     u3420 11DE                     u3340 0F5E  
                   u3260 0D56                     u3180 0BA0                     u3156 0AB0  
                   u2701 4752                     u2621 4670                     u2541 44C8  
                   u1901 3776                     u2461 446E                     u2381 433A  
                   u2365 42BA                     u3501 2718                     u3421 11DA  
                   u3341 0F5A                     u3261 0D52                     u3181 0B9C  
                   u3165 0AF0                     u3157 0AC0                     u2710 4770  
                   u2630 4698                     u2550 4510                     u1910 378A  
                   u2390 4350                     u2470 4D48                     u3510 27D0  
                   u3430 15C8                     u3350 0FB4                     u3270 0D64  
                   u3190 0BBC                     u2711 476C                     u2631 4694  
                   u2551 450C                     u1911 3786                     u2391 434C  
                   u2471 4D44                     u3511 27CC                     u3431 15C4  
                   u3351 0FB0                     u3271 0D60                     u3191 0BB8  
                   u2720 47B8                     u2640 46AE                     u2560 4522  
                   u1920 37CC                     u2800 4B7A                     u2480 4D86  
                   u3600 2B84                     u3520 285A                     u3360 0FCA  
                   u3280 0DCE                     u2721 47B4                     u2641 46AA  
                   u2561 451E                     u1921 37C8                     u2801 4B76  
                   u2481 4D82                     u3601 2B80                     u3521 2856  
                   u3361 0FC6                     u3281 0DCA                     u2730 47E8  
                   u2650 46CC                     u2570 4532                     u1930 37E2  
                   u2810 4B98                     u2490 4DA4                     u3530 28B0  
                   u3450 16EA                     u3370 1060                     u3290 0DE4  
                   u2731 47E4                     u2651 46C8                     u2571 452E  
                   u1931 37DE                     u2811 4B94                     u2491 4DA0  
                   u3531 28AC                     u3451 16E6                     u3371 105C  
                   u3291 0DE0                     u3700 4CF8                     u2740 4816  
                   u2660 46EC                     u2580 4572                     u1940 37F4  
                   u2820 4BA8                     u3460 1722                     u3380 1092  
                   u3701 4CF4                     u2741 4812                     u2661 46E8  
                   u2581 456E                     u1941 37F0                     u2821 4BA4  
                   u3461 171E                     u3445 1644                     u3381 108E  
                   u2670 46FE                     u2590 45B2                     u2750 4E7A  
                   u1950 3804                     u2830 4BB6                     u2910 342C  
                   u3630 3208                     u3550 29C0                     u3446 164E  
                   u3390 10B6                     u3710 3C46                     u2671 46FA  
                   u2591 45AE                     u2751 4E76                     u1951 3800  
                   u2831 4BB2                     u2911 3428                     u3631 3204  
                   u3615 3188                     u3551 29BC                     u3447 165E  
                   u3391 10B2                     u3711 3C42                     u3640 4C28  
                   u2680 472C                     u1960 3840                     u2840 4BF0  
                   u2760 4A70                     u2920 3464                     u3480 261E  
                   u3720 3CEE                     u3641 4C24                     u2681 4728  
                   u1961 383C                     u2841 4BEC                     u2761 4A6C  
                   u2921 3460                     u2905 33EA                     u3625 31CE  
                   u3545 294C                     u3481 261A                     u3721 3CEA  
                   u3650 4C5E                     u2690 4742                     u1970 384E  
                   u1890 3768                     u2850 4BFE                     u2770 4A7E  
                   u2930 34DA                     u2906 33F4                     u3626 31D8  
                   u3546 2956                     u3490 26A2                     u3730 3D98  
                   u2691 473E                     u1971 384A                     u1891 3764  
                   u2851 4BFA                     u2771 4A7A                     u2931 34D6  
                   u2907 3404                     u3627 31E8                     u3547 2966  
                   u3491 269E                     u3475 195C                     u3731 3D94  
                   u3660 4C8C                     u1980 38BC                     u2780 4ADA  
                   u2940 3576                     u2860 32E4                     u3740 3E8E  
                   u3661 4C88                     u1981 38B8                     u2781 4AD6  
                   u2941 3572                     u2861 32E0                     u3565 29DA  
                   u3741 3E8A                     u3670 4CA0                     u1990 38D4  
                   u2790 4B30                     u2950 35DE                     u2870 335E  
                   u3566 29E4                     u3750 3F70                     u3671 4C9C  
                   u3655 4C52                     u1991 38CE                     u2791 4B2C  
                   u2951 35DA                     u2871 335A                     u3575 2A44  
                   u3567 29F4                     u3751 3F6C                     u3807 3F4C  
                   u3680 4CC8                     u2960 35F4                     u2880 338C  
                   u3576 2A4E                     u3760 3FC0                     u3681 4CC4  
                   u2961 35F0                     u2881 3388                     u3585 2A9C  
                   u3577 2A5E                     u3761 3FBC                     u3817 3F8C  
                   u3690 4CE8                     u2970 3636                     u2890 33AE  
                   u3586 2AA6                     u3691 4CE4                     u2971 3632  
                   u2891 33AA                     u3595 2B4A                     u3587 2AB6  
                   u3827 3FD2                     u2980 367A                     u3596 2B54  
                   u2981 3676                     u3597 2B64                     u3837 3FEE  
                   u3847 4014                     u3777 3CCA                     u2995 36FC  
                   u3787 3D68                     u3797 3E5E                     _cp_h 0879  
                   _cp_l 0875                     _dp_h 0809                     _dp_l 0801  
                   _main 3C0E                     _nanf 4ED0                     _huge 0861  
                   _powf 0880                     _tiny 085D                     prodh 000FF4  
                   prodl 000FF3                     start 0000          ___fldiv@new_exp 0051  
           ___param_bank 000000            ___fltol@sign1 005D          __end_of___fladd 3C0E  
                  ?_main 0001                    ?_nanf 0001          __end_of___fldiv 482A  
        __end_of___flneg 4E9C          __end_of___flmul 4490                    ?_powf 0088  
        __end_of___flsub 4E64          __end_of___fltol 4D1A                    _PORTA 000F80  
                  _PORTB 000F81                    _PORTD 000F83                    _TRISA 000F92  
                  _TRISB 000F93                    _TRISD 000F95                    _lg2_h 0829  
                  _lg2_l 0825                    _fabsf 4E9C                    _errno 00BB  
                  _ivln2 0819          __end_of_ivln2_h 0875          __end_of_ivln2_l 0819  
                  _two24 0865          __end_of_scalbnf 4A5E                    main@i 00A9  
                  _sqrtf 328E                    nanf@s 0001                    nanf@u 0005  
                  tablat 000FF5                    powf@i 012C                    powf@j 01AC  
                  powf@k 01A0                    powf@n 017C                    powf@r 014C  
                  powf@s 015C                    powf@t 01B0                    powf@u 0174  
                  powf@v 0178                    powf@w 0144                    powf@x 0088  
                  powf@y 008C                    powf@z 01B4                    status 000FD8  
        __initialization 4EF2             __end_of_cp_h 087D             __end_of_cp_l 0879  
           __end_of_dp_h 0811             __end_of_dp_l 0809             __end_of_main 4066  
           __end_of_nanf 4EF2             __end_of_huge 0865             __end_of_powf 328E  
           __end_of_tiny 0861                   ??_main 009D                   ??_nanf 0005  
                 ??_powf 0090            __activetblptr 000002                   ?_fabsf 0001  
                 _ADCON1 000FC1                   ?_sqrtf 004C         __end_of___xxtofl 4C12  
                 ___flge 4D1A                ??___fladd 0017                ??___fldiv 0048  
              ??___flneg 0005                ??___flmul 0027                ??___flsub 0040  
              ??___fltol 0099                   fabsf@u 0005                   fabsf@x 0001  
              ??_scalbnf 003E             __mediumconst 0000                   powf@s2 018C  
                 powf@t1 0180                   powf@t2 011C                   tblptrh 000FF7  
                 tblptrl 000FF6                   powf@y1 0128                   tblptru 000FF8  
                 powf@ax 0170                   powf@is 0190                   powf@hx 0160  
                 powf@hy 0184                   powf@ix 01A8                   powf@iy 0198  
                 powf@sn 0188                   sqrtf@i 0068                   sqrtf@m 007C  
                 sqrtf@q 0070                   sqrtf@r 0080                   sqrtf@s 0064  
                 sqrtf@t 0074                   sqrtf@x 004C                   sqrtf@z 0078  
             ___flge@ff1 0040               ___flge@ff2 0044             ___xxtofl@arg 000B  
           ___xxtofl@exp 000A             ___xxtofl@val 0001               __accesstop 0060  
__end_of__initialization 4F00               ___flneg@f1 0001            ___rparam_used 000000  
             ___fltol@f1 0059           __pcstackCOMRAM 0001            __end_of_lg2_h 082D  
          __end_of_lg2_l 0829            __end_of_fabsf 4ED0            __end_of_ivln2 081D  
          __end_of_two24 0869            __end_of_sqrtf 374E               __end_of_L1 085D  
             __end_of_L2 0859               __end_of_L3 0855               __end_of_L4 0851  
             __end_of_L5 084D               __end_of_L6 0849               __end_of_P1 0845  
             __end_of_P2 0841               __end_of_P3 083D               __end_of_P4 0839  
             __end_of_P5 0835               __end_of_bp 0871               __end_of_cp 0821  
                ??_fabsf 0005                  ??_sqrtf 0050               __pbssBANK0 00B7  
                ?___flge 0040                ?___xxtofl 0001                  __Hparam 0000  
                __Lparam 0000          __size_of___flge 0104                  ___fladd 374E  
                ___fldiv 4490                  ___flneg 4E64                  ___flmul 4066  
                ___flsub 4E1E                  ___fltol 4C12             __psmallconst 0800  
                __pcinit 4EF2                  __ramtop 0800                  __ptext0 3C0E  
                __ptext1 0880                  __ptext2 328E                  __ptext3 4ED0  
                __ptext4 4D1A                  __ptext5 482A                  __ptext6 4066  
                __ptext7 4E9C                  __ptext8 4A5E                  __ptext9 4E1E  
                _ivln2_h 0871                  _ivln2_l 0815               ??___xxtofl 0005  
                _scalbnf 482A     end_of_initialization 4F00            __Lmediumconst 0000  
                powf@p_h 019C                  powf@p_l 0164                  powf@s_h 016C  
                powf@t_h 0168                  powf@s_l 0130                  powf@t_l 0134  
                powf@z_h 0120                  powf@z_l 0124                  sqrtf@ix 0084  
              _PORTAbits 000F80              ___fladd@grs 001E            ___xxtofl@sign 0009  
            ___fldiv@grs 0053              ___fldiv@rem 004C              ___flmul@grs 002C  
         __end_of___flge 4E1E      start_initialization 4EF2              __end_of_lg2 0831  
            __end_of_ovt 0825                 ??___flge 0048          _tiny@sqrtf$F711 0811  
              ___fladd@a 0013                ___fladd@b 000F                ___fldiv@a 0044  
              ___fldiv@b 0040                ___flmul@a 0023                ___flmul@b 001F  
              ___flsub@a 003C                ___flsub@b 0038            __pcstackBANK0 0060  
          __pcstackBANK1 0100        __size_of___xxtofl 01B4                 ?___fladd 000F  
               ?___fldiv 0040                 ?___flneg 0001                 ?___flmul 001F  
               ?___flsub 0038                 ?___fltol 0059                fabsf@F463 00B7  
            __smallconst 0800                 ?_scalbnf 0038           __size_of_fabsf 0034  
         __size_of_sqrtf 04C0  __end_of_tiny@sqrtf$F711 0815               powf@yisint 0150  
              main@i_156 00AB                main@i_157 00AD                main@i_158 00AF  
              main@i_159 00B1                 __Hparam0 0000                 __Lparam0 0000  
       __size_of___fladd 04C0         __size_of___fldiv 039A         __size_of___flneg 0038  
       __size_of___flmul 042A         __size_of___flsub 0046         __size_of___fltol 0108  
               ___xxtofl 4A5E                 _main$905 00B3                 _main$906 009F  
               _main$907 00A3         __size_of_scalbnf 0234                 __ptext10 374E  
               __ptext11 4E64                 __ptext12 4490                 __ptext13 4C12  
          __size_of_main 0458            __size_of_nanf 0022            __size_of_powf 2A0E  
               _powf$910 0148                 _powf$911 0194                 _powf$912 0138  
               _powf$920 0110                 _powf$921 0114                 _powf$913 0100  
               _powf$922 0118                 _powf$914 0104                 _powf$915 0158  
               _powf$908 01A4                 _powf$916 013C                 _powf$909 0154  
               _powf$917 0140                 _powf$918 0108                 _powf$919 010C  
   powf@__xc8_float_word 01B8                 main@mode 00A7                 scalbnf@n 003C  
               scalbnf@u 0042                 scalbnf@x 0038                 scalbnf@y 0046  
             _OSCCONbits 000FD3            ___fladd@signs 001B    sqrtf@__xc8_float_word 006C  
           ___fladd@aexp 001C             ___fladd@bexp 001D  
